
001Taskx.elf:     file format elf32-littlearm

Sections:
Idx Name          Size      VMA       LMA       File off  Algn
  0 .isr_vector   00000188  08000000  08000000  00001000  2**0
                  CONTENTS, ALLOC, LOAD, READONLY, DATA
  1 .text         0000600c  08000190  08000190  00001190  2**4
                  CONTENTS, ALLOC, LOAD, READONLY, CODE
  2 .rodata       00000150  0800619c  0800619c  0000719c  2**2
                  CONTENTS, ALLOC, LOAD, READONLY, DATA
  3 .ARM.extab    00000000  080062ec  080062ec  00008010  2**0
                  CONTENTS, READONLY
  4 .ARM          00000008  080062ec  080062ec  000072ec  2**2
                  CONTENTS, ALLOC, LOAD, READONLY, DATA
  5 .preinit_array 00000000  080062f4  080062f4  00008010  2**0
                  CONTENTS, ALLOC, LOAD, DATA
  6 .init_array   00000004  080062f4  080062f4  000072f4  2**2
                  CONTENTS, ALLOC, LOAD, READONLY, DATA
  7 .fini_array   00000004  080062f8  080062f8  000072f8  2**2
                  CONTENTS, ALLOC, LOAD, READONLY, DATA
  8 .data         00000010  20000000  080062fc  00008000  2**2
                  CONTENTS, ALLOC, LOAD, DATA
  9 .ccmram       00000000  10000000  10000000  00008010  2**0
                  CONTENTS
 10 .bss          0001441c  20000010  20000010  00008010  2**2
                  ALLOC
 11 ._user_heap_stack 00000604  2001442c  2001442c  00008010  2**0
                  ALLOC
 12 .ARM.attributes 00000030  00000000  00000000  00008010  2**0
                  CONTENTS, READONLY
 13 .debug_info   00012554  00000000  00000000  00008040  2**0
                  CONTENTS, READONLY, DEBUGGING, OCTETS
 14 .debug_abbrev 0000291d  00000000  00000000  0001a594  2**0
                  CONTENTS, READONLY, DEBUGGING, OCTETS
 15 .debug_aranges 00001190  00000000  00000000  0001ceb8  2**3
                  CONTENTS, READONLY, DEBUGGING, OCTETS
 16 .debug_rnglists 00000d8a  00000000  00000000  0001e048  2**0
                  CONTENTS, READONLY, DEBUGGING, OCTETS
 17 .debug_macro  0002408a  00000000  00000000  0001edd2  2**0
                  CONTENTS, READONLY, DEBUGGING, OCTETS
 18 .debug_line   000132d4  00000000  00000000  00042e5c  2**0
                  CONTENTS, READONLY, DEBUGGING, OCTETS
 19 .debug_str    000e53ca  00000000  00000000  00056130  2**0
                  CONTENTS, READONLY, DEBUGGING, OCTETS
 20 .comment      00000043  00000000  00000000  0013b4fa  2**0
                  CONTENTS, READONLY
 21 .debug_frame  00004958  00000000  00000000  0013b540  2**2
                  CONTENTS, READONLY, DEBUGGING, OCTETS
 22 .debug_line_str 00000094  00000000  00000000  0013fe98  2**0
                  CONTENTS, READONLY, DEBUGGING, OCTETS

Disassembly of section .text:

08000190 <__do_global_dtors_aux>:
 8000190:	b510      	push	{r4, lr}
 8000192:	4c05      	ldr	r4, [pc, #20]	@ (80001a8 <__do_global_dtors_aux+0x18>)
 8000194:	7823      	ldrb	r3, [r4, #0]
 8000196:	b933      	cbnz	r3, 80001a6 <__do_global_dtors_aux+0x16>
 8000198:	4b04      	ldr	r3, [pc, #16]	@ (80001ac <__do_global_dtors_aux+0x1c>)
 800019a:	b113      	cbz	r3, 80001a2 <__do_global_dtors_aux+0x12>
 800019c:	4804      	ldr	r0, [pc, #16]	@ (80001b0 <__do_global_dtors_aux+0x20>)
 800019e:	f3af 8000 	nop.w
 80001a2:	2301      	movs	r3, #1
 80001a4:	7023      	strb	r3, [r4, #0]
 80001a6:	bd10      	pop	{r4, pc}
 80001a8:	20000010 	.word	0x20000010
 80001ac:	00000000 	.word	0x00000000
 80001b0:	08006184 	.word	0x08006184

080001b4 <frame_dummy>:
 80001b4:	b508      	push	{r3, lr}
 80001b6:	4b03      	ldr	r3, [pc, #12]	@ (80001c4 <frame_dummy+0x10>)
 80001b8:	b11b      	cbz	r3, 80001c2 <frame_dummy+0xe>
 80001ba:	4903      	ldr	r1, [pc, #12]	@ (80001c8 <frame_dummy+0x14>)
 80001bc:	4803      	ldr	r0, [pc, #12]	@ (80001cc <frame_dummy+0x18>)
 80001be:	f3af 8000 	nop.w
 80001c2:	bd08      	pop	{r3, pc}
 80001c4:	00000000 	.word	0x00000000
 80001c8:	20000014 	.word	0x20000014
 80001cc:	08006184 	.word	0x08006184

080001d0 <SEGGER_RTT_ASM_WriteSkipNoLock>:
        //   R4 <Rem>
        //   R5 pRing->pBuffer
        //   R6 pRing (Points to active struct SEGGER_RTT_BUFFER_DOWN)
        //   R7 WrOff
        //
        PUSH     {R4-R7}
 80001d0:	b4f0      	push	{r4, r5, r6, r7}
        ADD      R3,R0,R0, LSL #+1
 80001d2:	eb00 0340 	add.w	r3, r0, r0, lsl #1
        LDR.W    R0,=_SEGGER_RTT                 // pRing = &_SEGGER_RTT.aUp[BufferIndex];
 80001d6:	f8df 0088 	ldr.w	r0, [pc, #136]	@ 8000260 <_Case3+0x6>
        ADD      R0,R0,R3, LSL #+3
 80001da:	eb00 00c3 	add.w	r0, r0, r3, lsl #3
        ADD      R6,R0,#+24
 80001de:	f100 0618 	add.w	r6, r0, #24
        LDR      R0,[R6, #+16]                   // RdOff = pRing->RdOff;
 80001e2:	6930      	ldr	r0, [r6, #16]
        LDR      R7,[R6, #+12]                   // WrOff = pRing->WrOff;
 80001e4:	68f7      	ldr	r7, [r6, #12]
        LDR      R5,[R6, #+4]                    // pRing->pBuffer
 80001e6:	6875      	ldr	r5, [r6, #4]
        CMP      R7,R0
 80001e8:	4287      	cmp	r7, r0
        BCC.N    _CheckCase4                     // if (RdOff <= WrOff) {                           => Case 1), 2) or 3)
 80001ea:	d332      	bcc.n	8000252 <_CheckCase4>
        //
        // Handling for case 1, later on identical to case 4
        //
        LDR      R3,[R6, #+8]                    //  Avail = pRing->SizeOfBuffer - WrOff - 1u;      => Space until wrap-around (assume 1 byte not usable for case that RdOff == 0)
 80001ec:	68b3      	ldr	r3, [r6, #8]
        SUBS     R4,R3,R7                        // <Rem> (Used in case we jump into case 2 afterwards)
 80001ee:	1bdc      	subs	r4, r3, r7
        SUBS     R3,R4,#+1                       // <Avail>
 80001f0:	1e63      	subs	r3, r4, #1
        CMP      R3,R2
 80001f2:	4293      	cmp	r3, r2
        BCC.N    _CheckCase2                     // if (Avail >= NumBytes) {  => Case 1)?
 80001f4:	d314      	bcc.n	8000220 <_CheckCase2>

080001f6 <_Case4>:
_Case4:
        ADDS     R5,R7,R5                        // pBuffer += WrOff
 80001f6:	197d      	adds	r5, r7, r5
        ADDS     R0,R2,R7                        // v = WrOff + NumBytes
 80001f8:	19d0      	adds	r0, r2, r7
 80001fa:	bf00      	nop

080001fc <_LoopCopyStraight>:
        // 2x unrolling for the copy loop that is used most of the time
        // This is a special optimization for small SystemView packets and makes them even faster
        //
        _ALIGN(2)
_LoopCopyStraight:                               // memcpy(pRing->pBuffer + WrOff, pData, NumBytes);
        LDRB     R3,[R1], #+1
 80001fc:	f811 3b01 	ldrb.w	r3, [r1], #1
        STRB     R3,[R5], #+1                    // *pDest++ = *pSrc++
 8000200:	f805 3b01 	strb.w	r3, [r5], #1
        SUBS     R2,R2,#+1
 8000204:	3a01      	subs	r2, #1
        BEQ      _CSDone
 8000206:	d005      	beq.n	8000214 <_CSDone>
        LDRB     R3,[R1], #+1
 8000208:	f811 3b01 	ldrb.w	r3, [r1], #1
        STRB     R3,[R5], #+1                    // *pDest++ = *pSrc++
 800020c:	f805 3b01 	strb.w	r3, [r5], #1
        SUBS     R2,R2,#+1
 8000210:	3a01      	subs	r2, #1
        BNE      _LoopCopyStraight
 8000212:	d1f3      	bne.n	80001fc <_LoopCopyStraight>

08000214 <_CSDone>:
_CSDone:
#if _CORE_NEEDS_DMB                              // Do not slow down cores that do not need a DMB instruction here
        DMB                                      // Cortex-M7 may delay memory writes and also change the order in which the writes happen. Therefore, make sure that all buffer writes are finished, before updating the <WrOff> in the struct
 8000214:	f3bf 8f5f 	dmb	sy
#endif
        STR      R0,[R6, #+12]                   // pRing->WrOff = WrOff + NumBytes;
 8000218:	60f0      	str	r0, [r6, #12]
        MOVS     R0,#+1
 800021a:	2001      	movs	r0, #1
        POP      {R4-R7}
 800021c:	bcf0      	pop	{r4, r5, r6, r7}
        BX       LR                              // Return 1
 800021e:	4770      	bx	lr

08000220 <_CheckCase2>:
_CheckCase2:
        ADDS     R0,R0,R3                        // Avail += RdOff; => Space incl. wrap-around
 8000220:	18c0      	adds	r0, r0, r3
        CMP      R0,R2
 8000222:	4290      	cmp	r0, r2
        BCC.N    _Case3                          // if (Avail >= NumBytes) {           => Case 2? => If not, we have case 3) (does not fit)
 8000224:	d319      	bcc.n	800025a <_Case3>
        //
        // Handling for case 2
        //
        ADDS     R0,R7,R5                        // v = pRing->pBuffer + WrOff => Do not change pRing->pBuffer here because 2nd chunk needs org. value
 8000226:	1978      	adds	r0, r7, r5
        SUBS     R2,R2,R4                        // NumBytes -= Rem;  (Rem = pRing->SizeOfBuffer - WrOff; => Space until end of buffer)
 8000228:	1b12      	subs	r2, r2, r4

0800022a <_LoopCopyBeforeWrapAround>:
_LoopCopyBeforeWrapAround:                       // memcpy(pRing->pBuffer + WrOff, pData, Rem); => Copy 1st chunk
        LDRB     R3,[R1], #+1
 800022a:	f811 3b01 	ldrb.w	r3, [r1], #1
        STRB     R3,[R0], #+1                    // *pDest++ = *pSrc++
 800022e:	f800 3b01 	strb.w	r3, [r0], #1
        SUBS     R4,R4,#+1
 8000232:	3c01      	subs	r4, #1
        BNE      _LoopCopyBeforeWrapAround
 8000234:	d1f9      	bne.n	800022a <_LoopCopyBeforeWrapAround>
        // Special case: First check that assumed RdOff == 0 calculated that last element before wrap-around could not be used
        // But 2nd check (considering space until wrap-around and until RdOff) revealed that RdOff is not 0, so we can use the last element
        // In this case, we may use a copy straight until buffer end anyway without needing to copy 2 chunks
        // Therefore, check if 2nd memcpy is necessary at all
        //
        ADDS     R4,R2,#+0                       // Save <NumBytes> (needed as counter in loop but must be written to <WrOff> after the loop). Also use this inst to update the flags to skip 2nd loop if possible
 8000236:	1c14      	adds	r4, r2, #0
        BEQ.N    _No2ChunkNeeded                 // if (NumBytes) {
 8000238:	d005      	beq.n	8000246 <_No2ChunkNeeded>

0800023a <_LoopCopyAfterWrapAround>:
_LoopCopyAfterWrapAround:                        // memcpy(pRing->pBuffer, pData + Rem, NumBytes);
        LDRB     R3,[R1], #+1                    // pData already points to the next src byte due to copy loop increment before this loop
 800023a:	f811 3b01 	ldrb.w	r3, [r1], #1
        STRB     R3,[R5], #+1                    // *pDest++ = *pSrc++
 800023e:	f805 3b01 	strb.w	r3, [r5], #1
        SUBS     R2,R2,#+1
 8000242:	3a01      	subs	r2, #1
        BNE      _LoopCopyAfterWrapAround
 8000244:	d1f9      	bne.n	800023a <_LoopCopyAfterWrapAround>

08000246 <_No2ChunkNeeded>:
_No2ChunkNeeded:
#if _CORE_NEEDS_DMB                              // Do not slow down cores that do not need a DMB instruction here
        DMB                                      // Cortex-M7 may delay memory writes and also change the order in which the writes happen. Therefore, make sure that all buffer writes are finished, before updating the <WrOff> in the struct
 8000246:	f3bf 8f5f 	dmb	sy
#endif
        STR      R4,[R6, #+12]                   // pRing->WrOff = NumBytes; => Must be written after copying data because J-Link may read control block asynchronously while writing into buffer
 800024a:	60f4      	str	r4, [r6, #12]
        MOVS     R0,#+1
 800024c:	2001      	movs	r0, #1
        POP      {R4-R7}
 800024e:	bcf0      	pop	{r4, r5, r6, r7}
        BX       LR                              // Return 1
 8000250:	4770      	bx	lr

08000252 <_CheckCase4>:
_CheckCase4:
        SUBS     R0,R0,R7
 8000252:	1bc0      	subs	r0, r0, r7
        SUBS     R0,R0,#+1                       // Avail = RdOff - WrOff - 1u;
 8000254:	3801      	subs	r0, #1
        CMP      R0,R2
 8000256:	4290      	cmp	r0, r2
        BCS.N    _Case4                          // if (Avail >= NumBytes) {      => Case 4) == 1) ? => If not, we have case 5) == 3) (does not fit)
 8000258:	d2cd      	bcs.n	80001f6 <_Case4>

0800025a <_Case3>:
_Case3:
        MOVS     R0,#+0
 800025a:	2000      	movs	r0, #0
        POP      {R4-R7}
 800025c:	bcf0      	pop	{r4, r5, r6, r7}
        BX       LR                              // Return 0
 800025e:	4770      	bx	lr
        LDR.W    R0,=_SEGGER_RTT                 // pRing = &_SEGGER_RTT.aUp[BufferIndex];
 8000260:	20012e58 	.word	0x20012e58

08000264 <__aeabi_uldivmod>:
 8000264:	b953      	cbnz	r3, 800027c <__aeabi_uldivmod+0x18>
 8000266:	b94a      	cbnz	r2, 800027c <__aeabi_uldivmod+0x18>
 8000268:	2900      	cmp	r1, #0
 800026a:	bf08      	it	eq
 800026c:	2800      	cmpeq	r0, #0
 800026e:	bf1c      	itt	ne
 8000270:	f04f 31ff 	movne.w	r1, #4294967295	@ 0xffffffff
 8000274:	f04f 30ff 	movne.w	r0, #4294967295	@ 0xffffffff
 8000278:	f000 b988 	b.w	800058c <__aeabi_idiv0>
 800027c:	f1ad 0c08 	sub.w	ip, sp, #8
 8000280:	e96d ce04 	strd	ip, lr, [sp, #-16]!
 8000284:	f000 f806 	bl	8000294 <__udivmoddi4>
 8000288:	f8dd e004 	ldr.w	lr, [sp, #4]
 800028c:	e9dd 2302 	ldrd	r2, r3, [sp, #8]
 8000290:	b004      	add	sp, #16
 8000292:	4770      	bx	lr

08000294 <__udivmoddi4>:
 8000294:	e92d 47f0 	stmdb	sp!, {r4, r5, r6, r7, r8, r9, sl, lr}
 8000298:	9d08      	ldr	r5, [sp, #32]
 800029a:	468e      	mov	lr, r1
 800029c:	4604      	mov	r4, r0
 800029e:	4688      	mov	r8, r1
 80002a0:	2b00      	cmp	r3, #0
 80002a2:	d14a      	bne.n	800033a <__udivmoddi4+0xa6>
 80002a4:	428a      	cmp	r2, r1
 80002a6:	4617      	mov	r7, r2
 80002a8:	d962      	bls.n	8000370 <__udivmoddi4+0xdc>
 80002aa:	fab2 f682 	clz	r6, r2
 80002ae:	b14e      	cbz	r6, 80002c4 <__udivmoddi4+0x30>
 80002b0:	f1c6 0320 	rsb	r3, r6, #32
 80002b4:	fa01 f806 	lsl.w	r8, r1, r6
 80002b8:	fa20 f303 	lsr.w	r3, r0, r3
 80002bc:	40b7      	lsls	r7, r6
 80002be:	ea43 0808 	orr.w	r8, r3, r8
 80002c2:	40b4      	lsls	r4, r6
 80002c4:	ea4f 4e17 	mov.w	lr, r7, lsr #16
 80002c8:	fa1f fc87 	uxth.w	ip, r7
 80002cc:	fbb8 f1fe 	udiv	r1, r8, lr
 80002d0:	0c23      	lsrs	r3, r4, #16
 80002d2:	fb0e 8811 	mls	r8, lr, r1, r8
 80002d6:	ea43 4308 	orr.w	r3, r3, r8, lsl #16
 80002da:	fb01 f20c 	mul.w	r2, r1, ip
 80002de:	429a      	cmp	r2, r3
 80002e0:	d909      	bls.n	80002f6 <__udivmoddi4+0x62>
 80002e2:	18fb      	adds	r3, r7, r3
 80002e4:	f101 30ff 	add.w	r0, r1, #4294967295	@ 0xffffffff
 80002e8:	f080 80ea 	bcs.w	80004c0 <__udivmoddi4+0x22c>
 80002ec:	429a      	cmp	r2, r3
 80002ee:	f240 80e7 	bls.w	80004c0 <__udivmoddi4+0x22c>
 80002f2:	3902      	subs	r1, #2
 80002f4:	443b      	add	r3, r7
 80002f6:	1a9a      	subs	r2, r3, r2
 80002f8:	b2a3      	uxth	r3, r4
 80002fa:	fbb2 f0fe 	udiv	r0, r2, lr
 80002fe:	fb0e 2210 	mls	r2, lr, r0, r2
 8000302:	ea43 4302 	orr.w	r3, r3, r2, lsl #16
 8000306:	fb00 fc0c 	mul.w	ip, r0, ip
 800030a:	459c      	cmp	ip, r3
 800030c:	d909      	bls.n	8000322 <__udivmoddi4+0x8e>
 800030e:	18fb      	adds	r3, r7, r3
 8000310:	f100 32ff 	add.w	r2, r0, #4294967295	@ 0xffffffff
 8000314:	f080 80d6 	bcs.w	80004c4 <__udivmoddi4+0x230>
 8000318:	459c      	cmp	ip, r3
 800031a:	f240 80d3 	bls.w	80004c4 <__udivmoddi4+0x230>
 800031e:	443b      	add	r3, r7
 8000320:	3802      	subs	r0, #2
 8000322:	ea40 4001 	orr.w	r0, r0, r1, lsl #16
 8000326:	eba3 030c 	sub.w	r3, r3, ip
 800032a:	2100      	movs	r1, #0
 800032c:	b11d      	cbz	r5, 8000336 <__udivmoddi4+0xa2>
 800032e:	40f3      	lsrs	r3, r6
 8000330:	2200      	movs	r2, #0
 8000332:	e9c5 3200 	strd	r3, r2, [r5]
 8000336:	e8bd 87f0 	ldmia.w	sp!, {r4, r5, r6, r7, r8, r9, sl, pc}
 800033a:	428b      	cmp	r3, r1
 800033c:	d905      	bls.n	800034a <__udivmoddi4+0xb6>
 800033e:	b10d      	cbz	r5, 8000344 <__udivmoddi4+0xb0>
 8000340:	e9c5 0100 	strd	r0, r1, [r5]
 8000344:	2100      	movs	r1, #0
 8000346:	4608      	mov	r0, r1
 8000348:	e7f5      	b.n	8000336 <__udivmoddi4+0xa2>
 800034a:	fab3 f183 	clz	r1, r3
 800034e:	2900      	cmp	r1, #0
 8000350:	d146      	bne.n	80003e0 <__udivmoddi4+0x14c>
 8000352:	4573      	cmp	r3, lr
 8000354:	d302      	bcc.n	800035c <__udivmoddi4+0xc8>
 8000356:	4282      	cmp	r2, r0
 8000358:	f200 8105 	bhi.w	8000566 <__udivmoddi4+0x2d2>
 800035c:	1a84      	subs	r4, r0, r2
 800035e:	eb6e 0203 	sbc.w	r2, lr, r3
 8000362:	2001      	movs	r0, #1
 8000364:	4690      	mov	r8, r2
 8000366:	2d00      	cmp	r5, #0
 8000368:	d0e5      	beq.n	8000336 <__udivmoddi4+0xa2>
 800036a:	e9c5 4800 	strd	r4, r8, [r5]
 800036e:	e7e2      	b.n	8000336 <__udivmoddi4+0xa2>
 8000370:	2a00      	cmp	r2, #0
 8000372:	f000 8090 	beq.w	8000496 <__udivmoddi4+0x202>
 8000376:	fab2 f682 	clz	r6, r2
 800037a:	2e00      	cmp	r6, #0
 800037c:	f040 80a4 	bne.w	80004c8 <__udivmoddi4+0x234>
 8000380:	1a8a      	subs	r2, r1, r2
 8000382:	0c03      	lsrs	r3, r0, #16
 8000384:	ea4f 4e17 	mov.w	lr, r7, lsr #16
 8000388:	b280      	uxth	r0, r0
 800038a:	b2bc      	uxth	r4, r7
 800038c:	2101      	movs	r1, #1
 800038e:	fbb2 fcfe 	udiv	ip, r2, lr
 8000392:	fb0e 221c 	mls	r2, lr, ip, r2
 8000396:	ea43 4302 	orr.w	r3, r3, r2, lsl #16
 800039a:	fb04 f20c 	mul.w	r2, r4, ip
 800039e:	429a      	cmp	r2, r3
 80003a0:	d907      	bls.n	80003b2 <__udivmoddi4+0x11e>
 80003a2:	18fb      	adds	r3, r7, r3
 80003a4:	f10c 38ff 	add.w	r8, ip, #4294967295	@ 0xffffffff
 80003a8:	d202      	bcs.n	80003b0 <__udivmoddi4+0x11c>
 80003aa:	429a      	cmp	r2, r3
 80003ac:	f200 80e0 	bhi.w	8000570 <__udivmoddi4+0x2dc>
 80003b0:	46c4      	mov	ip, r8
 80003b2:	1a9b      	subs	r3, r3, r2
 80003b4:	fbb3 f2fe 	udiv	r2, r3, lr
 80003b8:	fb0e 3312 	mls	r3, lr, r2, r3
 80003bc:	ea40 4303 	orr.w	r3, r0, r3, lsl #16
 80003c0:	fb02 f404 	mul.w	r4, r2, r4
 80003c4:	429c      	cmp	r4, r3
 80003c6:	d907      	bls.n	80003d8 <__udivmoddi4+0x144>
 80003c8:	18fb      	adds	r3, r7, r3
 80003ca:	f102 30ff 	add.w	r0, r2, #4294967295	@ 0xffffffff
 80003ce:	d202      	bcs.n	80003d6 <__udivmoddi4+0x142>
 80003d0:	429c      	cmp	r4, r3
 80003d2:	f200 80ca 	bhi.w	800056a <__udivmoddi4+0x2d6>
 80003d6:	4602      	mov	r2, r0
 80003d8:	1b1b      	subs	r3, r3, r4
 80003da:	ea42 400c 	orr.w	r0, r2, ip, lsl #16
 80003de:	e7a5      	b.n	800032c <__udivmoddi4+0x98>
 80003e0:	f1c1 0620 	rsb	r6, r1, #32
 80003e4:	408b      	lsls	r3, r1
 80003e6:	fa22 f706 	lsr.w	r7, r2, r6
 80003ea:	431f      	orrs	r7, r3
 80003ec:	fa0e f401 	lsl.w	r4, lr, r1
 80003f0:	fa20 f306 	lsr.w	r3, r0, r6
 80003f4:	fa2e fe06 	lsr.w	lr, lr, r6
 80003f8:	ea4f 4917 	mov.w	r9, r7, lsr #16
 80003fc:	4323      	orrs	r3, r4
 80003fe:	fa00 f801 	lsl.w	r8, r0, r1
 8000402:	fa1f fc87 	uxth.w	ip, r7
 8000406:	fbbe f0f9 	udiv	r0, lr, r9
 800040a:	0c1c      	lsrs	r4, r3, #16
 800040c:	fb09 ee10 	mls	lr, r9, r0, lr
 8000410:	ea44 440e 	orr.w	r4, r4, lr, lsl #16
 8000414:	fb00 fe0c 	mul.w	lr, r0, ip
 8000418:	45a6      	cmp	lr, r4
 800041a:	fa02 f201 	lsl.w	r2, r2, r1
 800041e:	d909      	bls.n	8000434 <__udivmoddi4+0x1a0>
 8000420:	193c      	adds	r4, r7, r4
 8000422:	f100 3aff 	add.w	sl, r0, #4294967295	@ 0xffffffff
 8000426:	f080 809c 	bcs.w	8000562 <__udivmoddi4+0x2ce>
 800042a:	45a6      	cmp	lr, r4
 800042c:	f240 8099 	bls.w	8000562 <__udivmoddi4+0x2ce>
 8000430:	3802      	subs	r0, #2
 8000432:	443c      	add	r4, r7
 8000434:	eba4 040e 	sub.w	r4, r4, lr
 8000438:	fa1f fe83 	uxth.w	lr, r3
 800043c:	fbb4 f3f9 	udiv	r3, r4, r9
 8000440:	fb09 4413 	mls	r4, r9, r3, r4
 8000444:	ea4e 4404 	orr.w	r4, lr, r4, lsl #16
 8000448:	fb03 fc0c 	mul.w	ip, r3, ip
 800044c:	45a4      	cmp	ip, r4
 800044e:	d908      	bls.n	8000462 <__udivmoddi4+0x1ce>
 8000450:	193c      	adds	r4, r7, r4
 8000452:	f103 3eff 	add.w	lr, r3, #4294967295	@ 0xffffffff
 8000456:	f080 8082 	bcs.w	800055e <__udivmoddi4+0x2ca>
 800045a:	45a4      	cmp	ip, r4
 800045c:	d97f      	bls.n	800055e <__udivmoddi4+0x2ca>
 800045e:	3b02      	subs	r3, #2
 8000460:	443c      	add	r4, r7
 8000462:	ea43 4000 	orr.w	r0, r3, r0, lsl #16
 8000466:	eba4 040c 	sub.w	r4, r4, ip
 800046a:	fba0 ec02 	umull	lr, ip, r0, r2
 800046e:	4564      	cmp	r4, ip
 8000470:	4673      	mov	r3, lr
 8000472:	46e1      	mov	r9, ip
 8000474:	d362      	bcc.n	800053c <__udivmoddi4+0x2a8>
 8000476:	d05f      	beq.n	8000538 <__udivmoddi4+0x2a4>
 8000478:	b15d      	cbz	r5, 8000492 <__udivmoddi4+0x1fe>
 800047a:	ebb8 0203 	subs.w	r2, r8, r3
 800047e:	eb64 0409 	sbc.w	r4, r4, r9
 8000482:	fa04 f606 	lsl.w	r6, r4, r6
 8000486:	fa22 f301 	lsr.w	r3, r2, r1
 800048a:	431e      	orrs	r6, r3
 800048c:	40cc      	lsrs	r4, r1
 800048e:	e9c5 6400 	strd	r6, r4, [r5]
 8000492:	2100      	movs	r1, #0
 8000494:	e74f      	b.n	8000336 <__udivmoddi4+0xa2>
 8000496:	fbb1 fcf2 	udiv	ip, r1, r2
 800049a:	0c01      	lsrs	r1, r0, #16
 800049c:	ea41 410e 	orr.w	r1, r1, lr, lsl #16
 80004a0:	b280      	uxth	r0, r0
 80004a2:	ea40 4201 	orr.w	r2, r0, r1, lsl #16
 80004a6:	463b      	mov	r3, r7
 80004a8:	4638      	mov	r0, r7
 80004aa:	463c      	mov	r4, r7
 80004ac:	46b8      	mov	r8, r7
 80004ae:	46be      	mov	lr, r7
 80004b0:	2620      	movs	r6, #32
 80004b2:	fbb1 f1f7 	udiv	r1, r1, r7
 80004b6:	eba2 0208 	sub.w	r2, r2, r8
 80004ba:	ea41 410c 	orr.w	r1, r1, ip, lsl #16
 80004be:	e766      	b.n	800038e <__udivmoddi4+0xfa>
 80004c0:	4601      	mov	r1, r0
 80004c2:	e718      	b.n	80002f6 <__udivmoddi4+0x62>
 80004c4:	4610      	mov	r0, r2
 80004c6:	e72c      	b.n	8000322 <__udivmoddi4+0x8e>
 80004c8:	f1c6 0220 	rsb	r2, r6, #32
 80004cc:	fa2e f302 	lsr.w	r3, lr, r2
 80004d0:	40b7      	lsls	r7, r6
 80004d2:	40b1      	lsls	r1, r6
 80004d4:	fa20 f202 	lsr.w	r2, r0, r2
 80004d8:	ea4f 4e17 	mov.w	lr, r7, lsr #16
 80004dc:	430a      	orrs	r2, r1
 80004de:	fbb3 f8fe 	udiv	r8, r3, lr
 80004e2:	b2bc      	uxth	r4, r7
 80004e4:	fb0e 3318 	mls	r3, lr, r8, r3
 80004e8:	0c11      	lsrs	r1, r2, #16
 80004ea:	ea41 4103 	orr.w	r1, r1, r3, lsl #16
 80004ee:	fb08 f904 	mul.w	r9, r8, r4
 80004f2:	40b0      	lsls	r0, r6
 80004f4:	4589      	cmp	r9, r1
 80004f6:	ea4f 4310 	mov.w	r3, r0, lsr #16
 80004fa:	b280      	uxth	r0, r0
 80004fc:	d93e      	bls.n	800057c <__udivmoddi4+0x2e8>
 80004fe:	1879      	adds	r1, r7, r1
 8000500:	f108 3cff 	add.w	ip, r8, #4294967295	@ 0xffffffff
 8000504:	d201      	bcs.n	800050a <__udivmoddi4+0x276>
 8000506:	4589      	cmp	r9, r1
 8000508:	d81f      	bhi.n	800054a <__udivmoddi4+0x2b6>
 800050a:	eba1 0109 	sub.w	r1, r1, r9
 800050e:	fbb1 f9fe 	udiv	r9, r1, lr
 8000512:	fb09 f804 	mul.w	r8, r9, r4
 8000516:	fb0e 1119 	mls	r1, lr, r9, r1
 800051a:	b292      	uxth	r2, r2
 800051c:	ea42 4201 	orr.w	r2, r2, r1, lsl #16
 8000520:	4542      	cmp	r2, r8
 8000522:	d229      	bcs.n	8000578 <__udivmoddi4+0x2e4>
 8000524:	18ba      	adds	r2, r7, r2
 8000526:	f109 31ff 	add.w	r1, r9, #4294967295	@ 0xffffffff
 800052a:	d2c4      	bcs.n	80004b6 <__udivmoddi4+0x222>
 800052c:	4542      	cmp	r2, r8
 800052e:	d2c2      	bcs.n	80004b6 <__udivmoddi4+0x222>
 8000530:	f1a9 0102 	sub.w	r1, r9, #2
 8000534:	443a      	add	r2, r7
 8000536:	e7be      	b.n	80004b6 <__udivmoddi4+0x222>
 8000538:	45f0      	cmp	r8, lr
 800053a:	d29d      	bcs.n	8000478 <__udivmoddi4+0x1e4>
 800053c:	ebbe 0302 	subs.w	r3, lr, r2
 8000540:	eb6c 0c07 	sbc.w	ip, ip, r7
 8000544:	3801      	subs	r0, #1
 8000546:	46e1      	mov	r9, ip
 8000548:	e796      	b.n	8000478 <__udivmoddi4+0x1e4>
 800054a:	eba7 0909 	sub.w	r9, r7, r9
 800054e:	4449      	add	r1, r9
 8000550:	f1a8 0c02 	sub.w	ip, r8, #2
 8000554:	fbb1 f9fe 	udiv	r9, r1, lr
 8000558:	fb09 f804 	mul.w	r8, r9, r4
 800055c:	e7db      	b.n	8000516 <__udivmoddi4+0x282>
 800055e:	4673      	mov	r3, lr
 8000560:	e77f      	b.n	8000462 <__udivmoddi4+0x1ce>
 8000562:	4650      	mov	r0, sl
 8000564:	e766      	b.n	8000434 <__udivmoddi4+0x1a0>
 8000566:	4608      	mov	r0, r1
 8000568:	e6fd      	b.n	8000366 <__udivmoddi4+0xd2>
 800056a:	443b      	add	r3, r7
 800056c:	3a02      	subs	r2, #2
 800056e:	e733      	b.n	80003d8 <__udivmoddi4+0x144>
 8000570:	f1ac 0c02 	sub.w	ip, ip, #2
 8000574:	443b      	add	r3, r7
 8000576:	e71c      	b.n	80003b2 <__udivmoddi4+0x11e>
 8000578:	4649      	mov	r1, r9
 800057a:	e79c      	b.n	80004b6 <__udivmoddi4+0x222>
 800057c:	eba1 0109 	sub.w	r1, r1, r9
 8000580:	46c4      	mov	ip, r8
 8000582:	fbb1 f9fe 	udiv	r9, r1, lr
 8000586:	fb09 f804 	mul.w	r8, r9, r4
 800058a:	e7c4      	b.n	8000516 <__udivmoddi4+0x282>

0800058c <__aeabi_idiv0>:
 800058c:	4770      	bx	lr
 800058e:	bf00      	nop

08000590 <main>:
/**
  * @brief  The application entry point.
  * @retval int
  */
int main(void)
{
 8000590:	b580      	push	{r7, lr}
 8000592:	b088      	sub	sp, #32
 8000594:	af02      	add	r7, sp, #8
  /* USER CODE END 1 */

  /* MCU Configuration--------------------------------------------------------*/

  /* Reset of all peripherals, Initializes the Flash interface and the Systick. */
  HAL_Init();
 8000596:	f000 fc31 	bl	8000dfc <HAL_Init>
  /* USER CODE BEGIN Init */

  /* USER CODE END Init */

  /* Configure the system clock */
  SystemClock_Config();
 800059a:	f000 f899 	bl	80006d0 <SystemClock_Config>
  /* USER CODE BEGIN SysInit */

  /* USER CODE END SysInit */

  /* Initialize all configured peripherals */
  MX_GPIO_Init();
 800059e:	f000 f901 	bl	80007a4 <MX_GPIO_Init>
  /* USER CODE BEGIN 2 */

  //enable the cycle counting
  DWT_CTRL |=(1<<0);
 80005a2:	4b3d      	ldr	r3, [pc, #244]	@ (8000698 <main+0x108>)
 80005a4:	681b      	ldr	r3, [r3, #0]
 80005a6:	4a3c      	ldr	r2, [pc, #240]	@ (8000698 <main+0x108>)
 80005a8:	f043 0301 	orr.w	r3, r3, #1
 80005ac:	6013      	str	r3, [r2, #0]

  // to start the recording we call the below functions:
  SEGGER_SYSVIEW_Conf();
 80005ae:	f003 fe89 	bl	80042c4 <SEGGER_SYSVIEW_Conf>
  SEGGER_SYSVIEW_Start(); // --> which actually starts the recording
 80005b2:	f004 ff33 	bl	800541c <SEGGER_SYSVIEW_Start>


    status = xTaskCreate(led_green_handler,"LED_GREEN_TASK", 200, NULL, 3, &task1_handle);
 80005b6:	4b39      	ldr	r3, [pc, #228]	@ (800069c <main+0x10c>)
 80005b8:	9301      	str	r3, [sp, #4]
 80005ba:	2303      	movs	r3, #3
 80005bc:	9300      	str	r3, [sp, #0]
 80005be:	2300      	movs	r3, #0
 80005c0:	22c8      	movs	r2, #200	@ 0xc8
 80005c2:	4937      	ldr	r1, [pc, #220]	@ (80006a0 <main+0x110>)
 80005c4:	4837      	ldr	r0, [pc, #220]	@ (80006a4 <main+0x114>)
 80005c6:	f001 ffb2 	bl	800252e <xTaskCreate>
 80005ca:	6178      	str	r0, [r7, #20]
    configASSERT(status == pdPASS);
 80005cc:	697b      	ldr	r3, [r7, #20]
 80005ce:	2b01      	cmp	r3, #1
 80005d0:	d00b      	beq.n	80005ea <main+0x5a>

portFORCE_INLINE static void vPortRaiseBASEPRI( void )
{
    uint32_t ulNewBASEPRI;

    __asm volatile
 80005d2:	f04f 0350 	mov.w	r3, #80	@ 0x50
 80005d6:	f383 8811 	msr	BASEPRI, r3
 80005da:	f3bf 8f6f 	isb	sy
 80005de:	f3bf 8f4f 	dsb	sy
 80005e2:	613b      	str	r3, [r7, #16]
        "   msr basepri, %0                                         \n" \
        "   isb                                                     \n" \
        "   dsb                                                     \n" \
        : "=r" ( ulNewBASEPRI ) : "i" ( configMAX_SYSCALL_INTERRUPT_PRIORITY ) : "memory"
    );
}
 80005e4:	bf00      	nop
 80005e6:	bf00      	nop
 80005e8:	e7fd      	b.n	80005e6 <main+0x56>
    next_task_handle=task1_handle;
 80005ea:	4b2c      	ldr	r3, [pc, #176]	@ (800069c <main+0x10c>)
 80005ec:	681b      	ldr	r3, [r3, #0]
 80005ee:	4a2e      	ldr	r2, [pc, #184]	@ (80006a8 <main+0x118>)
 80005f0:	6013      	str	r3, [r2, #0]
    status = xTaskCreate(led_red_handler,"LED_RED_TASK", 200, NULL, 2, &task2_handle);
 80005f2:	4b2e      	ldr	r3, [pc, #184]	@ (80006ac <main+0x11c>)
 80005f4:	9301      	str	r3, [sp, #4]
 80005f6:	2302      	movs	r3, #2
 80005f8:	9300      	str	r3, [sp, #0]
 80005fa:	2300      	movs	r3, #0
 80005fc:	22c8      	movs	r2, #200	@ 0xc8
 80005fe:	492c      	ldr	r1, [pc, #176]	@ (80006b0 <main+0x120>)
 8000600:	482c      	ldr	r0, [pc, #176]	@ (80006b4 <main+0x124>)
 8000602:	f001 ff94 	bl	800252e <xTaskCreate>
 8000606:	6178      	str	r0, [r7, #20]
    configASSERT(status == pdPASS);
 8000608:	697b      	ldr	r3, [r7, #20]
 800060a:	2b01      	cmp	r3, #1
 800060c:	d00b      	beq.n	8000626 <main+0x96>
    __asm volatile
 800060e:	f04f 0350 	mov.w	r3, #80	@ 0x50
 8000612:	f383 8811 	msr	BASEPRI, r3
 8000616:	f3bf 8f6f 	isb	sy
 800061a:	f3bf 8f4f 	dsb	sy
 800061e:	60fb      	str	r3, [r7, #12]
}
 8000620:	bf00      	nop
 8000622:	bf00      	nop
 8000624:	e7fd      	b.n	8000622 <main+0x92>
    status = xTaskCreate(led_orange_handler,"LED_ORANGE_TASK", 200, NULL, 1, &task3_handle);
 8000626:	4b24      	ldr	r3, [pc, #144]	@ (80006b8 <main+0x128>)
 8000628:	9301      	str	r3, [sp, #4]
 800062a:	2301      	movs	r3, #1
 800062c:	9300      	str	r3, [sp, #0]
 800062e:	2300      	movs	r3, #0
 8000630:	22c8      	movs	r2, #200	@ 0xc8
 8000632:	4922      	ldr	r1, [pc, #136]	@ (80006bc <main+0x12c>)
 8000634:	4822      	ldr	r0, [pc, #136]	@ (80006c0 <main+0x130>)
 8000636:	f001 ff7a 	bl	800252e <xTaskCreate>
 800063a:	6178      	str	r0, [r7, #20]
    configASSERT(status == pdPASS);
 800063c:	697b      	ldr	r3, [r7, #20]
 800063e:	2b01      	cmp	r3, #1
 8000640:	d00b      	beq.n	800065a <main+0xca>
    __asm volatile
 8000642:	f04f 0350 	mov.w	r3, #80	@ 0x50
 8000646:	f383 8811 	msr	BASEPRI, r3
 800064a:	f3bf 8f6f 	isb	sy
 800064e:	f3bf 8f4f 	dsb	sy
 8000652:	60bb      	str	r3, [r7, #8]
}
 8000654:	bf00      	nop
 8000656:	bf00      	nop
 8000658:	e7fd      	b.n	8000656 <main+0xc6>
    status = xTaskCreate(button_press_handler,"Button_task", 200, NULL, 4, &task4_handle);
 800065a:	4b1a      	ldr	r3, [pc, #104]	@ (80006c4 <main+0x134>)
 800065c:	9301      	str	r3, [sp, #4]
 800065e:	2304      	movs	r3, #4
 8000660:	9300      	str	r3, [sp, #0]
 8000662:	2300      	movs	r3, #0
 8000664:	22c8      	movs	r2, #200	@ 0xc8
 8000666:	4918      	ldr	r1, [pc, #96]	@ (80006c8 <main+0x138>)
 8000668:	4818      	ldr	r0, [pc, #96]	@ (80006cc <main+0x13c>)
 800066a:	f001 ff60 	bl	800252e <xTaskCreate>
 800066e:	6178      	str	r0, [r7, #20]
    configASSERT(status == pdPASS);
 8000670:	697b      	ldr	r3, [r7, #20]
 8000672:	2b01      	cmp	r3, #1
 8000674:	d00b      	beq.n	800068e <main+0xfe>
    __asm volatile
 8000676:	f04f 0350 	mov.w	r3, #80	@ 0x50
 800067a:	f383 8811 	msr	BASEPRI, r3
 800067e:	f3bf 8f6f 	isb	sy
 8000682:	f3bf 8f4f 	dsb	sy
 8000686:	607b      	str	r3, [r7, #4]
}
 8000688:	bf00      	nop
 800068a:	bf00      	nop
 800068c:	e7fd      	b.n	800068a <main+0xfa>

  //start the scheduler
   vTaskStartScheduler(); // sxheduler return only in the case it has failed to launch , internally uses xtaskcreate()
 800068e:	f002 fa1b 	bl	8002ac8 <vTaskStartScheduler>

  /* USER CODE END 2 */

  /* Infinite loop */
  /* USER CODE BEGIN WHILE */
  while (1)
 8000692:	bf00      	nop
 8000694:	e7fd      	b.n	8000692 <main+0x102>
 8000696:	bf00      	nop
 8000698:	e0001000 	.word	0xe0001000
 800069c:	2000002c 	.word	0x2000002c
 80006a0:	0800619c 	.word	0x0800619c
 80006a4:	08000a61 	.word	0x08000a61
 80006a8:	2000003c 	.word	0x2000003c
 80006ac:	20000030 	.word	0x20000030
 80006b0:	080061ac 	.word	0x080061ac
 80006b4:	08000abd 	.word	0x08000abd
 80006b8:	20000034 	.word	0x20000034
 80006bc:	080061bc 	.word	0x080061bc
 80006c0:	08000b19 	.word	0x08000b19
 80006c4:	20000038 	.word	0x20000038
 80006c8:	080061cc 	.word	0x080061cc
 80006cc:	08000b71 	.word	0x08000b71

080006d0 <SystemClock_Config>:
  * @brief System Clock Configuration
  * @retval None
  */

void SystemClock_Config(void)
{
 80006d0:	b580      	push	{r7, lr}
 80006d2:	b094      	sub	sp, #80	@ 0x50
 80006d4:	af00      	add	r7, sp, #0
  RCC_OscInitTypeDef RCC_OscInitStruct = {0};
 80006d6:	f107 0320 	add.w	r3, r7, #32
 80006da:	2230      	movs	r2, #48	@ 0x30
 80006dc:	2100      	movs	r1, #0
 80006de:	4618      	mov	r0, r3
 80006e0:	f005 fd16 	bl	8006110 <memset>
  RCC_ClkInitTypeDef RCC_ClkInitStruct = {0};
 80006e4:	f107 030c 	add.w	r3, r7, #12
 80006e8:	2200      	movs	r2, #0
 80006ea:	601a      	str	r2, [r3, #0]
 80006ec:	605a      	str	r2, [r3, #4]
 80006ee:	609a      	str	r2, [r3, #8]
 80006f0:	60da      	str	r2, [r3, #12]
 80006f2:	611a      	str	r2, [r3, #16]

  /** Configure the main internal regulator output voltage
  */
  __HAL_RCC_PWR_CLK_ENABLE();
 80006f4:	2300      	movs	r3, #0
 80006f6:	60bb      	str	r3, [r7, #8]
 80006f8:	4b28      	ldr	r3, [pc, #160]	@ (800079c <SystemClock_Config+0xcc>)
 80006fa:	6c1b      	ldr	r3, [r3, #64]	@ 0x40
 80006fc:	4a27      	ldr	r2, [pc, #156]	@ (800079c <SystemClock_Config+0xcc>)
 80006fe:	f043 5380 	orr.w	r3, r3, #268435456	@ 0x10000000
 8000702:	6413      	str	r3, [r2, #64]	@ 0x40
 8000704:	4b25      	ldr	r3, [pc, #148]	@ (800079c <SystemClock_Config+0xcc>)
 8000706:	6c1b      	ldr	r3, [r3, #64]	@ 0x40
 8000708:	f003 5380 	and.w	r3, r3, #268435456	@ 0x10000000
 800070c:	60bb      	str	r3, [r7, #8]
 800070e:	68bb      	ldr	r3, [r7, #8]
  __HAL_PWR_VOLTAGESCALING_CONFIG(PWR_REGULATOR_VOLTAGE_SCALE1);
 8000710:	2300      	movs	r3, #0
 8000712:	607b      	str	r3, [r7, #4]
 8000714:	4b22      	ldr	r3, [pc, #136]	@ (80007a0 <SystemClock_Config+0xd0>)
 8000716:	681b      	ldr	r3, [r3, #0]
 8000718:	4a21      	ldr	r2, [pc, #132]	@ (80007a0 <SystemClock_Config+0xd0>)
 800071a:	f443 4380 	orr.w	r3, r3, #16384	@ 0x4000
 800071e:	6013      	str	r3, [r2, #0]
 8000720:	4b1f      	ldr	r3, [pc, #124]	@ (80007a0 <SystemClock_Config+0xd0>)
 8000722:	681b      	ldr	r3, [r3, #0]
 8000724:	f403 4380 	and.w	r3, r3, #16384	@ 0x4000
 8000728:	607b      	str	r3, [r7, #4]
 800072a:	687b      	ldr	r3, [r7, #4]

  /** Initializes the RCC Oscillators according to the specified parameters
  * in the RCC_OscInitTypeDef structure.
  */
  RCC_OscInitStruct.OscillatorType = RCC_OSCILLATORTYPE_HSI;
 800072c:	2302      	movs	r3, #2
 800072e:	623b      	str	r3, [r7, #32]
  RCC_OscInitStruct.HSIState = RCC_HSI_ON;
 8000730:	2301      	movs	r3, #1
 8000732:	62fb      	str	r3, [r7, #44]	@ 0x2c
  RCC_OscInitStruct.HSICalibrationValue = RCC_HSICALIBRATION_DEFAULT;
 8000734:	2310      	movs	r3, #16
 8000736:	633b      	str	r3, [r7, #48]	@ 0x30
  RCC_OscInitStruct.PLL.PLLState = RCC_PLL_ON;
 8000738:	2302      	movs	r3, #2
 800073a:	63bb      	str	r3, [r7, #56]	@ 0x38
  RCC_OscInitStruct.PLL.PLLSource = RCC_PLLSOURCE_HSI;
 800073c:	2300      	movs	r3, #0
 800073e:	63fb      	str	r3, [r7, #60]	@ 0x3c
  RCC_OscInitStruct.PLL.PLLM = 8;
 8000740:	2308      	movs	r3, #8
 8000742:	643b      	str	r3, [r7, #64]	@ 0x40
  RCC_OscInitStruct.PLL.PLLN = 50;
 8000744:	2332      	movs	r3, #50	@ 0x32
 8000746:	647b      	str	r3, [r7, #68]	@ 0x44
  RCC_OscInitStruct.PLL.PLLP = RCC_PLLP_DIV4;
 8000748:	2304      	movs	r3, #4
 800074a:	64bb      	str	r3, [r7, #72]	@ 0x48
  RCC_OscInitStruct.PLL.PLLQ = 7;
 800074c:	2307      	movs	r3, #7
 800074e:	64fb      	str	r3, [r7, #76]	@ 0x4c
  if (HAL_RCC_OscConfig(&RCC_OscInitStruct) != HAL_OK)
 8000750:	f107 0320 	add.w	r3, r7, #32
 8000754:	4618      	mov	r0, r3
 8000756:	f000 fe5d 	bl	8001414 <HAL_RCC_OscConfig>
 800075a:	4603      	mov	r3, r0
 800075c:	2b00      	cmp	r3, #0
 800075e:	d001      	beq.n	8000764 <SystemClock_Config+0x94>
  {
    Error_Handler();
 8000760:	f000 fa40 	bl	8000be4 <Error_Handler>
  }

  /** Initializes the CPU, AHB and APB buses clocks
  */
  RCC_ClkInitStruct.ClockType = RCC_CLOCKTYPE_HCLK|RCC_CLOCKTYPE_SYSCLK
 8000764:	230f      	movs	r3, #15
 8000766:	60fb      	str	r3, [r7, #12]
                              |RCC_CLOCKTYPE_PCLK1|RCC_CLOCKTYPE_PCLK2;
  RCC_ClkInitStruct.SYSCLKSource = RCC_SYSCLKSOURCE_PLLCLK;
 8000768:	2302      	movs	r3, #2
 800076a:	613b      	str	r3, [r7, #16]
  RCC_ClkInitStruct.AHBCLKDivider = RCC_SYSCLK_DIV1;
 800076c:	2300      	movs	r3, #0
 800076e:	617b      	str	r3, [r7, #20]
  RCC_ClkInitStruct.APB1CLKDivider = RCC_HCLK_DIV4;
 8000770:	f44f 53a0 	mov.w	r3, #5120	@ 0x1400
 8000774:	61bb      	str	r3, [r7, #24]
  RCC_ClkInitStruct.APB2CLKDivider = RCC_HCLK_DIV2;
 8000776:	f44f 5380 	mov.w	r3, #4096	@ 0x1000
 800077a:	61fb      	str	r3, [r7, #28]

  if (HAL_RCC_ClockConfig(&RCC_ClkInitStruct, FLASH_LATENCY_0) != HAL_OK)
 800077c:	f107 030c 	add.w	r3, r7, #12
 8000780:	2100      	movs	r1, #0
 8000782:	4618      	mov	r0, r3
 8000784:	f001 f8be 	bl	8001904 <HAL_RCC_ClockConfig>
 8000788:	4603      	mov	r3, r0
 800078a:	2b00      	cmp	r3, #0
 800078c:	d001      	beq.n	8000792 <SystemClock_Config+0xc2>
  {
    Error_Handler();
 800078e:	f000 fa29 	bl	8000be4 <Error_Handler>
  }
}
 8000792:	bf00      	nop
 8000794:	3750      	adds	r7, #80	@ 0x50
 8000796:	46bd      	mov	sp, r7
 8000798:	bd80      	pop	{r7, pc}
 800079a:	bf00      	nop
 800079c:	40023800 	.word	0x40023800
 80007a0:	40007000 	.word	0x40007000

080007a4 <MX_GPIO_Init>:
  * @brief GPIO Initialization Function
  * @param None
  * @retval None
  */
static void MX_GPIO_Init(void)
{
 80007a4:	b580      	push	{r7, lr}
 80007a6:	b08c      	sub	sp, #48	@ 0x30
 80007a8:	af00      	add	r7, sp, #0
  GPIO_InitTypeDef GPIO_InitStruct = {0};
 80007aa:	f107 031c 	add.w	r3, r7, #28
 80007ae:	2200      	movs	r2, #0
 80007b0:	601a      	str	r2, [r3, #0]
 80007b2:	605a      	str	r2, [r3, #4]
 80007b4:	609a      	str	r2, [r3, #8]
 80007b6:	60da      	str	r2, [r3, #12]
 80007b8:	611a      	str	r2, [r3, #16]
  /* USER CODE BEGIN MX_GPIO_Init_1 */

  /* USER CODE END MX_GPIO_Init_1 */

  /* GPIO Ports Clock Enable */
  __HAL_RCC_GPIOE_CLK_ENABLE();
 80007ba:	2300      	movs	r3, #0
 80007bc:	61bb      	str	r3, [r7, #24]
 80007be:	4ba2      	ldr	r3, [pc, #648]	@ (8000a48 <MX_GPIO_Init+0x2a4>)
 80007c0:	6b1b      	ldr	r3, [r3, #48]	@ 0x30
 80007c2:	4aa1      	ldr	r2, [pc, #644]	@ (8000a48 <MX_GPIO_Init+0x2a4>)
 80007c4:	f043 0310 	orr.w	r3, r3, #16
 80007c8:	6313      	str	r3, [r2, #48]	@ 0x30
 80007ca:	4b9f      	ldr	r3, [pc, #636]	@ (8000a48 <MX_GPIO_Init+0x2a4>)
 80007cc:	6b1b      	ldr	r3, [r3, #48]	@ 0x30
 80007ce:	f003 0310 	and.w	r3, r3, #16
 80007d2:	61bb      	str	r3, [r7, #24]
 80007d4:	69bb      	ldr	r3, [r7, #24]
  __HAL_RCC_GPIOC_CLK_ENABLE();
 80007d6:	2300      	movs	r3, #0
 80007d8:	617b      	str	r3, [r7, #20]
 80007da:	4b9b      	ldr	r3, [pc, #620]	@ (8000a48 <MX_GPIO_Init+0x2a4>)
 80007dc:	6b1b      	ldr	r3, [r3, #48]	@ 0x30
 80007de:	4a9a      	ldr	r2, [pc, #616]	@ (8000a48 <MX_GPIO_Init+0x2a4>)
 80007e0:	f043 0304 	orr.w	r3, r3, #4
 80007e4:	6313      	str	r3, [r2, #48]	@ 0x30
 80007e6:	4b98      	ldr	r3, [pc, #608]	@ (8000a48 <MX_GPIO_Init+0x2a4>)
 80007e8:	6b1b      	ldr	r3, [r3, #48]	@ 0x30
 80007ea:	f003 0304 	and.w	r3, r3, #4
 80007ee:	617b      	str	r3, [r7, #20]
 80007f0:	697b      	ldr	r3, [r7, #20]
  __HAL_RCC_GPIOH_CLK_ENABLE();
 80007f2:	2300      	movs	r3, #0
 80007f4:	613b      	str	r3, [r7, #16]
 80007f6:	4b94      	ldr	r3, [pc, #592]	@ (8000a48 <MX_GPIO_Init+0x2a4>)
 80007f8:	6b1b      	ldr	r3, [r3, #48]	@ 0x30
 80007fa:	4a93      	ldr	r2, [pc, #588]	@ (8000a48 <MX_GPIO_Init+0x2a4>)
 80007fc:	f043 0380 	orr.w	r3, r3, #128	@ 0x80
 8000800:	6313      	str	r3, [r2, #48]	@ 0x30
 8000802:	4b91      	ldr	r3, [pc, #580]	@ (8000a48 <MX_GPIO_Init+0x2a4>)
 8000804:	6b1b      	ldr	r3, [r3, #48]	@ 0x30
 8000806:	f003 0380 	and.w	r3, r3, #128	@ 0x80
 800080a:	613b      	str	r3, [r7, #16]
 800080c:	693b      	ldr	r3, [r7, #16]
  __HAL_RCC_GPIOA_CLK_ENABLE();
 800080e:	2300      	movs	r3, #0
 8000810:	60fb      	str	r3, [r7, #12]
 8000812:	4b8d      	ldr	r3, [pc, #564]	@ (8000a48 <MX_GPIO_Init+0x2a4>)
 8000814:	6b1b      	ldr	r3, [r3, #48]	@ 0x30
 8000816:	4a8c      	ldr	r2, [pc, #560]	@ (8000a48 <MX_GPIO_Init+0x2a4>)
 8000818:	f043 0301 	orr.w	r3, r3, #1
 800081c:	6313      	str	r3, [r2, #48]	@ 0x30
 800081e:	4b8a      	ldr	r3, [pc, #552]	@ (8000a48 <MX_GPIO_Init+0x2a4>)
 8000820:	6b1b      	ldr	r3, [r3, #48]	@ 0x30
 8000822:	f003 0301 	and.w	r3, r3, #1
 8000826:	60fb      	str	r3, [r7, #12]
 8000828:	68fb      	ldr	r3, [r7, #12]
  __HAL_RCC_GPIOB_CLK_ENABLE();
 800082a:	2300      	movs	r3, #0
 800082c:	60bb      	str	r3, [r7, #8]
 800082e:	4b86      	ldr	r3, [pc, #536]	@ (8000a48 <MX_GPIO_Init+0x2a4>)
 8000830:	6b1b      	ldr	r3, [r3, #48]	@ 0x30
 8000832:	4a85      	ldr	r2, [pc, #532]	@ (8000a48 <MX_GPIO_Init+0x2a4>)
 8000834:	f043 0302 	orr.w	r3, r3, #2
 8000838:	6313      	str	r3, [r2, #48]	@ 0x30
 800083a:	4b83      	ldr	r3, [pc, #524]	@ (8000a48 <MX_GPIO_Init+0x2a4>)
 800083c:	6b1b      	ldr	r3, [r3, #48]	@ 0x30
 800083e:	f003 0302 	and.w	r3, r3, #2
 8000842:	60bb      	str	r3, [r7, #8]
 8000844:	68bb      	ldr	r3, [r7, #8]
  __HAL_RCC_GPIOD_CLK_ENABLE();
 8000846:	2300      	movs	r3, #0
 8000848:	607b      	str	r3, [r7, #4]
 800084a:	4b7f      	ldr	r3, [pc, #508]	@ (8000a48 <MX_GPIO_Init+0x2a4>)
 800084c:	6b1b      	ldr	r3, [r3, #48]	@ 0x30
 800084e:	4a7e      	ldr	r2, [pc, #504]	@ (8000a48 <MX_GPIO_Init+0x2a4>)
 8000850:	f043 0308 	orr.w	r3, r3, #8
 8000854:	6313      	str	r3, [r2, #48]	@ 0x30
 8000856:	4b7c      	ldr	r3, [pc, #496]	@ (8000a48 <MX_GPIO_Init+0x2a4>)
 8000858:	6b1b      	ldr	r3, [r3, #48]	@ 0x30
 800085a:	f003 0308 	and.w	r3, r3, #8
 800085e:	607b      	str	r3, [r7, #4]
 8000860:	687b      	ldr	r3, [r7, #4]

  /*Configure GPIO pin Output Level */
  HAL_GPIO_WritePin(CS_I2C_SPI_GPIO_Port, CS_I2C_SPI_Pin, GPIO_PIN_RESET);
 8000862:	2200      	movs	r2, #0
 8000864:	2108      	movs	r1, #8
 8000866:	4879      	ldr	r0, [pc, #484]	@ (8000a4c <MX_GPIO_Init+0x2a8>)
 8000868:	f000 fda0 	bl	80013ac <HAL_GPIO_WritePin>

  /*Configure GPIO pin Output Level */
  HAL_GPIO_WritePin(OTG_FS_PowerSwitchOn_GPIO_Port, OTG_FS_PowerSwitchOn_Pin, GPIO_PIN_SET);
 800086c:	2201      	movs	r2, #1
 800086e:	2101      	movs	r1, #1
 8000870:	4877      	ldr	r0, [pc, #476]	@ (8000a50 <MX_GPIO_Init+0x2ac>)
 8000872:	f000 fd9b 	bl	80013ac <HAL_GPIO_WritePin>

  /*Configure GPIO pin Output Level */
  HAL_GPIO_WritePin(GPIOD, LD4_Pin|LD3_Pin|LD5_Pin|LD6_Pin
 8000876:	2200      	movs	r2, #0
 8000878:	f24f 0110 	movw	r1, #61456	@ 0xf010
 800087c:	4875      	ldr	r0, [pc, #468]	@ (8000a54 <MX_GPIO_Init+0x2b0>)
 800087e:	f000 fd95 	bl	80013ac <HAL_GPIO_WritePin>
                          |Audio_RST_Pin, GPIO_PIN_RESET);

  /*Configure GPIO pin : CS_I2C_SPI_Pin */
  GPIO_InitStruct.Pin = CS_I2C_SPI_Pin;
 8000882:	2308      	movs	r3, #8
 8000884:	61fb      	str	r3, [r7, #28]
  GPIO_InitStruct.Mode = GPIO_MODE_OUTPUT_PP;
 8000886:	2301      	movs	r3, #1
 8000888:	623b      	str	r3, [r7, #32]
  GPIO_InitStruct.Pull = GPIO_NOPULL;
 800088a:	2300      	movs	r3, #0
 800088c:	627b      	str	r3, [r7, #36]	@ 0x24
  GPIO_InitStruct.Speed = GPIO_SPEED_FREQ_LOW;
 800088e:	2300      	movs	r3, #0
 8000890:	62bb      	str	r3, [r7, #40]	@ 0x28
  HAL_GPIO_Init(CS_I2C_SPI_GPIO_Port, &GPIO_InitStruct);
 8000892:	f107 031c 	add.w	r3, r7, #28
 8000896:	4619      	mov	r1, r3
 8000898:	486c      	ldr	r0, [pc, #432]	@ (8000a4c <MX_GPIO_Init+0x2a8>)
 800089a:	f000 fbd3 	bl	8001044 <HAL_GPIO_Init>

  /*Configure GPIO pin : OTG_FS_PowerSwitchOn_Pin */
  GPIO_InitStruct.Pin = OTG_FS_PowerSwitchOn_Pin;
 800089e:	2301      	movs	r3, #1
 80008a0:	61fb      	str	r3, [r7, #28]
  GPIO_InitStruct.Mode = GPIO_MODE_OUTPUT_PP;
 80008a2:	2301      	movs	r3, #1
 80008a4:	623b      	str	r3, [r7, #32]
  GPIO_InitStruct.Pull = GPIO_NOPULL;
 80008a6:	2300      	movs	r3, #0
 80008a8:	627b      	str	r3, [r7, #36]	@ 0x24
  GPIO_InitStruct.Speed = GPIO_SPEED_FREQ_LOW;
 80008aa:	2300      	movs	r3, #0
 80008ac:	62bb      	str	r3, [r7, #40]	@ 0x28
  HAL_GPIO_Init(OTG_FS_PowerSwitchOn_GPIO_Port, &GPIO_InitStruct);
 80008ae:	f107 031c 	add.w	r3, r7, #28
 80008b2:	4619      	mov	r1, r3
 80008b4:	4866      	ldr	r0, [pc, #408]	@ (8000a50 <MX_GPIO_Init+0x2ac>)
 80008b6:	f000 fbc5 	bl	8001044 <HAL_GPIO_Init>

  /*Configure GPIO pin : PDM_OUT_Pin */
  GPIO_InitStruct.Pin = PDM_OUT_Pin;
 80008ba:	2308      	movs	r3, #8
 80008bc:	61fb      	str	r3, [r7, #28]
  GPIO_InitStruct.Mode = GPIO_MODE_AF_PP;
 80008be:	2302      	movs	r3, #2
 80008c0:	623b      	str	r3, [r7, #32]
  GPIO_InitStruct.Pull = GPIO_NOPULL;
 80008c2:	2300      	movs	r3, #0
 80008c4:	627b      	str	r3, [r7, #36]	@ 0x24
  GPIO_InitStruct.Speed = GPIO_SPEED_FREQ_LOW;
 80008c6:	2300      	movs	r3, #0
 80008c8:	62bb      	str	r3, [r7, #40]	@ 0x28
  GPIO_InitStruct.Alternate = GPIO_AF5_SPI2;
 80008ca:	2305      	movs	r3, #5
 80008cc:	62fb      	str	r3, [r7, #44]	@ 0x2c
  HAL_GPIO_Init(PDM_OUT_GPIO_Port, &GPIO_InitStruct);
 80008ce:	f107 031c 	add.w	r3, r7, #28
 80008d2:	4619      	mov	r1, r3
 80008d4:	485e      	ldr	r0, [pc, #376]	@ (8000a50 <MX_GPIO_Init+0x2ac>)
 80008d6:	f000 fbb5 	bl	8001044 <HAL_GPIO_Init>

  /*Configure GPIO pin : B1_Pin */
  GPIO_InitStruct.Pin = B1_Pin;
 80008da:	2301      	movs	r3, #1
 80008dc:	61fb      	str	r3, [r7, #28]
  GPIO_InitStruct.Mode = GPIO_MODE_IT_RISING;
 80008de:	f44f 1388 	mov.w	r3, #1114112	@ 0x110000
 80008e2:	623b      	str	r3, [r7, #32]
  GPIO_InitStruct.Pull = GPIO_NOPULL;
 80008e4:	2300      	movs	r3, #0
 80008e6:	627b      	str	r3, [r7, #36]	@ 0x24
  HAL_GPIO_Init(B1_GPIO_Port, &GPIO_InitStruct);
 80008e8:	f107 031c 	add.w	r3, r7, #28
 80008ec:	4619      	mov	r1, r3
 80008ee:	485a      	ldr	r0, [pc, #360]	@ (8000a58 <MX_GPIO_Init+0x2b4>)
 80008f0:	f000 fba8 	bl	8001044 <HAL_GPIO_Init>

  /*Configure GPIO pin : I2S3_WS_Pin */
  GPIO_InitStruct.Pin = I2S3_WS_Pin;
 80008f4:	2310      	movs	r3, #16
 80008f6:	61fb      	str	r3, [r7, #28]
  GPIO_InitStruct.Mode = GPIO_MODE_AF_PP;
 80008f8:	2302      	movs	r3, #2
 80008fa:	623b      	str	r3, [r7, #32]
  GPIO_InitStruct.Pull = GPIO_NOPULL;
 80008fc:	2300      	movs	r3, #0
 80008fe:	627b      	str	r3, [r7, #36]	@ 0x24
  GPIO_InitStruct.Speed = GPIO_SPEED_FREQ_LOW;
 8000900:	2300      	movs	r3, #0
 8000902:	62bb      	str	r3, [r7, #40]	@ 0x28
  GPIO_InitStruct.Alternate = GPIO_AF6_SPI3;
 8000904:	2306      	movs	r3, #6
 8000906:	62fb      	str	r3, [r7, #44]	@ 0x2c
  HAL_GPIO_Init(I2S3_WS_GPIO_Port, &GPIO_InitStruct);
 8000908:	f107 031c 	add.w	r3, r7, #28
 800090c:	4619      	mov	r1, r3
 800090e:	4852      	ldr	r0, [pc, #328]	@ (8000a58 <MX_GPIO_Init+0x2b4>)
 8000910:	f000 fb98 	bl	8001044 <HAL_GPIO_Init>

  /*Configure GPIO pins : SPI1_SCK_Pin SPI1_MISO_Pin SPI1_MOSI_Pin */
  GPIO_InitStruct.Pin = SPI1_SCK_Pin|SPI1_MISO_Pin|SPI1_MOSI_Pin;
 8000914:	23e0      	movs	r3, #224	@ 0xe0
 8000916:	61fb      	str	r3, [r7, #28]
  GPIO_InitStruct.Mode = GPIO_MODE_AF_PP;
 8000918:	2302      	movs	r3, #2
 800091a:	623b      	str	r3, [r7, #32]
  GPIO_InitStruct.Pull = GPIO_NOPULL;
 800091c:	2300      	movs	r3, #0
 800091e:	627b      	str	r3, [r7, #36]	@ 0x24
  GPIO_InitStruct.Speed = GPIO_SPEED_FREQ_LOW;
 8000920:	2300      	movs	r3, #0
 8000922:	62bb      	str	r3, [r7, #40]	@ 0x28
  GPIO_InitStruct.Alternate = GPIO_AF5_SPI1;
 8000924:	2305      	movs	r3, #5
 8000926:	62fb      	str	r3, [r7, #44]	@ 0x2c
  HAL_GPIO_Init(GPIOA, &GPIO_InitStruct);
 8000928:	f107 031c 	add.w	r3, r7, #28
 800092c:	4619      	mov	r1, r3
 800092e:	484a      	ldr	r0, [pc, #296]	@ (8000a58 <MX_GPIO_Init+0x2b4>)
 8000930:	f000 fb88 	bl	8001044 <HAL_GPIO_Init>

  /*Configure GPIO pin : BOOT1_Pin */
  GPIO_InitStruct.Pin = BOOT1_Pin;
 8000934:	2304      	movs	r3, #4
 8000936:	61fb      	str	r3, [r7, #28]
  GPIO_InitStruct.Mode = GPIO_MODE_INPUT;
 8000938:	2300      	movs	r3, #0
 800093a:	623b      	str	r3, [r7, #32]
  GPIO_InitStruct.Pull = GPIO_NOPULL;
 800093c:	2300      	movs	r3, #0
 800093e:	627b      	str	r3, [r7, #36]	@ 0x24
  HAL_GPIO_Init(BOOT1_GPIO_Port, &GPIO_InitStruct);
 8000940:	f107 031c 	add.w	r3, r7, #28
 8000944:	4619      	mov	r1, r3
 8000946:	4845      	ldr	r0, [pc, #276]	@ (8000a5c <MX_GPIO_Init+0x2b8>)
 8000948:	f000 fb7c 	bl	8001044 <HAL_GPIO_Init>

  /*Configure GPIO pin : CLK_IN_Pin */
  GPIO_InitStruct.Pin = CLK_IN_Pin;
 800094c:	f44f 6380 	mov.w	r3, #1024	@ 0x400
 8000950:	61fb      	str	r3, [r7, #28]
  GPIO_InitStruct.Mode = GPIO_MODE_AF_PP;
 8000952:	2302      	movs	r3, #2
 8000954:	623b      	str	r3, [r7, #32]
  GPIO_InitStruct.Pull = GPIO_NOPULL;
 8000956:	2300      	movs	r3, #0
 8000958:	627b      	str	r3, [r7, #36]	@ 0x24
  GPIO_InitStruct.Speed = GPIO_SPEED_FREQ_LOW;
 800095a:	2300      	movs	r3, #0
 800095c:	62bb      	str	r3, [r7, #40]	@ 0x28
  GPIO_InitStruct.Alternate = GPIO_AF5_SPI2;
 800095e:	2305      	movs	r3, #5
 8000960:	62fb      	str	r3, [r7, #44]	@ 0x2c
  HAL_GPIO_Init(CLK_IN_GPIO_Port, &GPIO_InitStruct);
 8000962:	f107 031c 	add.w	r3, r7, #28
 8000966:	4619      	mov	r1, r3
 8000968:	483c      	ldr	r0, [pc, #240]	@ (8000a5c <MX_GPIO_Init+0x2b8>)
 800096a:	f000 fb6b 	bl	8001044 <HAL_GPIO_Init>

  /*Configure GPIO pins : LD4_Pin LD3_Pin LD5_Pin LD6_Pin
                           Audio_RST_Pin */
  GPIO_InitStruct.Pin = LD4_Pin|LD3_Pin|LD5_Pin|LD6_Pin
 800096e:	f24f 0310 	movw	r3, #61456	@ 0xf010
 8000972:	61fb      	str	r3, [r7, #28]
                          |Audio_RST_Pin;
  GPIO_InitStruct.Mode = GPIO_MODE_OUTPUT_PP;
 8000974:	2301      	movs	r3, #1
 8000976:	623b      	str	r3, [r7, #32]
  GPIO_InitStruct.Pull = GPIO_NOPULL;
 8000978:	2300      	movs	r3, #0
 800097a:	627b      	str	r3, [r7, #36]	@ 0x24
  GPIO_InitStruct.Speed = GPIO_SPEED_FREQ_LOW;
 800097c:	2300      	movs	r3, #0
 800097e:	62bb      	str	r3, [r7, #40]	@ 0x28
  HAL_GPIO_Init(GPIOD, &GPIO_InitStruct);
 8000980:	f107 031c 	add.w	r3, r7, #28
 8000984:	4619      	mov	r1, r3
 8000986:	4833      	ldr	r0, [pc, #204]	@ (8000a54 <MX_GPIO_Init+0x2b0>)
 8000988:	f000 fb5c 	bl	8001044 <HAL_GPIO_Init>

  /*Configure GPIO pins : I2S3_MCK_Pin I2S3_SCK_Pin I2S3_SD_Pin */
  GPIO_InitStruct.Pin = I2S3_MCK_Pin|I2S3_SCK_Pin|I2S3_SD_Pin;
 800098c:	f44f 53a4 	mov.w	r3, #5248	@ 0x1480
 8000990:	61fb      	str	r3, [r7, #28]
  GPIO_InitStruct.Mode = GPIO_MODE_AF_PP;
 8000992:	2302      	movs	r3, #2
 8000994:	623b      	str	r3, [r7, #32]
  GPIO_InitStruct.Pull = GPIO_NOPULL;
 8000996:	2300      	movs	r3, #0
 8000998:	627b      	str	r3, [r7, #36]	@ 0x24
  GPIO_InitStruct.Speed = GPIO_SPEED_FREQ_LOW;
 800099a:	2300      	movs	r3, #0
 800099c:	62bb      	str	r3, [r7, #40]	@ 0x28
  GPIO_InitStruct.Alternate = GPIO_AF6_SPI3;
 800099e:	2306      	movs	r3, #6
 80009a0:	62fb      	str	r3, [r7, #44]	@ 0x2c
  HAL_GPIO_Init(GPIOC, &GPIO_InitStruct);
 80009a2:	f107 031c 	add.w	r3, r7, #28
 80009a6:	4619      	mov	r1, r3
 80009a8:	4829      	ldr	r0, [pc, #164]	@ (8000a50 <MX_GPIO_Init+0x2ac>)
 80009aa:	f000 fb4b 	bl	8001044 <HAL_GPIO_Init>

  /*Configure GPIO pin : VBUS_FS_Pin */
  GPIO_InitStruct.Pin = VBUS_FS_Pin;
 80009ae:	f44f 7300 	mov.w	r3, #512	@ 0x200
 80009b2:	61fb      	str	r3, [r7, #28]
  GPIO_InitStruct.Mode = GPIO_MODE_INPUT;
 80009b4:	2300      	movs	r3, #0
 80009b6:	623b      	str	r3, [r7, #32]
  GPIO_InitStruct.Pull = GPIO_NOPULL;
 80009b8:	2300      	movs	r3, #0
 80009ba:	627b      	str	r3, [r7, #36]	@ 0x24
  HAL_GPIO_Init(VBUS_FS_GPIO_Port, &GPIO_InitStruct);
 80009bc:	f107 031c 	add.w	r3, r7, #28
 80009c0:	4619      	mov	r1, r3
 80009c2:	4825      	ldr	r0, [pc, #148]	@ (8000a58 <MX_GPIO_Init+0x2b4>)
 80009c4:	f000 fb3e 	bl	8001044 <HAL_GPIO_Init>

  /*Configure GPIO pins : OTG_FS_ID_Pin OTG_FS_DM_Pin OTG_FS_DP_Pin */
  GPIO_InitStruct.Pin = OTG_FS_ID_Pin|OTG_FS_DM_Pin|OTG_FS_DP_Pin;
 80009c8:	f44f 53e0 	mov.w	r3, #7168	@ 0x1c00
 80009cc:	61fb      	str	r3, [r7, #28]
  GPIO_InitStruct.Mode = GPIO_MODE_AF_PP;
 80009ce:	2302      	movs	r3, #2
 80009d0:	623b      	str	r3, [r7, #32]
  GPIO_InitStruct.Pull = GPIO_NOPULL;
 80009d2:	2300      	movs	r3, #0
 80009d4:	627b      	str	r3, [r7, #36]	@ 0x24
  GPIO_InitStruct.Speed = GPIO_SPEED_FREQ_LOW;
 80009d6:	2300      	movs	r3, #0
 80009d8:	62bb      	str	r3, [r7, #40]	@ 0x28
  GPIO_InitStruct.Alternate = GPIO_AF10_OTG_FS;
 80009da:	230a      	movs	r3, #10
 80009dc:	62fb      	str	r3, [r7, #44]	@ 0x2c
  HAL_GPIO_Init(GPIOA, &GPIO_InitStruct);
 80009de:	f107 031c 	add.w	r3, r7, #28
 80009e2:	4619      	mov	r1, r3
 80009e4:	481c      	ldr	r0, [pc, #112]	@ (8000a58 <MX_GPIO_Init+0x2b4>)
 80009e6:	f000 fb2d 	bl	8001044 <HAL_GPIO_Init>

  /*Configure GPIO pin : OTG_FS_OverCurrent_Pin */
  GPIO_InitStruct.Pin = OTG_FS_OverCurrent_Pin;
 80009ea:	2320      	movs	r3, #32
 80009ec:	61fb      	str	r3, [r7, #28]
  GPIO_InitStruct.Mode = GPIO_MODE_INPUT;
 80009ee:	2300      	movs	r3, #0
 80009f0:	623b      	str	r3, [r7, #32]
  GPIO_InitStruct.Pull = GPIO_NOPULL;
 80009f2:	2300      	movs	r3, #0
 80009f4:	627b      	str	r3, [r7, #36]	@ 0x24
  HAL_GPIO_Init(OTG_FS_OverCurrent_GPIO_Port, &GPIO_InitStruct);
 80009f6:	f107 031c 	add.w	r3, r7, #28
 80009fa:	4619      	mov	r1, r3
 80009fc:	4815      	ldr	r0, [pc, #84]	@ (8000a54 <MX_GPIO_Init+0x2b0>)
 80009fe:	f000 fb21 	bl	8001044 <HAL_GPIO_Init>

  /*Configure GPIO pins : Audio_SCL_Pin Audio_SDA_Pin */
  GPIO_InitStruct.Pin = Audio_SCL_Pin|Audio_SDA_Pin;
 8000a02:	f44f 7310 	mov.w	r3, #576	@ 0x240
 8000a06:	61fb      	str	r3, [r7, #28]
  GPIO_InitStruct.Mode = GPIO_MODE_AF_OD;
 8000a08:	2312      	movs	r3, #18
 8000a0a:	623b      	str	r3, [r7, #32]
  GPIO_InitStruct.Pull = GPIO_NOPULL;
 8000a0c:	2300      	movs	r3, #0
 8000a0e:	627b      	str	r3, [r7, #36]	@ 0x24
  GPIO_InitStruct.Speed = GPIO_SPEED_FREQ_LOW;
 8000a10:	2300      	movs	r3, #0
 8000a12:	62bb      	str	r3, [r7, #40]	@ 0x28
  GPIO_InitStruct.Alternate = GPIO_AF4_I2C1;
 8000a14:	2304      	movs	r3, #4
 8000a16:	62fb      	str	r3, [r7, #44]	@ 0x2c
  HAL_GPIO_Init(GPIOB, &GPIO_InitStruct);
 8000a18:	f107 031c 	add.w	r3, r7, #28
 8000a1c:	4619      	mov	r1, r3
 8000a1e:	480f      	ldr	r0, [pc, #60]	@ (8000a5c <MX_GPIO_Init+0x2b8>)
 8000a20:	f000 fb10 	bl	8001044 <HAL_GPIO_Init>

  /*Configure GPIO pin : MEMS_INT2_Pin */
  GPIO_InitStruct.Pin = MEMS_INT2_Pin;
 8000a24:	2302      	movs	r3, #2
 8000a26:	61fb      	str	r3, [r7, #28]
  GPIO_InitStruct.Mode = GPIO_MODE_EVT_RISING;
 8000a28:	f44f 1390 	mov.w	r3, #1179648	@ 0x120000
 8000a2c:	623b      	str	r3, [r7, #32]
  GPIO_InitStruct.Pull = GPIO_NOPULL;
 8000a2e:	2300      	movs	r3, #0
 8000a30:	627b      	str	r3, [r7, #36]	@ 0x24
  HAL_GPIO_Init(MEMS_INT2_GPIO_Port, &GPIO_InitStruct);
 8000a32:	f107 031c 	add.w	r3, r7, #28
 8000a36:	4619      	mov	r1, r3
 8000a38:	4804      	ldr	r0, [pc, #16]	@ (8000a4c <MX_GPIO_Init+0x2a8>)
 8000a3a:	f000 fb03 	bl	8001044 <HAL_GPIO_Init>

  /* USER CODE BEGIN MX_GPIO_Init_2 */

  /* USER CODE END MX_GPIO_Init_2 */
}
 8000a3e:	bf00      	nop
 8000a40:	3730      	adds	r7, #48	@ 0x30
 8000a42:	46bd      	mov	sp, r7
 8000a44:	bd80      	pop	{r7, pc}
 8000a46:	bf00      	nop
 8000a48:	40023800 	.word	0x40023800
 8000a4c:	40021000 	.word	0x40021000
 8000a50:	40020800 	.word	0x40020800
 8000a54:	40020c00 	.word	0x40020c00
 8000a58:	40020000 	.word	0x40020000
 8000a5c:	40020400 	.word	0x40020400

08000a60 <led_green_handler>:

/* USER CODE BEGIN 4 */
static void led_green_handler(void* parameters)
{
 8000a60:	b580      	push	{r7, lr}
 8000a62:	b086      	sub	sp, #24
 8000a64:	af02      	add	r7, sp, #8
 8000a66:	6078      	str	r0, [r7, #4]
	BaseType_t status;
	while(1)
	{
		HAL_GPIO_TogglePin(GPIOD,LED_GREEN_PIN);
 8000a68:	f44f 5180 	mov.w	r1, #4096	@ 0x1000
 8000a6c:	4810      	ldr	r0, [pc, #64]	@ (8000ab0 <led_green_handler+0x50>)
 8000a6e:	f000 fcb6 	bl	80013de <HAL_GPIO_TogglePin>
		//after this we have to wait for 1000ms
		status = xTaskNotifyWait(0,0,NULL,pdMS_TO_TICKS(1000));
 8000a72:	f44f 737a 	mov.w	r3, #1000	@ 0x3e8
 8000a76:	9300      	str	r3, [sp, #0]
 8000a78:	2300      	movs	r3, #0
 8000a7a:	2200      	movs	r2, #0
 8000a7c:	2100      	movs	r1, #0
 8000a7e:	2000      	movs	r0, #0
 8000a80:	f002 fbf6 	bl	8003270 <xTaskGenericNotifyWait>
 8000a84:	60f8      	str	r0, [r7, #12]
		if(status == pdTRUE)
 8000a86:	68fb      	ldr	r3, [r7, #12]
 8000a88:	2b01      	cmp	r3, #1
 8000a8a:	d1ed      	bne.n	8000a68 <led_green_handler+0x8>
		{
			vTaskSuspendAll();
 8000a8c:	f002 f872 	bl	8002b74 <vTaskSuspendAll>
			//action taken to resolve global taskHandle , variables update
			next_task_handle=task2_handle;
 8000a90:	4b08      	ldr	r3, [pc, #32]	@ (8000ab4 <led_green_handler+0x54>)
 8000a92:	681b      	ldr	r3, [r3, #0]
 8000a94:	4a08      	ldr	r2, [pc, #32]	@ (8000ab8 <led_green_handler+0x58>)
 8000a96:	6013      	str	r3, [r2, #0]
			xTaskResumeAll();
 8000a98:	f002 f87e 	bl	8002b98 <xTaskResumeAll>
			HAL_GPIO_WritePin(GPIOD, LED_GREEN_PIN, GPIO_PIN_SET);
 8000a9c:	2201      	movs	r2, #1
 8000a9e:	f44f 5180 	mov.w	r1, #4096	@ 0x1000
 8000aa2:	4803      	ldr	r0, [pc, #12]	@ (8000ab0 <led_green_handler+0x50>)
 8000aa4:	f000 fc82 	bl	80013ac <HAL_GPIO_WritePin>
			vTaskDelete(NULL); // since self delete its NULL
 8000aa8:	2000      	movs	r0, #0
 8000aaa:	f001 fecb 	bl	8002844 <vTaskDelete>
		HAL_GPIO_TogglePin(GPIOD,LED_GREEN_PIN);
 8000aae:	e7db      	b.n	8000a68 <led_green_handler+0x8>
 8000ab0:	40020c00 	.word	0x40020c00
 8000ab4:	20000030 	.word	0x20000030
 8000ab8:	2000003c 	.word	0x2000003c

08000abc <led_red_handler>:
		}
	}
}

static void led_red_handler(void* parameters)
{
 8000abc:	b580      	push	{r7, lr}
 8000abe:	b086      	sub	sp, #24
 8000ac0:	af02      	add	r7, sp, #8
 8000ac2:	6078      	str	r0, [r7, #4]
	BaseType_t status;
	while(1)
	{

		HAL_GPIO_TogglePin(GPIOD, LED_RED_PIN);
 8000ac4:	f44f 4180 	mov.w	r1, #16384	@ 0x4000
 8000ac8:	4810      	ldr	r0, [pc, #64]	@ (8000b0c <led_red_handler+0x50>)
 8000aca:	f000 fc88 	bl	80013de <HAL_GPIO_TogglePin>
		status = xTaskNotifyWait(0, 0, NULL, pdMS_TO_TICKS(800));
 8000ace:	f44f 7348 	mov.w	r3, #800	@ 0x320
 8000ad2:	9300      	str	r3, [sp, #0]
 8000ad4:	2300      	movs	r3, #0
 8000ad6:	2200      	movs	r2, #0
 8000ad8:	2100      	movs	r1, #0
 8000ada:	2000      	movs	r0, #0
 8000adc:	f002 fbc8 	bl	8003270 <xTaskGenericNotifyWait>
 8000ae0:	60f8      	str	r0, [r7, #12]
		if (status == pdTRUE) {
 8000ae2:	68fb      	ldr	r3, [r7, #12]
 8000ae4:	2b01      	cmp	r3, #1
 8000ae6:	d1ed      	bne.n	8000ac4 <led_red_handler+0x8>
			vTaskSuspendAll();
 8000ae8:	f002 f844 	bl	8002b74 <vTaskSuspendAll>
			next_task_handle = task3_handle;
 8000aec:	4b08      	ldr	r3, [pc, #32]	@ (8000b10 <led_red_handler+0x54>)
 8000aee:	681b      	ldr	r3, [r3, #0]
 8000af0:	4a08      	ldr	r2, [pc, #32]	@ (8000b14 <led_red_handler+0x58>)
 8000af2:	6013      	str	r3, [r2, #0]
			xTaskResumeAll();
 8000af4:	f002 f850 	bl	8002b98 <xTaskResumeAll>
			HAL_GPIO_WritePin(GPIOD, LED_RED_PIN, GPIO_PIN_SET);
 8000af8:	2201      	movs	r2, #1
 8000afa:	f44f 4180 	mov.w	r1, #16384	@ 0x4000
 8000afe:	4803      	ldr	r0, [pc, #12]	@ (8000b0c <led_red_handler+0x50>)
 8000b00:	f000 fc54 	bl	80013ac <HAL_GPIO_WritePin>
			vTaskDelete(NULL); // since self delete its NULL
 8000b04:	2000      	movs	r0, #0
 8000b06:	f001 fe9d 	bl	8002844 <vTaskDelete>
		HAL_GPIO_TogglePin(GPIOD, LED_RED_PIN);
 8000b0a:	e7db      	b.n	8000ac4 <led_red_handler+0x8>
 8000b0c:	40020c00 	.word	0x40020c00
 8000b10:	20000034 	.word	0x20000034
 8000b14:	2000003c 	.word	0x2000003c

08000b18 <led_orange_handler>:
		}
	}
}

static void led_orange_handler(void* parameters)
{
 8000b18:	b580      	push	{r7, lr}
 8000b1a:	b086      	sub	sp, #24
 8000b1c:	af02      	add	r7, sp, #8
 8000b1e:	6078      	str	r0, [r7, #4]
	BaseType_t status;
	while(1)
	{

		HAL_GPIO_TogglePin(GPIOD, LED_ORANGE_PIN);
 8000b20:	f44f 5100 	mov.w	r1, #8192	@ 0x2000
 8000b24:	4810      	ldr	r0, [pc, #64]	@ (8000b68 <led_orange_handler+0x50>)
 8000b26:	f000 fc5a 	bl	80013de <HAL_GPIO_TogglePin>
		status = xTaskNotifyWait(0, 0, NULL, pdMS_TO_TICKS(400));
 8000b2a:	f44f 73c8 	mov.w	r3, #400	@ 0x190
 8000b2e:	9300      	str	r3, [sp, #0]
 8000b30:	2300      	movs	r3, #0
 8000b32:	2200      	movs	r2, #0
 8000b34:	2100      	movs	r1, #0
 8000b36:	2000      	movs	r0, #0
 8000b38:	f002 fb9a 	bl	8003270 <xTaskGenericNotifyWait>
 8000b3c:	60f8      	str	r0, [r7, #12]
		if (status == pdTRUE) {
 8000b3e:	68fb      	ldr	r3, [r7, #12]
 8000b40:	2b01      	cmp	r3, #1
 8000b42:	d1ed      	bne.n	8000b20 <led_orange_handler+0x8>
			vTaskSuspendAll();
 8000b44:	f002 f816 	bl	8002b74 <vTaskSuspendAll>
			next_task_handle = NULL;
 8000b48:	4b08      	ldr	r3, [pc, #32]	@ (8000b6c <led_orange_handler+0x54>)
 8000b4a:	2200      	movs	r2, #0
 8000b4c:	601a      	str	r2, [r3, #0]
			xTaskResumeAll();
 8000b4e:	f002 f823 	bl	8002b98 <xTaskResumeAll>
			HAL_GPIO_WritePin(GPIOD, LED_ORANGE_PIN, GPIO_PIN_SET);
 8000b52:	2201      	movs	r2, #1
 8000b54:	f44f 5100 	mov.w	r1, #8192	@ 0x2000
 8000b58:	4803      	ldr	r0, [pc, #12]	@ (8000b68 <led_orange_handler+0x50>)
 8000b5a:	f000 fc27 	bl	80013ac <HAL_GPIO_WritePin>
			vTaskDelete(NULL); // since self delete its NULL
 8000b5e:	2000      	movs	r0, #0
 8000b60:	f001 fe70 	bl	8002844 <vTaskDelete>
		HAL_GPIO_TogglePin(GPIOD, LED_ORANGE_PIN);
 8000b64:	e7dc      	b.n	8000b20 <led_orange_handler+0x8>
 8000b66:	bf00      	nop
 8000b68:	40020c00 	.word	0x40020c00
 8000b6c:	2000003c 	.word	0x2000003c

08000b70 <button_press_handler>:
		}
	}
}

static void button_press_handler(void *parameters)
{
 8000b70:	b580      	push	{r7, lr}
 8000b72:	b086      	sub	sp, #24
 8000b74:	af02      	add	r7, sp, #8
 8000b76:	6078      	str	r0, [r7, #4]
	uint8_t btn_read=0;
 8000b78:	2300      	movs	r3, #0
 8000b7a:	73bb      	strb	r3, [r7, #14]
	uint8_t prev_read=0;
 8000b7c:	2300      	movs	r3, #0
 8000b7e:	73fb      	strb	r3, [r7, #15]


	while(1)
	{

		btn_read = HAL_GPIO_ReadPin(GPIOA, GPIO_PIN_0);
 8000b80:	2101      	movs	r1, #1
 8000b82:	480d      	ldr	r0, [pc, #52]	@ (8000bb8 <button_press_handler+0x48>)
 8000b84:	f000 fbfa 	bl	800137c <HAL_GPIO_ReadPin>
 8000b88:	4603      	mov	r3, r0
 8000b8a:	73bb      	strb	r3, [r7, #14]
		if(btn_read)
 8000b8c:	7bbb      	ldrb	r3, [r7, #14]
 8000b8e:	2b00      	cmp	r3, #0
 8000b90:	d00b      	beq.n	8000baa <button_press_handler+0x3a>
		{
			if(!prev_read)
 8000b92:	7bfb      	ldrb	r3, [r7, #15]
 8000b94:	2b00      	cmp	r3, #0
 8000b96:	d108      	bne.n	8000baa <button_press_handler+0x3a>
			{
				xTaskNotify(next_task_handle,0,eNoAction);
 8000b98:	4b08      	ldr	r3, [pc, #32]	@ (8000bbc <button_press_handler+0x4c>)
 8000b9a:	6818      	ldr	r0, [r3, #0]
 8000b9c:	2300      	movs	r3, #0
 8000b9e:	9300      	str	r3, [sp, #0]
 8000ba0:	2300      	movs	r3, #0
 8000ba2:	2200      	movs	r2, #0
 8000ba4:	2100      	movs	r1, #0
 8000ba6:	f002 fc03 	bl	80033b0 <xTaskGenericNotify>

			}

		}
		prev_read=btn_read;
 8000baa:	7bbb      	ldrb	r3, [r7, #14]
 8000bac:	73fb      	strb	r3, [r7, #15]
		vTaskDelay(pdMS_TO_TICKS(10));
 8000bae:	200a      	movs	r0, #10
 8000bb0:	f001 ff04 	bl	80029bc <vTaskDelay>
		btn_read = HAL_GPIO_ReadPin(GPIOA, GPIO_PIN_0);
 8000bb4:	e7e4      	b.n	8000b80 <button_press_handler+0x10>
 8000bb6:	bf00      	nop
 8000bb8:	40020000 	.word	0x40020000
 8000bbc:	2000003c 	.word	0x2000003c

08000bc0 <HAL_TIM_PeriodElapsedCallback>:
  * a global variable "uwTick" used as application time base.
  * @param  htim : TIM handle
  * @retval None
  */
void HAL_TIM_PeriodElapsedCallback(TIM_HandleTypeDef *htim)
{
 8000bc0:	b580      	push	{r7, lr}
 8000bc2:	b082      	sub	sp, #8
 8000bc4:	af00      	add	r7, sp, #0
 8000bc6:	6078      	str	r0, [r7, #4]
  /* USER CODE BEGIN Callback 0 */

  /* USER CODE END Callback 0 */
  if (htim->Instance == TIM6)
 8000bc8:	687b      	ldr	r3, [r7, #4]
 8000bca:	681b      	ldr	r3, [r3, #0]
 8000bcc:	4a04      	ldr	r2, [pc, #16]	@ (8000be0 <HAL_TIM_PeriodElapsedCallback+0x20>)
 8000bce:	4293      	cmp	r3, r2
 8000bd0:	d101      	bne.n	8000bd6 <HAL_TIM_PeriodElapsedCallback+0x16>
  {
    HAL_IncTick();
 8000bd2:	f000 f935 	bl	8000e40 <HAL_IncTick>
  }
  /* USER CODE BEGIN Callback 1 */

  /* USER CODE END Callback 1 */
}
 8000bd6:	bf00      	nop
 8000bd8:	3708      	adds	r7, #8
 8000bda:	46bd      	mov	sp, r7
 8000bdc:	bd80      	pop	{r7, pc}
 8000bde:	bf00      	nop
 8000be0:	40001000 	.word	0x40001000

08000be4 <Error_Handler>:
/**
  * @brief  This function is executed in case of error occurrence.
  * @retval None
  */
void Error_Handler(void)
{
 8000be4:	b480      	push	{r7}
 8000be6:	af00      	add	r7, sp, #0
  \details Disables IRQ interrupts by setting special-purpose register PRIMASK.
           Can only be executed in Privileged modes.
 */
__STATIC_FORCEINLINE void __disable_irq(void)
{
  __ASM volatile ("cpsid i" : : : "memory");
 8000be8:	b672      	cpsid	i
}
 8000bea:	bf00      	nop
  /* USER CODE BEGIN Error_Handler_Debug */
  /* User can add his own implementation to report the HAL error return state */
  __disable_irq();
  while (1)
 8000bec:	bf00      	nop
 8000bee:	e7fd      	b.n	8000bec <Error_Handler+0x8>

08000bf0 <HAL_MspInit>:
/* USER CODE END 0 */
/**
  * Initializes the Global MSP.
  */
void HAL_MspInit(void)
{
 8000bf0:	b580      	push	{r7, lr}
 8000bf2:	b082      	sub	sp, #8
 8000bf4:	af00      	add	r7, sp, #0

  /* USER CODE BEGIN MspInit 0 */

  /* USER CODE END MspInit 0 */

  __HAL_RCC_SYSCFG_CLK_ENABLE();
 8000bf6:	2300      	movs	r3, #0
 8000bf8:	607b      	str	r3, [r7, #4]
 8000bfa:	4b10      	ldr	r3, [pc, #64]	@ (8000c3c <HAL_MspInit+0x4c>)
 8000bfc:	6c5b      	ldr	r3, [r3, #68]	@ 0x44
 8000bfe:	4a0f      	ldr	r2, [pc, #60]	@ (8000c3c <HAL_MspInit+0x4c>)
 8000c00:	f443 4380 	orr.w	r3, r3, #16384	@ 0x4000
 8000c04:	6453      	str	r3, [r2, #68]	@ 0x44
 8000c06:	4b0d      	ldr	r3, [pc, #52]	@ (8000c3c <HAL_MspInit+0x4c>)
 8000c08:	6c5b      	ldr	r3, [r3, #68]	@ 0x44
 8000c0a:	f403 4380 	and.w	r3, r3, #16384	@ 0x4000
 8000c0e:	607b      	str	r3, [r7, #4]
 8000c10:	687b      	ldr	r3, [r7, #4]
  __HAL_RCC_PWR_CLK_ENABLE();
 8000c12:	2300      	movs	r3, #0
 8000c14:	603b      	str	r3, [r7, #0]
 8000c16:	4b09      	ldr	r3, [pc, #36]	@ (8000c3c <HAL_MspInit+0x4c>)
 8000c18:	6c1b      	ldr	r3, [r3, #64]	@ 0x40
 8000c1a:	4a08      	ldr	r2, [pc, #32]	@ (8000c3c <HAL_MspInit+0x4c>)
 8000c1c:	f043 5380 	orr.w	r3, r3, #268435456	@ 0x10000000
 8000c20:	6413      	str	r3, [r2, #64]	@ 0x40
 8000c22:	4b06      	ldr	r3, [pc, #24]	@ (8000c3c <HAL_MspInit+0x4c>)
 8000c24:	6c1b      	ldr	r3, [r3, #64]	@ 0x40
 8000c26:	f003 5380 	and.w	r3, r3, #268435456	@ 0x10000000
 8000c2a:	603b      	str	r3, [r7, #0]
 8000c2c:	683b      	ldr	r3, [r7, #0]

  /* System interrupt init*/

  /* USER CODE BEGIN MspInit 1 */
  vInitPrioGroupValue(); //this code initializes an variable related to priority grouping
 8000c2e:	f002 ff11 	bl	8003a54 <vInitPrioGroupValue>

  /* USER CODE END MspInit 1 */
}
 8000c32:	bf00      	nop
 8000c34:	3708      	adds	r7, #8
 8000c36:	46bd      	mov	sp, r7
 8000c38:	bd80      	pop	{r7, pc}
 8000c3a:	bf00      	nop
 8000c3c:	40023800 	.word	0x40023800

08000c40 <HAL_InitTick>:
  *         reset by HAL_Init() or at any time when clock is configured, by HAL_RCC_ClockConfig().
  * @param  TickPriority: Tick interrupt priority.
  * @retval HAL status
  */
HAL_StatusTypeDef HAL_InitTick(uint32_t TickPriority)
{
 8000c40:	b580      	push	{r7, lr}
 8000c42:	b08e      	sub	sp, #56	@ 0x38
 8000c44:	af00      	add	r7, sp, #0
 8000c46:	6078      	str	r0, [r7, #4]
  RCC_ClkInitTypeDef    clkconfig;
  uint32_t              uwTimclock, uwAPB1Prescaler = 0U;
 8000c48:	2300      	movs	r3, #0
 8000c4a:	62fb      	str	r3, [r7, #44]	@ 0x2c

  uint32_t              uwPrescalerValue = 0U;
 8000c4c:	2300      	movs	r3, #0
 8000c4e:	62bb      	str	r3, [r7, #40]	@ 0x28
  uint32_t              pFLatency;

  HAL_StatusTypeDef     status;

  /* Enable TIM6 clock */
  __HAL_RCC_TIM6_CLK_ENABLE();
 8000c50:	2300      	movs	r3, #0
 8000c52:	60fb      	str	r3, [r7, #12]
 8000c54:	4b33      	ldr	r3, [pc, #204]	@ (8000d24 <HAL_InitTick+0xe4>)
 8000c56:	6c1b      	ldr	r3, [r3, #64]	@ 0x40
 8000c58:	4a32      	ldr	r2, [pc, #200]	@ (8000d24 <HAL_InitTick+0xe4>)
 8000c5a:	f043 0310 	orr.w	r3, r3, #16
 8000c5e:	6413      	str	r3, [r2, #64]	@ 0x40
 8000c60:	4b30      	ldr	r3, [pc, #192]	@ (8000d24 <HAL_InitTick+0xe4>)
 8000c62:	6c1b      	ldr	r3, [r3, #64]	@ 0x40
 8000c64:	f003 0310 	and.w	r3, r3, #16
 8000c68:	60fb      	str	r3, [r7, #12]
 8000c6a:	68fb      	ldr	r3, [r7, #12]

  /* Get clock configuration */
  HAL_RCC_GetClockConfig(&clkconfig, &pFLatency);
 8000c6c:	f107 0210 	add.w	r2, r7, #16
 8000c70:	f107 0314 	add.w	r3, r7, #20
 8000c74:	4611      	mov	r1, r2
 8000c76:	4618      	mov	r0, r3
 8000c78:	f001 f850 	bl	8001d1c <HAL_RCC_GetClockConfig>

  /* Get APB1 prescaler */
  uwAPB1Prescaler = clkconfig.APB1CLKDivider;
 8000c7c:	6a3b      	ldr	r3, [r7, #32]
 8000c7e:	62fb      	str	r3, [r7, #44]	@ 0x2c
  /* Compute TIM6 clock */
  if (uwAPB1Prescaler == RCC_HCLK_DIV1)
 8000c80:	6afb      	ldr	r3, [r7, #44]	@ 0x2c
 8000c82:	2b00      	cmp	r3, #0
 8000c84:	d103      	bne.n	8000c8e <HAL_InitTick+0x4e>
  {
    uwTimclock = HAL_RCC_GetPCLK1Freq();
 8000c86:	f001 f835 	bl	8001cf4 <HAL_RCC_GetPCLK1Freq>
 8000c8a:	6378      	str	r0, [r7, #52]	@ 0x34
 8000c8c:	e004      	b.n	8000c98 <HAL_InitTick+0x58>
  }
  else
  {
    uwTimclock = 2UL * HAL_RCC_GetPCLK1Freq();
 8000c8e:	f001 f831 	bl	8001cf4 <HAL_RCC_GetPCLK1Freq>
 8000c92:	4603      	mov	r3, r0
 8000c94:	005b      	lsls	r3, r3, #1
 8000c96:	637b      	str	r3, [r7, #52]	@ 0x34
  }

  /* Compute the prescaler value to have TIM6 counter clock equal to 1MHz */
  uwPrescalerValue = (uint32_t) ((uwTimclock / 1000000U) - 1U);
 8000c98:	6b7b      	ldr	r3, [r7, #52]	@ 0x34
 8000c9a:	4a23      	ldr	r2, [pc, #140]	@ (8000d28 <HAL_InitTick+0xe8>)
 8000c9c:	fba2 2303 	umull	r2, r3, r2, r3
 8000ca0:	0c9b      	lsrs	r3, r3, #18
 8000ca2:	3b01      	subs	r3, #1
 8000ca4:	62bb      	str	r3, [r7, #40]	@ 0x28

  /* Initialize TIM6 */
  htim6.Instance = TIM6;
 8000ca6:	4b21      	ldr	r3, [pc, #132]	@ (8000d2c <HAL_InitTick+0xec>)
 8000ca8:	4a21      	ldr	r2, [pc, #132]	@ (8000d30 <HAL_InitTick+0xf0>)
 8000caa:	601a      	str	r2, [r3, #0]
   * Period = [(TIM6CLK/1000) - 1]. to have a (1/1000) s time base.
   * Prescaler = (uwTimclock/1000000 - 1) to have a 1MHz counter clock.
   * ClockDivision = 0
   * Counter direction = Up
   */
  htim6.Init.Period = (1000000U / 1000U) - 1U;
 8000cac:	4b1f      	ldr	r3, [pc, #124]	@ (8000d2c <HAL_InitTick+0xec>)
 8000cae:	f240 32e7 	movw	r2, #999	@ 0x3e7
 8000cb2:	60da      	str	r2, [r3, #12]
  htim6.Init.Prescaler = uwPrescalerValue;
 8000cb4:	4a1d      	ldr	r2, [pc, #116]	@ (8000d2c <HAL_InitTick+0xec>)
 8000cb6:	6abb      	ldr	r3, [r7, #40]	@ 0x28
 8000cb8:	6053      	str	r3, [r2, #4]
  htim6.Init.ClockDivision = 0;
 8000cba:	4b1c      	ldr	r3, [pc, #112]	@ (8000d2c <HAL_InitTick+0xec>)
 8000cbc:	2200      	movs	r2, #0
 8000cbe:	611a      	str	r2, [r3, #16]
  htim6.Init.CounterMode = TIM_COUNTERMODE_UP;
 8000cc0:	4b1a      	ldr	r3, [pc, #104]	@ (8000d2c <HAL_InitTick+0xec>)
 8000cc2:	2200      	movs	r2, #0
 8000cc4:	609a      	str	r2, [r3, #8]
  htim6.Init.AutoReloadPreload = TIM_AUTORELOAD_PRELOAD_DISABLE;
 8000cc6:	4b19      	ldr	r3, [pc, #100]	@ (8000d2c <HAL_InitTick+0xec>)
 8000cc8:	2200      	movs	r2, #0
 8000cca:	619a      	str	r2, [r3, #24]

  status = HAL_TIM_Base_Init(&htim6);
 8000ccc:	4817      	ldr	r0, [pc, #92]	@ (8000d2c <HAL_InitTick+0xec>)
 8000cce:	f001 f857 	bl	8001d80 <HAL_TIM_Base_Init>
 8000cd2:	4603      	mov	r3, r0
 8000cd4:	f887 3033 	strb.w	r3, [r7, #51]	@ 0x33
  if (status == HAL_OK)
 8000cd8:	f897 3033 	ldrb.w	r3, [r7, #51]	@ 0x33
 8000cdc:	2b00      	cmp	r3, #0
 8000cde:	d11b      	bne.n	8000d18 <HAL_InitTick+0xd8>
  {
    /* Start the TIM time Base generation in interrupt mode */
    status = HAL_TIM_Base_Start_IT(&htim6);
 8000ce0:	4812      	ldr	r0, [pc, #72]	@ (8000d2c <HAL_InitTick+0xec>)
 8000ce2:	f001 f8a7 	bl	8001e34 <HAL_TIM_Base_Start_IT>
 8000ce6:	4603      	mov	r3, r0
 8000ce8:	f887 3033 	strb.w	r3, [r7, #51]	@ 0x33
    if (status == HAL_OK)
 8000cec:	f897 3033 	ldrb.w	r3, [r7, #51]	@ 0x33
 8000cf0:	2b00      	cmp	r3, #0
 8000cf2:	d111      	bne.n	8000d18 <HAL_InitTick+0xd8>
    {
    /* Enable the TIM6 global Interrupt */
        HAL_NVIC_EnableIRQ(TIM6_DAC_IRQn);
 8000cf4:	2036      	movs	r0, #54	@ 0x36
 8000cf6:	f000 f997 	bl	8001028 <HAL_NVIC_EnableIRQ>
      /* Configure the SysTick IRQ priority */
      if (TickPriority < (1UL << __NVIC_PRIO_BITS))
 8000cfa:	687b      	ldr	r3, [r7, #4]
 8000cfc:	2b0f      	cmp	r3, #15
 8000cfe:	d808      	bhi.n	8000d12 <HAL_InitTick+0xd2>
      {
        /* Configure the TIM IRQ priority */
        HAL_NVIC_SetPriority(TIM6_DAC_IRQn, TickPriority, 0U);
 8000d00:	2200      	movs	r2, #0
 8000d02:	6879      	ldr	r1, [r7, #4]
 8000d04:	2036      	movs	r0, #54	@ 0x36
 8000d06:	f000 f973 	bl	8000ff0 <HAL_NVIC_SetPriority>
        uwTickPrio = TickPriority;
 8000d0a:	4a0a      	ldr	r2, [pc, #40]	@ (8000d34 <HAL_InitTick+0xf4>)
 8000d0c:	687b      	ldr	r3, [r7, #4]
 8000d0e:	6013      	str	r3, [r2, #0]
 8000d10:	e002      	b.n	8000d18 <HAL_InitTick+0xd8>
      }
      else
      {
        status = HAL_ERROR;
 8000d12:	2301      	movs	r3, #1
 8000d14:	f887 3033 	strb.w	r3, [r7, #51]	@ 0x33
      }
    }
  }

 /* Return function status */
  return status;
 8000d18:	f897 3033 	ldrb.w	r3, [r7, #51]	@ 0x33
}
 8000d1c:	4618      	mov	r0, r3
 8000d1e:	3738      	adds	r7, #56	@ 0x38
 8000d20:	46bd      	mov	sp, r7
 8000d22:	bd80      	pop	{r7, pc}
 8000d24:	40023800 	.word	0x40023800
 8000d28:	431bde83 	.word	0x431bde83
 8000d2c:	20000040 	.word	0x20000040
 8000d30:	40001000 	.word	0x40001000
 8000d34:	20000004 	.word	0x20000004

08000d38 <NMI_Handler>:
/******************************************************************************/
/**
  * @brief This function handles Non maskable interrupt.
  */
void NMI_Handler(void)
{
 8000d38:	b480      	push	{r7}
 8000d3a:	af00      	add	r7, sp, #0
  /* USER CODE BEGIN NonMaskableInt_IRQn 0 */

  /* USER CODE END NonMaskableInt_IRQn 0 */
  /* USER CODE BEGIN NonMaskableInt_IRQn 1 */
   while (1)
 8000d3c:	bf00      	nop
 8000d3e:	e7fd      	b.n	8000d3c <NMI_Handler+0x4>

08000d40 <HardFault_Handler>:

/**
  * @brief This function handles Hard fault interrupt.
  */
void HardFault_Handler(void)
{
 8000d40:	b480      	push	{r7}
 8000d42:	af00      	add	r7, sp, #0
  /* USER CODE BEGIN HardFault_IRQn 0 */

  /* USER CODE END HardFault_IRQn 0 */
  while (1)
 8000d44:	bf00      	nop
 8000d46:	e7fd      	b.n	8000d44 <HardFault_Handler+0x4>

08000d48 <MemManage_Handler>:

/**
  * @brief This function handles Memory management fault.
  */
void MemManage_Handler(void)
{
 8000d48:	b480      	push	{r7}
 8000d4a:	af00      	add	r7, sp, #0
  /* USER CODE BEGIN MemoryManagement_IRQn 0 */

  /* USER CODE END MemoryManagement_IRQn 0 */
  while (1)
 8000d4c:	bf00      	nop
 8000d4e:	e7fd      	b.n	8000d4c <MemManage_Handler+0x4>

08000d50 <BusFault_Handler>:

/**
  * @brief This function handles Pre-fetch fault, memory access fault.
  */
void BusFault_Handler(void)
{
 8000d50:	b480      	push	{r7}
 8000d52:	af00      	add	r7, sp, #0
  /* USER CODE BEGIN BusFault_IRQn 0 */

  /* USER CODE END BusFault_IRQn 0 */
  while (1)
 8000d54:	bf00      	nop
 8000d56:	e7fd      	b.n	8000d54 <BusFault_Handler+0x4>

08000d58 <UsageFault_Handler>:

/**
  * @brief This function handles Undefined instruction or illegal state.
  */
void UsageFault_Handler(void)
{
 8000d58:	b480      	push	{r7}
 8000d5a:	af00      	add	r7, sp, #0
  /* USER CODE BEGIN UsageFault_IRQn 0 */

  /* USER CODE END UsageFault_IRQn 0 */
  while (1)
 8000d5c:	bf00      	nop
 8000d5e:	e7fd      	b.n	8000d5c <UsageFault_Handler+0x4>

08000d60 <DebugMon_Handler>:

/**
  * @brief This function handles Debug monitor.
  */
void DebugMon_Handler(void)
{
 8000d60:	b480      	push	{r7}
 8000d62:	af00      	add	r7, sp, #0

  /* USER CODE END DebugMonitor_IRQn 0 */
  /* USER CODE BEGIN DebugMonitor_IRQn 1 */

  /* USER CODE END DebugMonitor_IRQn 1 */
}
 8000d64:	bf00      	nop
 8000d66:	46bd      	mov	sp, r7
 8000d68:	f85d 7b04 	ldr.w	r7, [sp], #4
 8000d6c:	4770      	bx	lr
	...

08000d70 <TIM6_DAC_IRQHandler>:

/**
  * @brief This function handles TIM6 global interrupt, DAC1 and DAC2 underrun error interrupts.
  */
void TIM6_DAC_IRQHandler(void)
{
 8000d70:	b580      	push	{r7, lr}
 8000d72:	af00      	add	r7, sp, #0
  /* USER CODE BEGIN TIM6_DAC_IRQn 0 */

  /* USER CODE END TIM6_DAC_IRQn 0 */
  HAL_TIM_IRQHandler(&htim6);
 8000d74:	4802      	ldr	r0, [pc, #8]	@ (8000d80 <TIM6_DAC_IRQHandler+0x10>)
 8000d76:	f001 f8cd 	bl	8001f14 <HAL_TIM_IRQHandler>
  /* USER CODE BEGIN TIM6_DAC_IRQn 1 */

  /* USER CODE END TIM6_DAC_IRQn 1 */
}
 8000d7a:	bf00      	nop
 8000d7c:	bd80      	pop	{r7, pc}
 8000d7e:	bf00      	nop
 8000d80:	20000040 	.word	0x20000040

08000d84 <SystemInit>:
  *         configuration.
  * @param  None
  * @retval None
  */
void SystemInit(void)
{
 8000d84:	b480      	push	{r7}
 8000d86:	af00      	add	r7, sp, #0
  /* FPU settings ------------------------------------------------------------*/
  #if (__FPU_PRESENT == 1) && (__FPU_USED == 1)
    SCB->CPACR |= ((3UL << 10*2)|(3UL << 11*2));  /* set CP10 and CP11 Full Access */
 8000d88:	4b06      	ldr	r3, [pc, #24]	@ (8000da4 <SystemInit+0x20>)
 8000d8a:	f8d3 3088 	ldr.w	r3, [r3, #136]	@ 0x88
 8000d8e:	4a05      	ldr	r2, [pc, #20]	@ (8000da4 <SystemInit+0x20>)
 8000d90:	f443 0370 	orr.w	r3, r3, #15728640	@ 0xf00000
 8000d94:	f8c2 3088 	str.w	r3, [r2, #136]	@ 0x88

  /* Configure the Vector Table location -------------------------------------*/
#if defined(USER_VECT_TAB_ADDRESS)
  SCB->VTOR = VECT_TAB_BASE_ADDRESS | VECT_TAB_OFFSET; /* Vector Table Relocation in Internal SRAM */
#endif /* USER_VECT_TAB_ADDRESS */
}
 8000d98:	bf00      	nop
 8000d9a:	46bd      	mov	sp, r7
 8000d9c:	f85d 7b04 	ldr.w	r7, [sp], #4
 8000da0:	4770      	bx	lr
 8000da2:	bf00      	nop
 8000da4:	e000ed00 	.word	0xe000ed00

08000da8 <Reset_Handler>:

    .section  .text.Reset_Handler
  .weak  Reset_Handler
  .type  Reset_Handler, %function
Reset_Handler:  
  ldr   sp, =_estack     /* set stack pointer */
 8000da8:	f8df d034 	ldr.w	sp, [pc, #52]	@ 8000de0 <LoopFillZerobss+0xe>
  
/* Call the clock system initialization function.*/
  bl  SystemInit  
 8000dac:	f7ff ffea 	bl	8000d84 <SystemInit>

/* Copy the data segment initializers from flash to SRAM */  
  ldr r0, =_sdata
 8000db0:	480c      	ldr	r0, [pc, #48]	@ (8000de4 <LoopFillZerobss+0x12>)
  ldr r1, =_edata
 8000db2:	490d      	ldr	r1, [pc, #52]	@ (8000de8 <LoopFillZerobss+0x16>)
  ldr r2, =_sidata
 8000db4:	4a0d      	ldr	r2, [pc, #52]	@ (8000dec <LoopFillZerobss+0x1a>)
  movs r3, #0
 8000db6:	2300      	movs	r3, #0
  b LoopCopyDataInit
 8000db8:	e002      	b.n	8000dc0 <LoopCopyDataInit>

08000dba <CopyDataInit>:

CopyDataInit:
  ldr r4, [r2, r3]
 8000dba:	58d4      	ldr	r4, [r2, r3]
  str r4, [r0, r3]
 8000dbc:	50c4      	str	r4, [r0, r3]
  adds r3, r3, #4
 8000dbe:	3304      	adds	r3, #4

08000dc0 <LoopCopyDataInit>:

LoopCopyDataInit:
  adds r4, r0, r3
 8000dc0:	18c4      	adds	r4, r0, r3
  cmp r4, r1
 8000dc2:	428c      	cmp	r4, r1
  bcc CopyDataInit
 8000dc4:	d3f9      	bcc.n	8000dba <CopyDataInit>
  
/* Zero fill the bss segment. */
  ldr r2, =_sbss
 8000dc6:	4a0a      	ldr	r2, [pc, #40]	@ (8000df0 <LoopFillZerobss+0x1e>)
  ldr r4, =_ebss
 8000dc8:	4c0a      	ldr	r4, [pc, #40]	@ (8000df4 <LoopFillZerobss+0x22>)
  movs r3, #0
 8000dca:	2300      	movs	r3, #0
  b LoopFillZerobss
 8000dcc:	e001      	b.n	8000dd2 <LoopFillZerobss>

08000dce <FillZerobss>:

FillZerobss:
  str  r3, [r2]
 8000dce:	6013      	str	r3, [r2, #0]
  adds r2, r2, #4
 8000dd0:	3204      	adds	r2, #4

08000dd2 <LoopFillZerobss>:

LoopFillZerobss:
  cmp r2, r4
 8000dd2:	42a2      	cmp	r2, r4
  bcc FillZerobss
 8000dd4:	d3fb      	bcc.n	8000dce <FillZerobss>

/* Call static constructors */
    bl __libc_init_array
 8000dd6:	f005 f9a3 	bl	8006120 <__libc_init_array>
/* Call the application's entry point.*/
  bl  main
 8000dda:	f7ff fbd9 	bl	8000590 <main>
  bx  lr    
 8000dde:	4770      	bx	lr
  ldr   sp, =_estack     /* set stack pointer */
 8000de0:	20020000 	.word	0x20020000
  ldr r0, =_sdata
 8000de4:	20000000 	.word	0x20000000
  ldr r1, =_edata
 8000de8:	20000010 	.word	0x20000010
  ldr r2, =_sidata
 8000dec:	080062fc 	.word	0x080062fc
  ldr r2, =_sbss
 8000df0:	20000010 	.word	0x20000010
  ldr r4, =_ebss
 8000df4:	2001442c 	.word	0x2001442c

08000df8 <ADC_IRQHandler>:
 * @retval None       
*/
    .section  .text.Default_Handler,"ax",%progbits
Default_Handler:
Infinite_Loop:
  b  Infinite_Loop
 8000df8:	e7fe      	b.n	8000df8 <ADC_IRQHandler>
	...

08000dfc <HAL_Init>:
  *         need to ensure that the SysTick time base is always set to 1 millisecond
  *         to have correct HAL operation.
  * @retval HAL status
  */
HAL_StatusTypeDef HAL_Init(void)
{
 8000dfc:	b580      	push	{r7, lr}
 8000dfe:	af00      	add	r7, sp, #0
  /* Configure Flash prefetch, Instruction cache, Data cache */ 
#if (INSTRUCTION_CACHE_ENABLE != 0U)
  __HAL_FLASH_INSTRUCTION_CACHE_ENABLE();
 8000e00:	4b0e      	ldr	r3, [pc, #56]	@ (8000e3c <HAL_Init+0x40>)
 8000e02:	681b      	ldr	r3, [r3, #0]
 8000e04:	4a0d      	ldr	r2, [pc, #52]	@ (8000e3c <HAL_Init+0x40>)
 8000e06:	f443 7300 	orr.w	r3, r3, #512	@ 0x200
 8000e0a:	6013      	str	r3, [r2, #0]
#endif /* INSTRUCTION_CACHE_ENABLE */

#if (DATA_CACHE_ENABLE != 0U)
  __HAL_FLASH_DATA_CACHE_ENABLE();
 8000e0c:	4b0b      	ldr	r3, [pc, #44]	@ (8000e3c <HAL_Init+0x40>)
 8000e0e:	681b      	ldr	r3, [r3, #0]
 8000e10:	4a0a      	ldr	r2, [pc, #40]	@ (8000e3c <HAL_Init+0x40>)
 8000e12:	f443 6380 	orr.w	r3, r3, #1024	@ 0x400
 8000e16:	6013      	str	r3, [r2, #0]
#endif /* DATA_CACHE_ENABLE */

#if (PREFETCH_ENABLE != 0U)
  __HAL_FLASH_PREFETCH_BUFFER_ENABLE();
 8000e18:	4b08      	ldr	r3, [pc, #32]	@ (8000e3c <HAL_Init+0x40>)
 8000e1a:	681b      	ldr	r3, [r3, #0]
 8000e1c:	4a07      	ldr	r2, [pc, #28]	@ (8000e3c <HAL_Init+0x40>)
 8000e1e:	f443 7380 	orr.w	r3, r3, #256	@ 0x100
 8000e22:	6013      	str	r3, [r2, #0]
#endif /* PREFETCH_ENABLE */

  /* Set Interrupt Group Priority */
  HAL_NVIC_SetPriorityGrouping(NVIC_PRIORITYGROUP_4);
 8000e24:	2003      	movs	r0, #3
 8000e26:	f000 f8d8 	bl	8000fda <HAL_NVIC_SetPriorityGrouping>

  /* Use systick as time base source and configure 1ms tick (default clock after Reset is HSI) */
  HAL_InitTick(TICK_INT_PRIORITY);
 8000e2a:	2000      	movs	r0, #0
 8000e2c:	f7ff ff08 	bl	8000c40 <HAL_InitTick>

  /* Init the low level hardware */
  HAL_MspInit();
 8000e30:	f7ff fede 	bl	8000bf0 <HAL_MspInit>

  /* Return function status */
  return HAL_OK;
 8000e34:	2300      	movs	r3, #0
}
 8000e36:	4618      	mov	r0, r3
 8000e38:	bd80      	pop	{r7, pc}
 8000e3a:	bf00      	nop
 8000e3c:	40023c00 	.word	0x40023c00

08000e40 <HAL_IncTick>:
 * @note This function is declared as __weak to be overwritten in case of other 
  *      implementations in user file.
  * @retval None
  */
__weak void HAL_IncTick(void)
{
 8000e40:	b480      	push	{r7}
 8000e42:	af00      	add	r7, sp, #0
  uwTick += uwTickFreq;
 8000e44:	4b06      	ldr	r3, [pc, #24]	@ (8000e60 <HAL_IncTick+0x20>)
 8000e46:	781b      	ldrb	r3, [r3, #0]
 8000e48:	461a      	mov	r2, r3
 8000e4a:	4b06      	ldr	r3, [pc, #24]	@ (8000e64 <HAL_IncTick+0x24>)
 8000e4c:	681b      	ldr	r3, [r3, #0]
 8000e4e:	4413      	add	r3, r2
 8000e50:	4a04      	ldr	r2, [pc, #16]	@ (8000e64 <HAL_IncTick+0x24>)
 8000e52:	6013      	str	r3, [r2, #0]
}
 8000e54:	bf00      	nop
 8000e56:	46bd      	mov	sp, r7
 8000e58:	f85d 7b04 	ldr.w	r7, [sp], #4
 8000e5c:	4770      	bx	lr
 8000e5e:	bf00      	nop
 8000e60:	20000008 	.word	0x20000008
 8000e64:	20000088 	.word	0x20000088

08000e68 <HAL_GetTick>:
  * @note This function is declared as __weak to be overwritten in case of other 
  *       implementations in user file.
  * @retval tick value
  */
__weak uint32_t HAL_GetTick(void)
{
 8000e68:	b480      	push	{r7}
 8000e6a:	af00      	add	r7, sp, #0
  return uwTick;
 8000e6c:	4b03      	ldr	r3, [pc, #12]	@ (8000e7c <HAL_GetTick+0x14>)
 8000e6e:	681b      	ldr	r3, [r3, #0]
}
 8000e70:	4618      	mov	r0, r3
 8000e72:	46bd      	mov	sp, r7
 8000e74:	f85d 7b04 	ldr.w	r7, [sp], #4
 8000e78:	4770      	bx	lr
 8000e7a:	bf00      	nop
 8000e7c:	20000088 	.word	0x20000088

08000e80 <__NVIC_SetPriorityGrouping>:
           In case of a conflict between priority grouping and available
           priority bits (__NVIC_PRIO_BITS), the smallest possible priority group is set.
  \param [in]      PriorityGroup  Priority grouping field.
 */
__STATIC_INLINE void __NVIC_SetPriorityGrouping(uint32_t PriorityGroup)
{
 8000e80:	b480      	push	{r7}
 8000e82:	b085      	sub	sp, #20
 8000e84:	af00      	add	r7, sp, #0
 8000e86:	6078      	str	r0, [r7, #4]
  uint32_t reg_value;
  uint32_t PriorityGroupTmp = (PriorityGroup & (uint32_t)0x07UL);             /* only values 0..7 are used          */
 8000e88:	687b      	ldr	r3, [r7, #4]
 8000e8a:	f003 0307 	and.w	r3, r3, #7
 8000e8e:	60fb      	str	r3, [r7, #12]

  reg_value  =  SCB->AIRCR;                                                   /* read old register configuration    */
 8000e90:	4b0c      	ldr	r3, [pc, #48]	@ (8000ec4 <__NVIC_SetPriorityGrouping+0x44>)
 8000e92:	68db      	ldr	r3, [r3, #12]
 8000e94:	60bb      	str	r3, [r7, #8]
  reg_value &= ~((uint32_t)(SCB_AIRCR_VECTKEY_Msk | SCB_AIRCR_PRIGROUP_Msk)); /* clear bits to change               */
 8000e96:	68ba      	ldr	r2, [r7, #8]
 8000e98:	f64f 03ff 	movw	r3, #63743	@ 0xf8ff
 8000e9c:	4013      	ands	r3, r2
 8000e9e:	60bb      	str	r3, [r7, #8]
  reg_value  =  (reg_value                                   |
                ((uint32_t)0x5FAUL << SCB_AIRCR_VECTKEY_Pos) |
                (PriorityGroupTmp << SCB_AIRCR_PRIGROUP_Pos)  );              /* Insert write key and priority group */
 8000ea0:	68fb      	ldr	r3, [r7, #12]
 8000ea2:	021a      	lsls	r2, r3, #8
                ((uint32_t)0x5FAUL << SCB_AIRCR_VECTKEY_Pos) |
 8000ea4:	68bb      	ldr	r3, [r7, #8]
 8000ea6:	4313      	orrs	r3, r2
  reg_value  =  (reg_value                                   |
 8000ea8:	f043 63bf 	orr.w	r3, r3, #100139008	@ 0x5f80000
 8000eac:	f443 3300 	orr.w	r3, r3, #131072	@ 0x20000
 8000eb0:	60bb      	str	r3, [r7, #8]
  SCB->AIRCR =  reg_value;
 8000eb2:	4a04      	ldr	r2, [pc, #16]	@ (8000ec4 <__NVIC_SetPriorityGrouping+0x44>)
 8000eb4:	68bb      	ldr	r3, [r7, #8]
 8000eb6:	60d3      	str	r3, [r2, #12]
}
 8000eb8:	bf00      	nop
 8000eba:	3714      	adds	r7, #20
 8000ebc:	46bd      	mov	sp, r7
 8000ebe:	f85d 7b04 	ldr.w	r7, [sp], #4
 8000ec2:	4770      	bx	lr
 8000ec4:	e000ed00 	.word	0xe000ed00

08000ec8 <__NVIC_GetPriorityGrouping>:
  \brief   Get Priority Grouping
  \details Reads the priority grouping field from the NVIC Interrupt Controller.
  \return                Priority grouping field (SCB->AIRCR [10:8] PRIGROUP field).
 */
__STATIC_INLINE uint32_t __NVIC_GetPriorityGrouping(void)
{
 8000ec8:	b480      	push	{r7}
 8000eca:	af00      	add	r7, sp, #0
  return ((uint32_t)((SCB->AIRCR & SCB_AIRCR_PRIGROUP_Msk) >> SCB_AIRCR_PRIGROUP_Pos));
 8000ecc:	4b04      	ldr	r3, [pc, #16]	@ (8000ee0 <__NVIC_GetPriorityGrouping+0x18>)
 8000ece:	68db      	ldr	r3, [r3, #12]
 8000ed0:	0a1b      	lsrs	r3, r3, #8
 8000ed2:	f003 0307 	and.w	r3, r3, #7
}
 8000ed6:	4618      	mov	r0, r3
 8000ed8:	46bd      	mov	sp, r7
 8000eda:	f85d 7b04 	ldr.w	r7, [sp], #4
 8000ede:	4770      	bx	lr
 8000ee0:	e000ed00 	.word	0xe000ed00

08000ee4 <__NVIC_EnableIRQ>:
  \details Enables a device specific interrupt in the NVIC interrupt controller.
  \param [in]      IRQn  Device specific interrupt number.
  \note    IRQn must not be negative.
 */
__STATIC_INLINE void __NVIC_EnableIRQ(IRQn_Type IRQn)
{
 8000ee4:	b480      	push	{r7}
 8000ee6:	b083      	sub	sp, #12
 8000ee8:	af00      	add	r7, sp, #0
 8000eea:	4603      	mov	r3, r0
 8000eec:	71fb      	strb	r3, [r7, #7]
  if ((int32_t)(IRQn) >= 0)
 8000eee:	f997 3007 	ldrsb.w	r3, [r7, #7]
 8000ef2:	2b00      	cmp	r3, #0
 8000ef4:	db0b      	blt.n	8000f0e <__NVIC_EnableIRQ+0x2a>
  {
    __COMPILER_BARRIER();
    NVIC->ISER[(((uint32_t)IRQn) >> 5UL)] = (uint32_t)(1UL << (((uint32_t)IRQn) & 0x1FUL));
 8000ef6:	79fb      	ldrb	r3, [r7, #7]
 8000ef8:	f003 021f 	and.w	r2, r3, #31
 8000efc:	4907      	ldr	r1, [pc, #28]	@ (8000f1c <__NVIC_EnableIRQ+0x38>)
 8000efe:	f997 3007 	ldrsb.w	r3, [r7, #7]
 8000f02:	095b      	lsrs	r3, r3, #5
 8000f04:	2001      	movs	r0, #1
 8000f06:	fa00 f202 	lsl.w	r2, r0, r2
 8000f0a:	f841 2023 	str.w	r2, [r1, r3, lsl #2]
    __COMPILER_BARRIER();
  }
}
 8000f0e:	bf00      	nop
 8000f10:	370c      	adds	r7, #12
 8000f12:	46bd      	mov	sp, r7
 8000f14:	f85d 7b04 	ldr.w	r7, [sp], #4
 8000f18:	4770      	bx	lr
 8000f1a:	bf00      	nop
 8000f1c:	e000e100 	.word	0xe000e100

08000f20 <__NVIC_SetPriority>:
  \param [in]      IRQn  Interrupt number.
  \param [in]  priority  Priority to set.
  \note    The priority cannot be set for every processor exception.
 */
__STATIC_INLINE void __NVIC_SetPriority(IRQn_Type IRQn, uint32_t priority)
{
 8000f20:	b480      	push	{r7}
 8000f22:	b083      	sub	sp, #12
 8000f24:	af00      	add	r7, sp, #0
 8000f26:	4603      	mov	r3, r0
 8000f28:	6039      	str	r1, [r7, #0]
 8000f2a:	71fb      	strb	r3, [r7, #7]
  if ((int32_t)(IRQn) >= 0)
 8000f2c:	f997 3007 	ldrsb.w	r3, [r7, #7]
 8000f30:	2b00      	cmp	r3, #0
 8000f32:	db0a      	blt.n	8000f4a <__NVIC_SetPriority+0x2a>
  {
    NVIC->IP[((uint32_t)IRQn)]               = (uint8_t)((priority << (8U - __NVIC_PRIO_BITS)) & (uint32_t)0xFFUL);
 8000f34:	683b      	ldr	r3, [r7, #0]
 8000f36:	b2da      	uxtb	r2, r3
 8000f38:	490c      	ldr	r1, [pc, #48]	@ (8000f6c <__NVIC_SetPriority+0x4c>)
 8000f3a:	f997 3007 	ldrsb.w	r3, [r7, #7]
 8000f3e:	0112      	lsls	r2, r2, #4
 8000f40:	b2d2      	uxtb	r2, r2
 8000f42:	440b      	add	r3, r1
 8000f44:	f883 2300 	strb.w	r2, [r3, #768]	@ 0x300
  }
  else
  {
    SCB->SHP[(((uint32_t)IRQn) & 0xFUL)-4UL] = (uint8_t)((priority << (8U - __NVIC_PRIO_BITS)) & (uint32_t)0xFFUL);
  }
}
 8000f48:	e00a      	b.n	8000f60 <__NVIC_SetPriority+0x40>
    SCB->SHP[(((uint32_t)IRQn) & 0xFUL)-4UL] = (uint8_t)((priority << (8U - __NVIC_PRIO_BITS)) & (uint32_t)0xFFUL);
 8000f4a:	683b      	ldr	r3, [r7, #0]
 8000f4c:	b2da      	uxtb	r2, r3
 8000f4e:	4908      	ldr	r1, [pc, #32]	@ (8000f70 <__NVIC_SetPriority+0x50>)
 8000f50:	79fb      	ldrb	r3, [r7, #7]
 8000f52:	f003 030f 	and.w	r3, r3, #15
 8000f56:	3b04      	subs	r3, #4
 8000f58:	0112      	lsls	r2, r2, #4
 8000f5a:	b2d2      	uxtb	r2, r2
 8000f5c:	440b      	add	r3, r1
 8000f5e:	761a      	strb	r2, [r3, #24]
}
 8000f60:	bf00      	nop
 8000f62:	370c      	adds	r7, #12
 8000f64:	46bd      	mov	sp, r7
 8000f66:	f85d 7b04 	ldr.w	r7, [sp], #4
 8000f6a:	4770      	bx	lr
 8000f6c:	e000e100 	.word	0xe000e100
 8000f70:	e000ed00 	.word	0xe000ed00

08000f74 <NVIC_EncodePriority>:
  \param [in]   PreemptPriority  Preemptive priority value (starting from 0).
  \param [in]       SubPriority  Subpriority value (starting from 0).
  \return                        Encoded priority. Value can be used in the function \ref NVIC_SetPriority().
 */
__STATIC_INLINE uint32_t NVIC_EncodePriority (uint32_t PriorityGroup, uint32_t PreemptPriority, uint32_t SubPriority)
{
 8000f74:	b480      	push	{r7}
 8000f76:	b089      	sub	sp, #36	@ 0x24
 8000f78:	af00      	add	r7, sp, #0
 8000f7a:	60f8      	str	r0, [r7, #12]
 8000f7c:	60b9      	str	r1, [r7, #8]
 8000f7e:	607a      	str	r2, [r7, #4]
  uint32_t PriorityGroupTmp = (PriorityGroup & (uint32_t)0x07UL);   /* only values 0..7 are used          */
 8000f80:	68fb      	ldr	r3, [r7, #12]
 8000f82:	f003 0307 	and.w	r3, r3, #7
 8000f86:	61fb      	str	r3, [r7, #28]
  uint32_t PreemptPriorityBits;
  uint32_t SubPriorityBits;

  PreemptPriorityBits = ((7UL - PriorityGroupTmp) > (uint32_t)(__NVIC_PRIO_BITS)) ? (uint32_t)(__NVIC_PRIO_BITS) : (uint32_t)(7UL - PriorityGroupTmp);
 8000f88:	69fb      	ldr	r3, [r7, #28]
 8000f8a:	f1c3 0307 	rsb	r3, r3, #7
 8000f8e:	2b04      	cmp	r3, #4
 8000f90:	bf28      	it	cs
 8000f92:	2304      	movcs	r3, #4
 8000f94:	61bb      	str	r3, [r7, #24]
  SubPriorityBits     = ((PriorityGroupTmp + (uint32_t)(__NVIC_PRIO_BITS)) < (uint32_t)7UL) ? (uint32_t)0UL : (uint32_t)((PriorityGroupTmp - 7UL) + (uint32_t)(__NVIC_PRIO_BITS));
 8000f96:	69fb      	ldr	r3, [r7, #28]
 8000f98:	3304      	adds	r3, #4
 8000f9a:	2b06      	cmp	r3, #6
 8000f9c:	d902      	bls.n	8000fa4 <NVIC_EncodePriority+0x30>
 8000f9e:	69fb      	ldr	r3, [r7, #28]
 8000fa0:	3b03      	subs	r3, #3
 8000fa2:	e000      	b.n	8000fa6 <NVIC_EncodePriority+0x32>
 8000fa4:	2300      	movs	r3, #0
 8000fa6:	617b      	str	r3, [r7, #20]

  return (
           ((PreemptPriority & (uint32_t)((1UL << (PreemptPriorityBits)) - 1UL)) << SubPriorityBits) |
 8000fa8:	f04f 32ff 	mov.w	r2, #4294967295	@ 0xffffffff
 8000fac:	69bb      	ldr	r3, [r7, #24]
 8000fae:	fa02 f303 	lsl.w	r3, r2, r3
 8000fb2:	43da      	mvns	r2, r3
 8000fb4:	68bb      	ldr	r3, [r7, #8]
 8000fb6:	401a      	ands	r2, r3
 8000fb8:	697b      	ldr	r3, [r7, #20]
 8000fba:	409a      	lsls	r2, r3
           ((SubPriority     & (uint32_t)((1UL << (SubPriorityBits    )) - 1UL)))
 8000fbc:	f04f 31ff 	mov.w	r1, #4294967295	@ 0xffffffff
 8000fc0:	697b      	ldr	r3, [r7, #20]
 8000fc2:	fa01 f303 	lsl.w	r3, r1, r3
 8000fc6:	43d9      	mvns	r1, r3
 8000fc8:	687b      	ldr	r3, [r7, #4]
 8000fca:	400b      	ands	r3, r1
           ((PreemptPriority & (uint32_t)((1UL << (PreemptPriorityBits)) - 1UL)) << SubPriorityBits) |
 8000fcc:	4313      	orrs	r3, r2
         );
}
 8000fce:	4618      	mov	r0, r3
 8000fd0:	3724      	adds	r7, #36	@ 0x24
 8000fd2:	46bd      	mov	sp, r7
 8000fd4:	f85d 7b04 	ldr.w	r7, [sp], #4
 8000fd8:	4770      	bx	lr

08000fda <HAL_NVIC_SetPriorityGrouping>:
  * @note   When the NVIC_PriorityGroup_0 is selected, IRQ preemption is no more possible. 
  *         The pending IRQ priority will be managed only by the subpriority. 
  * @retval None
  */
void HAL_NVIC_SetPriorityGrouping(uint32_t PriorityGroup)
{
 8000fda:	b580      	push	{r7, lr}
 8000fdc:	b082      	sub	sp, #8
 8000fde:	af00      	add	r7, sp, #0
 8000fe0:	6078      	str	r0, [r7, #4]
  /* Check the parameters */
  assert_param(IS_NVIC_PRIORITY_GROUP(PriorityGroup));
  
  /* Set the PRIGROUP[10:8] bits according to the PriorityGroup parameter value */
  NVIC_SetPriorityGrouping(PriorityGroup);
 8000fe2:	6878      	ldr	r0, [r7, #4]
 8000fe4:	f7ff ff4c 	bl	8000e80 <__NVIC_SetPriorityGrouping>
}
 8000fe8:	bf00      	nop
 8000fea:	3708      	adds	r7, #8
 8000fec:	46bd      	mov	sp, r7
 8000fee:	bd80      	pop	{r7, pc}

08000ff0 <HAL_NVIC_SetPriority>:
  *         This parameter can be a value between 0 and 15
  *         A lower priority value indicates a higher priority.          
  * @retval None
  */
void HAL_NVIC_SetPriority(IRQn_Type IRQn, uint32_t PreemptPriority, uint32_t SubPriority)
{ 
 8000ff0:	b580      	push	{r7, lr}
 8000ff2:	b086      	sub	sp, #24
 8000ff4:	af00      	add	r7, sp, #0
 8000ff6:	4603      	mov	r3, r0
 8000ff8:	60b9      	str	r1, [r7, #8]
 8000ffa:	607a      	str	r2, [r7, #4]
 8000ffc:	73fb      	strb	r3, [r7, #15]
  uint32_t prioritygroup = 0x00U;
 8000ffe:	2300      	movs	r3, #0
 8001000:	617b      	str	r3, [r7, #20]
  
  /* Check the parameters */
  assert_param(IS_NVIC_SUB_PRIORITY(SubPriority));
  assert_param(IS_NVIC_PREEMPTION_PRIORITY(PreemptPriority));
  
  prioritygroup = NVIC_GetPriorityGrouping();
 8001002:	f7ff ff61 	bl	8000ec8 <__NVIC_GetPriorityGrouping>
 8001006:	6178      	str	r0, [r7, #20]
  
  NVIC_SetPriority(IRQn, NVIC_EncodePriority(prioritygroup, PreemptPriority, SubPriority));
 8001008:	687a      	ldr	r2, [r7, #4]
 800100a:	68b9      	ldr	r1, [r7, #8]
 800100c:	6978      	ldr	r0, [r7, #20]
 800100e:	f7ff ffb1 	bl	8000f74 <NVIC_EncodePriority>
 8001012:	4602      	mov	r2, r0
 8001014:	f997 300f 	ldrsb.w	r3, [r7, #15]
 8001018:	4611      	mov	r1, r2
 800101a:	4618      	mov	r0, r3
 800101c:	f7ff ff80 	bl	8000f20 <__NVIC_SetPriority>
}
 8001020:	bf00      	nop
 8001022:	3718      	adds	r7, #24
 8001024:	46bd      	mov	sp, r7
 8001026:	bd80      	pop	{r7, pc}

08001028 <HAL_NVIC_EnableIRQ>:
  *         This parameter can be an enumerator of IRQn_Type enumeration
  *         (For the complete STM32 Devices IRQ Channels list, please refer to the appropriate CMSIS device file (stm32f4xxxx.h))
  * @retval None
  */
void HAL_NVIC_EnableIRQ(IRQn_Type IRQn)
{
 8001028:	b580      	push	{r7, lr}
 800102a:	b082      	sub	sp, #8
 800102c:	af00      	add	r7, sp, #0
 800102e:	4603      	mov	r3, r0
 8001030:	71fb      	strb	r3, [r7, #7]
  /* Check the parameters */
  assert_param(IS_NVIC_DEVICE_IRQ(IRQn));
  
  /* Enable interrupt */
  NVIC_EnableIRQ(IRQn);
 8001032:	f997 3007 	ldrsb.w	r3, [r7, #7]
 8001036:	4618      	mov	r0, r3
 8001038:	f7ff ff54 	bl	8000ee4 <__NVIC_EnableIRQ>
}
 800103c:	bf00      	nop
 800103e:	3708      	adds	r7, #8
 8001040:	46bd      	mov	sp, r7
 8001042:	bd80      	pop	{r7, pc}

08001044 <HAL_GPIO_Init>:
  * @param  GPIO_Init pointer to a GPIO_InitTypeDef structure that contains
  *         the configuration information for the specified GPIO peripheral.
  * @retval None
  */
void HAL_GPIO_Init(GPIO_TypeDef  *GPIOx, GPIO_InitTypeDef *GPIO_Init)
{
 8001044:	b480      	push	{r7}
 8001046:	b089      	sub	sp, #36	@ 0x24
 8001048:	af00      	add	r7, sp, #0
 800104a:	6078      	str	r0, [r7, #4]
 800104c:	6039      	str	r1, [r7, #0]
  uint32_t position;
  uint32_t ioposition = 0x00U;
 800104e:	2300      	movs	r3, #0
 8001050:	617b      	str	r3, [r7, #20]
  uint32_t iocurrent = 0x00U;
 8001052:	2300      	movs	r3, #0
 8001054:	613b      	str	r3, [r7, #16]
  uint32_t temp = 0x00U;
 8001056:	2300      	movs	r3, #0
 8001058:	61bb      	str	r3, [r7, #24]
  assert_param(IS_GPIO_ALL_INSTANCE(GPIOx));
  assert_param(IS_GPIO_PIN(GPIO_Init->Pin));
  assert_param(IS_GPIO_MODE(GPIO_Init->Mode));

  /* Configure the port pins */
  for(position = 0U; position < GPIO_NUMBER; position++)
 800105a:	2300      	movs	r3, #0
 800105c:	61fb      	str	r3, [r7, #28]
 800105e:	e16b      	b.n	8001338 <HAL_GPIO_Init+0x2f4>
  {
    /* Get the IO position */
    ioposition = 0x01U << position;
 8001060:	2201      	movs	r2, #1
 8001062:	69fb      	ldr	r3, [r7, #28]
 8001064:	fa02 f303 	lsl.w	r3, r2, r3
 8001068:	617b      	str	r3, [r7, #20]
    /* Get the current IO position */
    iocurrent = (uint32_t)(GPIO_Init->Pin) & ioposition;
 800106a:	683b      	ldr	r3, [r7, #0]
 800106c:	681b      	ldr	r3, [r3, #0]
 800106e:	697a      	ldr	r2, [r7, #20]
 8001070:	4013      	ands	r3, r2
 8001072:	613b      	str	r3, [r7, #16]

    if(iocurrent == ioposition)
 8001074:	693a      	ldr	r2, [r7, #16]
 8001076:	697b      	ldr	r3, [r7, #20]
 8001078:	429a      	cmp	r2, r3
 800107a:	f040 815a 	bne.w	8001332 <HAL_GPIO_Init+0x2ee>
    {
      /*--------------------- GPIO Mode Configuration ------------------------*/
      /* In case of Output or Alternate function mode selection */
      if(((GPIO_Init->Mode & GPIO_MODE) == MODE_OUTPUT) || \
 800107e:	683b      	ldr	r3, [r7, #0]
 8001080:	685b      	ldr	r3, [r3, #4]
 8001082:	f003 0303 	and.w	r3, r3, #3
 8001086:	2b01      	cmp	r3, #1
 8001088:	d005      	beq.n	8001096 <HAL_GPIO_Init+0x52>
          (GPIO_Init->Mode & GPIO_MODE) == MODE_AF)
 800108a:	683b      	ldr	r3, [r7, #0]
 800108c:	685b      	ldr	r3, [r3, #4]
 800108e:	f003 0303 	and.w	r3, r3, #3
      if(((GPIO_Init->Mode & GPIO_MODE) == MODE_OUTPUT) || \
 8001092:	2b02      	cmp	r3, #2
 8001094:	d130      	bne.n	80010f8 <HAL_GPIO_Init+0xb4>
      {
        /* Check the Speed parameter */
        assert_param(IS_GPIO_SPEED(GPIO_Init->Speed));
        /* Configure the IO Speed */
        temp = GPIOx->OSPEEDR; 
 8001096:	687b      	ldr	r3, [r7, #4]
 8001098:	689b      	ldr	r3, [r3, #8]
 800109a:	61bb      	str	r3, [r7, #24]
        temp &= ~(GPIO_OSPEEDER_OSPEEDR0 << (position * 2U));
 800109c:	69fb      	ldr	r3, [r7, #28]
 800109e:	005b      	lsls	r3, r3, #1
 80010a0:	2203      	movs	r2, #3
 80010a2:	fa02 f303 	lsl.w	r3, r2, r3
 80010a6:	43db      	mvns	r3, r3
 80010a8:	69ba      	ldr	r2, [r7, #24]
 80010aa:	4013      	ands	r3, r2
 80010ac:	61bb      	str	r3, [r7, #24]
        temp |= (GPIO_Init->Speed << (position * 2U));
 80010ae:	683b      	ldr	r3, [r7, #0]
 80010b0:	68da      	ldr	r2, [r3, #12]
 80010b2:	69fb      	ldr	r3, [r7, #28]
 80010b4:	005b      	lsls	r3, r3, #1
 80010b6:	fa02 f303 	lsl.w	r3, r2, r3
 80010ba:	69ba      	ldr	r2, [r7, #24]
 80010bc:	4313      	orrs	r3, r2
 80010be:	61bb      	str	r3, [r7, #24]
        GPIOx->OSPEEDR = temp;
 80010c0:	687b      	ldr	r3, [r7, #4]
 80010c2:	69ba      	ldr	r2, [r7, #24]
 80010c4:	609a      	str	r2, [r3, #8]

        /* Configure the IO Output Type */
        temp = GPIOx->OTYPER;
 80010c6:	687b      	ldr	r3, [r7, #4]
 80010c8:	685b      	ldr	r3, [r3, #4]
 80010ca:	61bb      	str	r3, [r7, #24]
        temp &= ~(GPIO_OTYPER_OT_0 << position) ;
 80010cc:	2201      	movs	r2, #1
 80010ce:	69fb      	ldr	r3, [r7, #28]
 80010d0:	fa02 f303 	lsl.w	r3, r2, r3
 80010d4:	43db      	mvns	r3, r3
 80010d6:	69ba      	ldr	r2, [r7, #24]
 80010d8:	4013      	ands	r3, r2
 80010da:	61bb      	str	r3, [r7, #24]
        temp |= (((GPIO_Init->Mode & OUTPUT_TYPE) >> OUTPUT_TYPE_Pos) << position);
 80010dc:	683b      	ldr	r3, [r7, #0]
 80010de:	685b      	ldr	r3, [r3, #4]
 80010e0:	091b      	lsrs	r3, r3, #4
 80010e2:	f003 0201 	and.w	r2, r3, #1
 80010e6:	69fb      	ldr	r3, [r7, #28]
 80010e8:	fa02 f303 	lsl.w	r3, r2, r3
 80010ec:	69ba      	ldr	r2, [r7, #24]
 80010ee:	4313      	orrs	r3, r2
 80010f0:	61bb      	str	r3, [r7, #24]
        GPIOx->OTYPER = temp;
 80010f2:	687b      	ldr	r3, [r7, #4]
 80010f4:	69ba      	ldr	r2, [r7, #24]
 80010f6:	605a      	str	r2, [r3, #4]
       }

      if((GPIO_Init->Mode & GPIO_MODE) != MODE_ANALOG)
 80010f8:	683b      	ldr	r3, [r7, #0]
 80010fa:	685b      	ldr	r3, [r3, #4]
 80010fc:	f003 0303 	and.w	r3, r3, #3
 8001100:	2b03      	cmp	r3, #3
 8001102:	d017      	beq.n	8001134 <HAL_GPIO_Init+0xf0>
      {
        /* Check the parameters */
        assert_param(IS_GPIO_PULL(GPIO_Init->Pull));
        
        /* Activate the Pull-up or Pull down resistor for the current IO */
        temp = GPIOx->PUPDR;
 8001104:	687b      	ldr	r3, [r7, #4]
 8001106:	68db      	ldr	r3, [r3, #12]
 8001108:	61bb      	str	r3, [r7, #24]
        temp &= ~(GPIO_PUPDR_PUPDR0 << (position * 2U));
 800110a:	69fb      	ldr	r3, [r7, #28]
 800110c:	005b      	lsls	r3, r3, #1
 800110e:	2203      	movs	r2, #3
 8001110:	fa02 f303 	lsl.w	r3, r2, r3
 8001114:	43db      	mvns	r3, r3
 8001116:	69ba      	ldr	r2, [r7, #24]
 8001118:	4013      	ands	r3, r2
 800111a:	61bb      	str	r3, [r7, #24]
        temp |= ((GPIO_Init->Pull) << (position * 2U));
 800111c:	683b      	ldr	r3, [r7, #0]
 800111e:	689a      	ldr	r2, [r3, #8]
 8001120:	69fb      	ldr	r3, [r7, #28]
 8001122:	005b      	lsls	r3, r3, #1
 8001124:	fa02 f303 	lsl.w	r3, r2, r3
 8001128:	69ba      	ldr	r2, [r7, #24]
 800112a:	4313      	orrs	r3, r2
 800112c:	61bb      	str	r3, [r7, #24]
        GPIOx->PUPDR = temp;
 800112e:	687b      	ldr	r3, [r7, #4]
 8001130:	69ba      	ldr	r2, [r7, #24]
 8001132:	60da      	str	r2, [r3, #12]
      }

      /* In case of Alternate function mode selection */
      if((GPIO_Init->Mode & GPIO_MODE) == MODE_AF)
 8001134:	683b      	ldr	r3, [r7, #0]
 8001136:	685b      	ldr	r3, [r3, #4]
 8001138:	f003 0303 	and.w	r3, r3, #3
 800113c:	2b02      	cmp	r3, #2
 800113e:	d123      	bne.n	8001188 <HAL_GPIO_Init+0x144>
      {
        /* Check the Alternate function parameter */
        assert_param(IS_GPIO_AF(GPIO_Init->Alternate));
        /* Configure Alternate function mapped with the current IO */
        temp = GPIOx->AFR[position >> 3U];
 8001140:	69fb      	ldr	r3, [r7, #28]
 8001142:	08da      	lsrs	r2, r3, #3
 8001144:	687b      	ldr	r3, [r7, #4]
 8001146:	3208      	adds	r2, #8
 8001148:	f853 3022 	ldr.w	r3, [r3, r2, lsl #2]
 800114c:	61bb      	str	r3, [r7, #24]
        temp &= ~(0xFU << ((uint32_t)(position & 0x07U) * 4U)) ;
 800114e:	69fb      	ldr	r3, [r7, #28]
 8001150:	f003 0307 	and.w	r3, r3, #7
 8001154:	009b      	lsls	r3, r3, #2
 8001156:	220f      	movs	r2, #15
 8001158:	fa02 f303 	lsl.w	r3, r2, r3
 800115c:	43db      	mvns	r3, r3
 800115e:	69ba      	ldr	r2, [r7, #24]
 8001160:	4013      	ands	r3, r2
 8001162:	61bb      	str	r3, [r7, #24]
        temp |= ((uint32_t)(GPIO_Init->Alternate) << (((uint32_t)position & 0x07U) * 4U));
 8001164:	683b      	ldr	r3, [r7, #0]
 8001166:	691a      	ldr	r2, [r3, #16]
 8001168:	69fb      	ldr	r3, [r7, #28]
 800116a:	f003 0307 	and.w	r3, r3, #7
 800116e:	009b      	lsls	r3, r3, #2
 8001170:	fa02 f303 	lsl.w	r3, r2, r3
 8001174:	69ba      	ldr	r2, [r7, #24]
 8001176:	4313      	orrs	r3, r2
 8001178:	61bb      	str	r3, [r7, #24]
        GPIOx->AFR[position >> 3U] = temp;
 800117a:	69fb      	ldr	r3, [r7, #28]
 800117c:	08da      	lsrs	r2, r3, #3
 800117e:	687b      	ldr	r3, [r7, #4]
 8001180:	3208      	adds	r2, #8
 8001182:	69b9      	ldr	r1, [r7, #24]
 8001184:	f843 1022 	str.w	r1, [r3, r2, lsl #2]
      }

      /* Configure IO Direction mode (Input, Output, Alternate or Analog) */
      temp = GPIOx->MODER;
 8001188:	687b      	ldr	r3, [r7, #4]
 800118a:	681b      	ldr	r3, [r3, #0]
 800118c:	61bb      	str	r3, [r7, #24]
      temp &= ~(GPIO_MODER_MODER0 << (position * 2U));
 800118e:	69fb      	ldr	r3, [r7, #28]
 8001190:	005b      	lsls	r3, r3, #1
 8001192:	2203      	movs	r2, #3
 8001194:	fa02 f303 	lsl.w	r3, r2, r3
 8001198:	43db      	mvns	r3, r3
 800119a:	69ba      	ldr	r2, [r7, #24]
 800119c:	4013      	ands	r3, r2
 800119e:	61bb      	str	r3, [r7, #24]
      temp |= ((GPIO_Init->Mode & GPIO_MODE) << (position * 2U));
 80011a0:	683b      	ldr	r3, [r7, #0]
 80011a2:	685b      	ldr	r3, [r3, #4]
 80011a4:	f003 0203 	and.w	r2, r3, #3
 80011a8:	69fb      	ldr	r3, [r7, #28]
 80011aa:	005b      	lsls	r3, r3, #1
 80011ac:	fa02 f303 	lsl.w	r3, r2, r3
 80011b0:	69ba      	ldr	r2, [r7, #24]
 80011b2:	4313      	orrs	r3, r2
 80011b4:	61bb      	str	r3, [r7, #24]
      GPIOx->MODER = temp;
 80011b6:	687b      	ldr	r3, [r7, #4]
 80011b8:	69ba      	ldr	r2, [r7, #24]
 80011ba:	601a      	str	r2, [r3, #0]

      /*--------------------- EXTI Mode Configuration ------------------------*/
      /* Configure the External Interrupt or event for the current IO */
      if((GPIO_Init->Mode & EXTI_MODE) != 0x00U)
 80011bc:	683b      	ldr	r3, [r7, #0]
 80011be:	685b      	ldr	r3, [r3, #4]
 80011c0:	f403 3340 	and.w	r3, r3, #196608	@ 0x30000
 80011c4:	2b00      	cmp	r3, #0
 80011c6:	f000 80b4 	beq.w	8001332 <HAL_GPIO_Init+0x2ee>
      {
        /* Enable SYSCFG Clock */
        __HAL_RCC_SYSCFG_CLK_ENABLE();
 80011ca:	2300      	movs	r3, #0
 80011cc:	60fb      	str	r3, [r7, #12]
 80011ce:	4b60      	ldr	r3, [pc, #384]	@ (8001350 <HAL_GPIO_Init+0x30c>)
 80011d0:	6c5b      	ldr	r3, [r3, #68]	@ 0x44
 80011d2:	4a5f      	ldr	r2, [pc, #380]	@ (8001350 <HAL_GPIO_Init+0x30c>)
 80011d4:	f443 4380 	orr.w	r3, r3, #16384	@ 0x4000
 80011d8:	6453      	str	r3, [r2, #68]	@ 0x44
 80011da:	4b5d      	ldr	r3, [pc, #372]	@ (8001350 <HAL_GPIO_Init+0x30c>)
 80011dc:	6c5b      	ldr	r3, [r3, #68]	@ 0x44
 80011de:	f403 4380 	and.w	r3, r3, #16384	@ 0x4000
 80011e2:	60fb      	str	r3, [r7, #12]
 80011e4:	68fb      	ldr	r3, [r7, #12]

        temp = SYSCFG->EXTICR[position >> 2U];
 80011e6:	4a5b      	ldr	r2, [pc, #364]	@ (8001354 <HAL_GPIO_Init+0x310>)
 80011e8:	69fb      	ldr	r3, [r7, #28]
 80011ea:	089b      	lsrs	r3, r3, #2
 80011ec:	3302      	adds	r3, #2
 80011ee:	f852 3023 	ldr.w	r3, [r2, r3, lsl #2]
 80011f2:	61bb      	str	r3, [r7, #24]
        temp &= ~(0x0FU << (4U * (position & 0x03U)));
 80011f4:	69fb      	ldr	r3, [r7, #28]
 80011f6:	f003 0303 	and.w	r3, r3, #3
 80011fa:	009b      	lsls	r3, r3, #2
 80011fc:	220f      	movs	r2, #15
 80011fe:	fa02 f303 	lsl.w	r3, r2, r3
 8001202:	43db      	mvns	r3, r3
 8001204:	69ba      	ldr	r2, [r7, #24]
 8001206:	4013      	ands	r3, r2
 8001208:	61bb      	str	r3, [r7, #24]
        temp |= ((uint32_t)(GPIO_GET_INDEX(GPIOx)) << (4U * (position & 0x03U)));
 800120a:	687b      	ldr	r3, [r7, #4]
 800120c:	4a52      	ldr	r2, [pc, #328]	@ (8001358 <HAL_GPIO_Init+0x314>)
 800120e:	4293      	cmp	r3, r2
 8001210:	d02b      	beq.n	800126a <HAL_GPIO_Init+0x226>
 8001212:	687b      	ldr	r3, [r7, #4]
 8001214:	4a51      	ldr	r2, [pc, #324]	@ (800135c <HAL_GPIO_Init+0x318>)
 8001216:	4293      	cmp	r3, r2
 8001218:	d025      	beq.n	8001266 <HAL_GPIO_Init+0x222>
 800121a:	687b      	ldr	r3, [r7, #4]
 800121c:	4a50      	ldr	r2, [pc, #320]	@ (8001360 <HAL_GPIO_Init+0x31c>)
 800121e:	4293      	cmp	r3, r2
 8001220:	d01f      	beq.n	8001262 <HAL_GPIO_Init+0x21e>
 8001222:	687b      	ldr	r3, [r7, #4]
 8001224:	4a4f      	ldr	r2, [pc, #316]	@ (8001364 <HAL_GPIO_Init+0x320>)
 8001226:	4293      	cmp	r3, r2
 8001228:	d019      	beq.n	800125e <HAL_GPIO_Init+0x21a>
 800122a:	687b      	ldr	r3, [r7, #4]
 800122c:	4a4e      	ldr	r2, [pc, #312]	@ (8001368 <HAL_GPIO_Init+0x324>)
 800122e:	4293      	cmp	r3, r2
 8001230:	d013      	beq.n	800125a <HAL_GPIO_Init+0x216>
 8001232:	687b      	ldr	r3, [r7, #4]
 8001234:	4a4d      	ldr	r2, [pc, #308]	@ (800136c <HAL_GPIO_Init+0x328>)
 8001236:	4293      	cmp	r3, r2
 8001238:	d00d      	beq.n	8001256 <HAL_GPIO_Init+0x212>
 800123a:	687b      	ldr	r3, [r7, #4]
 800123c:	4a4c      	ldr	r2, [pc, #304]	@ (8001370 <HAL_GPIO_Init+0x32c>)
 800123e:	4293      	cmp	r3, r2
 8001240:	d007      	beq.n	8001252 <HAL_GPIO_Init+0x20e>
 8001242:	687b      	ldr	r3, [r7, #4]
 8001244:	4a4b      	ldr	r2, [pc, #300]	@ (8001374 <HAL_GPIO_Init+0x330>)
 8001246:	4293      	cmp	r3, r2
 8001248:	d101      	bne.n	800124e <HAL_GPIO_Init+0x20a>
 800124a:	2307      	movs	r3, #7
 800124c:	e00e      	b.n	800126c <HAL_GPIO_Init+0x228>
 800124e:	2308      	movs	r3, #8
 8001250:	e00c      	b.n	800126c <HAL_GPIO_Init+0x228>
 8001252:	2306      	movs	r3, #6
 8001254:	e00a      	b.n	800126c <HAL_GPIO_Init+0x228>
 8001256:	2305      	movs	r3, #5
 8001258:	e008      	b.n	800126c <HAL_GPIO_Init+0x228>
 800125a:	2304      	movs	r3, #4
 800125c:	e006      	b.n	800126c <HAL_GPIO_Init+0x228>
 800125e:	2303      	movs	r3, #3
 8001260:	e004      	b.n	800126c <HAL_GPIO_Init+0x228>
 8001262:	2302      	movs	r3, #2
 8001264:	e002      	b.n	800126c <HAL_GPIO_Init+0x228>
 8001266:	2301      	movs	r3, #1
 8001268:	e000      	b.n	800126c <HAL_GPIO_Init+0x228>
 800126a:	2300      	movs	r3, #0
 800126c:	69fa      	ldr	r2, [r7, #28]
 800126e:	f002 0203 	and.w	r2, r2, #3
 8001272:	0092      	lsls	r2, r2, #2
 8001274:	4093      	lsls	r3, r2
 8001276:	69ba      	ldr	r2, [r7, #24]
 8001278:	4313      	orrs	r3, r2
 800127a:	61bb      	str	r3, [r7, #24]
        SYSCFG->EXTICR[position >> 2U] = temp;
 800127c:	4935      	ldr	r1, [pc, #212]	@ (8001354 <HAL_GPIO_Init+0x310>)
 800127e:	69fb      	ldr	r3, [r7, #28]
 8001280:	089b      	lsrs	r3, r3, #2
 8001282:	3302      	adds	r3, #2
 8001284:	69ba      	ldr	r2, [r7, #24]
 8001286:	f841 2023 	str.w	r2, [r1, r3, lsl #2]

        /* Clear Rising Falling edge configuration */
        temp = EXTI->RTSR;
 800128a:	4b3b      	ldr	r3, [pc, #236]	@ (8001378 <HAL_GPIO_Init+0x334>)
 800128c:	689b      	ldr	r3, [r3, #8]
 800128e:	61bb      	str	r3, [r7, #24]
        temp &= ~((uint32_t)iocurrent);
 8001290:	693b      	ldr	r3, [r7, #16]
 8001292:	43db      	mvns	r3, r3
 8001294:	69ba      	ldr	r2, [r7, #24]
 8001296:	4013      	ands	r3, r2
 8001298:	61bb      	str	r3, [r7, #24]
        if((GPIO_Init->Mode & TRIGGER_RISING) != 0x00U)
 800129a:	683b      	ldr	r3, [r7, #0]
 800129c:	685b      	ldr	r3, [r3, #4]
 800129e:	f403 1380 	and.w	r3, r3, #1048576	@ 0x100000
 80012a2:	2b00      	cmp	r3, #0
 80012a4:	d003      	beq.n	80012ae <HAL_GPIO_Init+0x26a>
        {
          temp |= iocurrent;
 80012a6:	69ba      	ldr	r2, [r7, #24]
 80012a8:	693b      	ldr	r3, [r7, #16]
 80012aa:	4313      	orrs	r3, r2
 80012ac:	61bb      	str	r3, [r7, #24]
        }
        EXTI->RTSR = temp;
 80012ae:	4a32      	ldr	r2, [pc, #200]	@ (8001378 <HAL_GPIO_Init+0x334>)
 80012b0:	69bb      	ldr	r3, [r7, #24]
 80012b2:	6093      	str	r3, [r2, #8]

        temp = EXTI->FTSR;
 80012b4:	4b30      	ldr	r3, [pc, #192]	@ (8001378 <HAL_GPIO_Init+0x334>)
 80012b6:	68db      	ldr	r3, [r3, #12]
 80012b8:	61bb      	str	r3, [r7, #24]
        temp &= ~((uint32_t)iocurrent);
 80012ba:	693b      	ldr	r3, [r7, #16]
 80012bc:	43db      	mvns	r3, r3
 80012be:	69ba      	ldr	r2, [r7, #24]
 80012c0:	4013      	ands	r3, r2
 80012c2:	61bb      	str	r3, [r7, #24]
        if((GPIO_Init->Mode & TRIGGER_FALLING) != 0x00U)
 80012c4:	683b      	ldr	r3, [r7, #0]
 80012c6:	685b      	ldr	r3, [r3, #4]
 80012c8:	f403 1300 	and.w	r3, r3, #2097152	@ 0x200000
 80012cc:	2b00      	cmp	r3, #0
 80012ce:	d003      	beq.n	80012d8 <HAL_GPIO_Init+0x294>
        {
          temp |= iocurrent;
 80012d0:	69ba      	ldr	r2, [r7, #24]
 80012d2:	693b      	ldr	r3, [r7, #16]
 80012d4:	4313      	orrs	r3, r2
 80012d6:	61bb      	str	r3, [r7, #24]
        }
        EXTI->FTSR = temp;
 80012d8:	4a27      	ldr	r2, [pc, #156]	@ (8001378 <HAL_GPIO_Init+0x334>)
 80012da:	69bb      	ldr	r3, [r7, #24]
 80012dc:	60d3      	str	r3, [r2, #12]

        temp = EXTI->EMR;
 80012de:	4b26      	ldr	r3, [pc, #152]	@ (8001378 <HAL_GPIO_Init+0x334>)
 80012e0:	685b      	ldr	r3, [r3, #4]
 80012e2:	61bb      	str	r3, [r7, #24]
        temp &= ~((uint32_t)iocurrent);
 80012e4:	693b      	ldr	r3, [r7, #16]
 80012e6:	43db      	mvns	r3, r3
 80012e8:	69ba      	ldr	r2, [r7, #24]
 80012ea:	4013      	ands	r3, r2
 80012ec:	61bb      	str	r3, [r7, #24]
        if((GPIO_Init->Mode & EXTI_EVT) != 0x00U)
 80012ee:	683b      	ldr	r3, [r7, #0]
 80012f0:	685b      	ldr	r3, [r3, #4]
 80012f2:	f403 3300 	and.w	r3, r3, #131072	@ 0x20000
 80012f6:	2b00      	cmp	r3, #0
 80012f8:	d003      	beq.n	8001302 <HAL_GPIO_Init+0x2be>
        {
          temp |= iocurrent;
 80012fa:	69ba      	ldr	r2, [r7, #24]
 80012fc:	693b      	ldr	r3, [r7, #16]
 80012fe:	4313      	orrs	r3, r2
 8001300:	61bb      	str	r3, [r7, #24]
        }
        EXTI->EMR = temp;
 8001302:	4a1d      	ldr	r2, [pc, #116]	@ (8001378 <HAL_GPIO_Init+0x334>)
 8001304:	69bb      	ldr	r3, [r7, #24]
 8001306:	6053      	str	r3, [r2, #4]

        /* Clear EXTI line configuration */
        temp = EXTI->IMR;
 8001308:	4b1b      	ldr	r3, [pc, #108]	@ (8001378 <HAL_GPIO_Init+0x334>)
 800130a:	681b      	ldr	r3, [r3, #0]
 800130c:	61bb      	str	r3, [r7, #24]
        temp &= ~((uint32_t)iocurrent);
 800130e:	693b      	ldr	r3, [r7, #16]
 8001310:	43db      	mvns	r3, r3
 8001312:	69ba      	ldr	r2, [r7, #24]
 8001314:	4013      	ands	r3, r2
 8001316:	61bb      	str	r3, [r7, #24]
        if((GPIO_Init->Mode & EXTI_IT) != 0x00U)
 8001318:	683b      	ldr	r3, [r7, #0]
 800131a:	685b      	ldr	r3, [r3, #4]
 800131c:	f403 3380 	and.w	r3, r3, #65536	@ 0x10000
 8001320:	2b00      	cmp	r3, #0
 8001322:	d003      	beq.n	800132c <HAL_GPIO_Init+0x2e8>
        {
          temp |= iocurrent;
 8001324:	69ba      	ldr	r2, [r7, #24]
 8001326:	693b      	ldr	r3, [r7, #16]
 8001328:	4313      	orrs	r3, r2
 800132a:	61bb      	str	r3, [r7, #24]
        }
        EXTI->IMR = temp;
 800132c:	4a12      	ldr	r2, [pc, #72]	@ (8001378 <HAL_GPIO_Init+0x334>)
 800132e:	69bb      	ldr	r3, [r7, #24]
 8001330:	6013      	str	r3, [r2, #0]
  for(position = 0U; position < GPIO_NUMBER; position++)
 8001332:	69fb      	ldr	r3, [r7, #28]
 8001334:	3301      	adds	r3, #1
 8001336:	61fb      	str	r3, [r7, #28]
 8001338:	69fb      	ldr	r3, [r7, #28]
 800133a:	2b0f      	cmp	r3, #15
 800133c:	f67f ae90 	bls.w	8001060 <HAL_GPIO_Init+0x1c>
      }
    }
  }
}
 8001340:	bf00      	nop
 8001342:	bf00      	nop
 8001344:	3724      	adds	r7, #36	@ 0x24
 8001346:	46bd      	mov	sp, r7
 8001348:	f85d 7b04 	ldr.w	r7, [sp], #4
 800134c:	4770      	bx	lr
 800134e:	bf00      	nop
 8001350:	40023800 	.word	0x40023800
 8001354:	40013800 	.word	0x40013800
 8001358:	40020000 	.word	0x40020000
 800135c:	40020400 	.word	0x40020400
 8001360:	40020800 	.word	0x40020800
 8001364:	40020c00 	.word	0x40020c00
 8001368:	40021000 	.word	0x40021000
 800136c:	40021400 	.word	0x40021400
 8001370:	40021800 	.word	0x40021800
 8001374:	40021c00 	.word	0x40021c00
 8001378:	40013c00 	.word	0x40013c00

0800137c <HAL_GPIO_ReadPin>:
  * @param  GPIO_Pin specifies the port bit to read.
  *         This parameter can be GPIO_PIN_x where x can be (0..15).
  * @retval The input port pin value.
  */
GPIO_PinState HAL_GPIO_ReadPin(GPIO_TypeDef* GPIOx, uint16_t GPIO_Pin)
{
 800137c:	b480      	push	{r7}
 800137e:	b085      	sub	sp, #20
 8001380:	af00      	add	r7, sp, #0
 8001382:	6078      	str	r0, [r7, #4]
 8001384:	460b      	mov	r3, r1
 8001386:	807b      	strh	r3, [r7, #2]
  GPIO_PinState bitstatus;

  /* Check the parameters */
  assert_param(IS_GPIO_PIN(GPIO_Pin));

  if((GPIOx->IDR & GPIO_Pin) != (uint32_t)GPIO_PIN_RESET)
 8001388:	687b      	ldr	r3, [r7, #4]
 800138a:	691a      	ldr	r2, [r3, #16]
 800138c:	887b      	ldrh	r3, [r7, #2]
 800138e:	4013      	ands	r3, r2
 8001390:	2b00      	cmp	r3, #0
 8001392:	d002      	beq.n	800139a <HAL_GPIO_ReadPin+0x1e>
  {
    bitstatus = GPIO_PIN_SET;
 8001394:	2301      	movs	r3, #1
 8001396:	73fb      	strb	r3, [r7, #15]
 8001398:	e001      	b.n	800139e <HAL_GPIO_ReadPin+0x22>
  }
  else
  {
    bitstatus = GPIO_PIN_RESET;
 800139a:	2300      	movs	r3, #0
 800139c:	73fb      	strb	r3, [r7, #15]
  }
  return bitstatus;
 800139e:	7bfb      	ldrb	r3, [r7, #15]
}
 80013a0:	4618      	mov	r0, r3
 80013a2:	3714      	adds	r7, #20
 80013a4:	46bd      	mov	sp, r7
 80013a6:	f85d 7b04 	ldr.w	r7, [sp], #4
 80013aa:	4770      	bx	lr

080013ac <HAL_GPIO_WritePin>:
  *            @arg GPIO_PIN_RESET: to clear the port pin
  *            @arg GPIO_PIN_SET: to set the port pin
  * @retval None
  */
void HAL_GPIO_WritePin(GPIO_TypeDef* GPIOx, uint16_t GPIO_Pin, GPIO_PinState PinState)
{
 80013ac:	b480      	push	{r7}
 80013ae:	b083      	sub	sp, #12
 80013b0:	af00      	add	r7, sp, #0
 80013b2:	6078      	str	r0, [r7, #4]
 80013b4:	460b      	mov	r3, r1
 80013b6:	807b      	strh	r3, [r7, #2]
 80013b8:	4613      	mov	r3, r2
 80013ba:	707b      	strb	r3, [r7, #1]
  /* Check the parameters */
  assert_param(IS_GPIO_PIN(GPIO_Pin));
  assert_param(IS_GPIO_PIN_ACTION(PinState));

  if(PinState != GPIO_PIN_RESET)
 80013bc:	787b      	ldrb	r3, [r7, #1]
 80013be:	2b00      	cmp	r3, #0
 80013c0:	d003      	beq.n	80013ca <HAL_GPIO_WritePin+0x1e>
  {
    GPIOx->BSRR = GPIO_Pin;
 80013c2:	887a      	ldrh	r2, [r7, #2]
 80013c4:	687b      	ldr	r3, [r7, #4]
 80013c6:	619a      	str	r2, [r3, #24]
  }
  else
  {
    GPIOx->BSRR = (uint32_t)GPIO_Pin << 16U;
  }
}
 80013c8:	e003      	b.n	80013d2 <HAL_GPIO_WritePin+0x26>
    GPIOx->BSRR = (uint32_t)GPIO_Pin << 16U;
 80013ca:	887b      	ldrh	r3, [r7, #2]
 80013cc:	041a      	lsls	r2, r3, #16
 80013ce:	687b      	ldr	r3, [r7, #4]
 80013d0:	619a      	str	r2, [r3, #24]
}
 80013d2:	bf00      	nop
 80013d4:	370c      	adds	r7, #12
 80013d6:	46bd      	mov	sp, r7
 80013d8:	f85d 7b04 	ldr.w	r7, [sp], #4
 80013dc:	4770      	bx	lr

080013de <HAL_GPIO_TogglePin>:
  *                      x can be (A..I) to select the GPIO peripheral for STM32F40XX and STM32F427X devices.
  * @param  GPIO_Pin Specifies the pins to be toggled.
  * @retval None
  */
void HAL_GPIO_TogglePin(GPIO_TypeDef* GPIOx, uint16_t GPIO_Pin)
{
 80013de:	b480      	push	{r7}
 80013e0:	b085      	sub	sp, #20
 80013e2:	af00      	add	r7, sp, #0
 80013e4:	6078      	str	r0, [r7, #4]
 80013e6:	460b      	mov	r3, r1
 80013e8:	807b      	strh	r3, [r7, #2]

  /* Check the parameters */
  assert_param(IS_GPIO_PIN(GPIO_Pin));

  /* get current Output Data Register value */
  odr = GPIOx->ODR;
 80013ea:	687b      	ldr	r3, [r7, #4]
 80013ec:	695b      	ldr	r3, [r3, #20]
 80013ee:	60fb      	str	r3, [r7, #12]

  /* Set selected pins that were at low level, and reset ones that were high */
  GPIOx->BSRR = ((odr & GPIO_Pin) << GPIO_NUMBER) | (~odr & GPIO_Pin);
 80013f0:	887a      	ldrh	r2, [r7, #2]
 80013f2:	68fb      	ldr	r3, [r7, #12]
 80013f4:	4013      	ands	r3, r2
 80013f6:	041a      	lsls	r2, r3, #16
 80013f8:	68fb      	ldr	r3, [r7, #12]
 80013fa:	43d9      	mvns	r1, r3
 80013fc:	887b      	ldrh	r3, [r7, #2]
 80013fe:	400b      	ands	r3, r1
 8001400:	431a      	orrs	r2, r3
 8001402:	687b      	ldr	r3, [r7, #4]
 8001404:	619a      	str	r2, [r3, #24]
}
 8001406:	bf00      	nop
 8001408:	3714      	adds	r7, #20
 800140a:	46bd      	mov	sp, r7
 800140c:	f85d 7b04 	ldr.w	r7, [sp], #4
 8001410:	4770      	bx	lr
	...

08001414 <HAL_RCC_OscConfig>:
  *         supported by this API. User should request a transition to HSE Off
  *         first and then HSE On or HSE Bypass.
  * @retval HAL status
  */
__weak HAL_StatusTypeDef HAL_RCC_OscConfig(const RCC_OscInitTypeDef  *RCC_OscInitStruct)
{
 8001414:	b580      	push	{r7, lr}
 8001416:	b086      	sub	sp, #24
 8001418:	af00      	add	r7, sp, #0
 800141a:	6078      	str	r0, [r7, #4]
  uint32_t tickstart;
  uint32_t pll_config;
  /* Check Null pointer */
  if (RCC_OscInitStruct == NULL)
 800141c:	687b      	ldr	r3, [r7, #4]
 800141e:	2b00      	cmp	r3, #0
 8001420:	d101      	bne.n	8001426 <HAL_RCC_OscConfig+0x12>
  {
    return HAL_ERROR;
 8001422:	2301      	movs	r3, #1
 8001424:	e267      	b.n	80018f6 <HAL_RCC_OscConfig+0x4e2>
  }

  /* Check the parameters */
  assert_param(IS_RCC_OSCILLATORTYPE(RCC_OscInitStruct->OscillatorType));
  /*------------------------------- HSE Configuration ------------------------*/
  if (((RCC_OscInitStruct->OscillatorType) & RCC_OSCILLATORTYPE_HSE) == RCC_OSCILLATORTYPE_HSE)
 8001426:	687b      	ldr	r3, [r7, #4]
 8001428:	681b      	ldr	r3, [r3, #0]
 800142a:	f003 0301 	and.w	r3, r3, #1
 800142e:	2b00      	cmp	r3, #0
 8001430:	d075      	beq.n	800151e <HAL_RCC_OscConfig+0x10a>
  {
    /* Check the parameters */
    assert_param(IS_RCC_HSE(RCC_OscInitStruct->HSEState));
    /* When the HSE is used as system clock or clock source for PLL in these cases HSE will not disabled */
    if ((__HAL_RCC_GET_SYSCLK_SOURCE() == RCC_CFGR_SWS_HSE) || \
 8001432:	4b88      	ldr	r3, [pc, #544]	@ (8001654 <HAL_RCC_OscConfig+0x240>)
 8001434:	689b      	ldr	r3, [r3, #8]
 8001436:	f003 030c 	and.w	r3, r3, #12
 800143a:	2b04      	cmp	r3, #4
 800143c:	d00c      	beq.n	8001458 <HAL_RCC_OscConfig+0x44>
        ((__HAL_RCC_GET_SYSCLK_SOURCE() == RCC_CFGR_SWS_PLL) && ((RCC->PLLCFGR & RCC_PLLCFGR_PLLSRC) == RCC_PLLCFGR_PLLSRC_HSE)))
 800143e:	4b85      	ldr	r3, [pc, #532]	@ (8001654 <HAL_RCC_OscConfig+0x240>)
 8001440:	689b      	ldr	r3, [r3, #8]
 8001442:	f003 030c 	and.w	r3, r3, #12
    if ((__HAL_RCC_GET_SYSCLK_SOURCE() == RCC_CFGR_SWS_HSE) || \
 8001446:	2b08      	cmp	r3, #8
 8001448:	d112      	bne.n	8001470 <HAL_RCC_OscConfig+0x5c>
        ((__HAL_RCC_GET_SYSCLK_SOURCE() == RCC_CFGR_SWS_PLL) && ((RCC->PLLCFGR & RCC_PLLCFGR_PLLSRC) == RCC_PLLCFGR_PLLSRC_HSE)))
 800144a:	4b82      	ldr	r3, [pc, #520]	@ (8001654 <HAL_RCC_OscConfig+0x240>)
 800144c:	685b      	ldr	r3, [r3, #4]
 800144e:	f403 0380 	and.w	r3, r3, #4194304	@ 0x400000
 8001452:	f5b3 0f80 	cmp.w	r3, #4194304	@ 0x400000
 8001456:	d10b      	bne.n	8001470 <HAL_RCC_OscConfig+0x5c>
    {
      if ((__HAL_RCC_GET_FLAG(RCC_FLAG_HSERDY) != RESET) && (RCC_OscInitStruct->HSEState == RCC_HSE_OFF))
 8001458:	4b7e      	ldr	r3, [pc, #504]	@ (8001654 <HAL_RCC_OscConfig+0x240>)
 800145a:	681b      	ldr	r3, [r3, #0]
 800145c:	f403 3300 	and.w	r3, r3, #131072	@ 0x20000
 8001460:	2b00      	cmp	r3, #0
 8001462:	d05b      	beq.n	800151c <HAL_RCC_OscConfig+0x108>
 8001464:	687b      	ldr	r3, [r7, #4]
 8001466:	685b      	ldr	r3, [r3, #4]
 8001468:	2b00      	cmp	r3, #0
 800146a:	d157      	bne.n	800151c <HAL_RCC_OscConfig+0x108>
      {
        return HAL_ERROR;
 800146c:	2301      	movs	r3, #1
 800146e:	e242      	b.n	80018f6 <HAL_RCC_OscConfig+0x4e2>
      }
    }
    else
    {
      /* Set the new HSE configuration ---------------------------------------*/
      __HAL_RCC_HSE_CONFIG(RCC_OscInitStruct->HSEState);
 8001470:	687b      	ldr	r3, [r7, #4]
 8001472:	685b      	ldr	r3, [r3, #4]
 8001474:	f5b3 3f80 	cmp.w	r3, #65536	@ 0x10000
 8001478:	d106      	bne.n	8001488 <HAL_RCC_OscConfig+0x74>
 800147a:	4b76      	ldr	r3, [pc, #472]	@ (8001654 <HAL_RCC_OscConfig+0x240>)
 800147c:	681b      	ldr	r3, [r3, #0]
 800147e:	4a75      	ldr	r2, [pc, #468]	@ (8001654 <HAL_RCC_OscConfig+0x240>)
 8001480:	f443 3380 	orr.w	r3, r3, #65536	@ 0x10000
 8001484:	6013      	str	r3, [r2, #0]
 8001486:	e01d      	b.n	80014c4 <HAL_RCC_OscConfig+0xb0>
 8001488:	687b      	ldr	r3, [r7, #4]
 800148a:	685b      	ldr	r3, [r3, #4]
 800148c:	f5b3 2fa0 	cmp.w	r3, #327680	@ 0x50000
 8001490:	d10c      	bne.n	80014ac <HAL_RCC_OscConfig+0x98>
 8001492:	4b70      	ldr	r3, [pc, #448]	@ (8001654 <HAL_RCC_OscConfig+0x240>)
 8001494:	681b      	ldr	r3, [r3, #0]
 8001496:	4a6f      	ldr	r2, [pc, #444]	@ (8001654 <HAL_RCC_OscConfig+0x240>)
 8001498:	f443 2380 	orr.w	r3, r3, #262144	@ 0x40000
 800149c:	6013      	str	r3, [r2, #0]
 800149e:	4b6d      	ldr	r3, [pc, #436]	@ (8001654 <HAL_RCC_OscConfig+0x240>)
 80014a0:	681b      	ldr	r3, [r3, #0]
 80014a2:	4a6c      	ldr	r2, [pc, #432]	@ (8001654 <HAL_RCC_OscConfig+0x240>)
 80014a4:	f443 3380 	orr.w	r3, r3, #65536	@ 0x10000
 80014a8:	6013      	str	r3, [r2, #0]
 80014aa:	e00b      	b.n	80014c4 <HAL_RCC_OscConfig+0xb0>
 80014ac:	4b69      	ldr	r3, [pc, #420]	@ (8001654 <HAL_RCC_OscConfig+0x240>)
 80014ae:	681b      	ldr	r3, [r3, #0]
 80014b0:	4a68      	ldr	r2, [pc, #416]	@ (8001654 <HAL_RCC_OscConfig+0x240>)
 80014b2:	f423 3380 	bic.w	r3, r3, #65536	@ 0x10000
 80014b6:	6013      	str	r3, [r2, #0]
 80014b8:	4b66      	ldr	r3, [pc, #408]	@ (8001654 <HAL_RCC_OscConfig+0x240>)
 80014ba:	681b      	ldr	r3, [r3, #0]
 80014bc:	4a65      	ldr	r2, [pc, #404]	@ (8001654 <HAL_RCC_OscConfig+0x240>)
 80014be:	f423 2380 	bic.w	r3, r3, #262144	@ 0x40000
 80014c2:	6013      	str	r3, [r2, #0]

      /* Check the HSE State */
      if ((RCC_OscInitStruct->HSEState) != RCC_HSE_OFF)
 80014c4:	687b      	ldr	r3, [r7, #4]
 80014c6:	685b      	ldr	r3, [r3, #4]
 80014c8:	2b00      	cmp	r3, #0
 80014ca:	d013      	beq.n	80014f4 <HAL_RCC_OscConfig+0xe0>
      {
        /* Get Start Tick */
        tickstart = HAL_GetTick();
 80014cc:	f7ff fccc 	bl	8000e68 <HAL_GetTick>
 80014d0:	6138      	str	r0, [r7, #16]

        /* Wait till HSE is ready */
        while (__HAL_RCC_GET_FLAG(RCC_FLAG_HSERDY) == RESET)
 80014d2:	e008      	b.n	80014e6 <HAL_RCC_OscConfig+0xd2>
        {
          if ((HAL_GetTick() - tickstart) > HSE_TIMEOUT_VALUE)
 80014d4:	f7ff fcc8 	bl	8000e68 <HAL_GetTick>
 80014d8:	4602      	mov	r2, r0
 80014da:	693b      	ldr	r3, [r7, #16]
 80014dc:	1ad3      	subs	r3, r2, r3
 80014de:	2b64      	cmp	r3, #100	@ 0x64
 80014e0:	d901      	bls.n	80014e6 <HAL_RCC_OscConfig+0xd2>
          {
            return HAL_TIMEOUT;
 80014e2:	2303      	movs	r3, #3
 80014e4:	e207      	b.n	80018f6 <HAL_RCC_OscConfig+0x4e2>
        while (__HAL_RCC_GET_FLAG(RCC_FLAG_HSERDY) == RESET)
 80014e6:	4b5b      	ldr	r3, [pc, #364]	@ (8001654 <HAL_RCC_OscConfig+0x240>)
 80014e8:	681b      	ldr	r3, [r3, #0]
 80014ea:	f403 3300 	and.w	r3, r3, #131072	@ 0x20000
 80014ee:	2b00      	cmp	r3, #0
 80014f0:	d0f0      	beq.n	80014d4 <HAL_RCC_OscConfig+0xc0>
 80014f2:	e014      	b.n	800151e <HAL_RCC_OscConfig+0x10a>
        }
      }
      else
      {
        /* Get Start Tick */
        tickstart = HAL_GetTick();
 80014f4:	f7ff fcb8 	bl	8000e68 <HAL_GetTick>
 80014f8:	6138      	str	r0, [r7, #16]

        /* Wait till HSE is bypassed or disabled */
        while (__HAL_RCC_GET_FLAG(RCC_FLAG_HSERDY) != RESET)
 80014fa:	e008      	b.n	800150e <HAL_RCC_OscConfig+0xfa>
        {
          if ((HAL_GetTick() - tickstart) > HSE_TIMEOUT_VALUE)
 80014fc:	f7ff fcb4 	bl	8000e68 <HAL_GetTick>
 8001500:	4602      	mov	r2, r0
 8001502:	693b      	ldr	r3, [r7, #16]
 8001504:	1ad3      	subs	r3, r2, r3
 8001506:	2b64      	cmp	r3, #100	@ 0x64
 8001508:	d901      	bls.n	800150e <HAL_RCC_OscConfig+0xfa>
          {
            return HAL_TIMEOUT;
 800150a:	2303      	movs	r3, #3
 800150c:	e1f3      	b.n	80018f6 <HAL_RCC_OscConfig+0x4e2>
        while (__HAL_RCC_GET_FLAG(RCC_FLAG_HSERDY) != RESET)
 800150e:	4b51      	ldr	r3, [pc, #324]	@ (8001654 <HAL_RCC_OscConfig+0x240>)
 8001510:	681b      	ldr	r3, [r3, #0]
 8001512:	f403 3300 	and.w	r3, r3, #131072	@ 0x20000
 8001516:	2b00      	cmp	r3, #0
 8001518:	d1f0      	bne.n	80014fc <HAL_RCC_OscConfig+0xe8>
 800151a:	e000      	b.n	800151e <HAL_RCC_OscConfig+0x10a>
      if ((__HAL_RCC_GET_FLAG(RCC_FLAG_HSERDY) != RESET) && (RCC_OscInitStruct->HSEState == RCC_HSE_OFF))
 800151c:	bf00      	nop
        }
      }
    }
  }
  /*----------------------------- HSI Configuration --------------------------*/
  if (((RCC_OscInitStruct->OscillatorType) & RCC_OSCILLATORTYPE_HSI) == RCC_OSCILLATORTYPE_HSI)
 800151e:	687b      	ldr	r3, [r7, #4]
 8001520:	681b      	ldr	r3, [r3, #0]
 8001522:	f003 0302 	and.w	r3, r3, #2
 8001526:	2b00      	cmp	r3, #0
 8001528:	d063      	beq.n	80015f2 <HAL_RCC_OscConfig+0x1de>
    /* Check the parameters */
    assert_param(IS_RCC_HSI(RCC_OscInitStruct->HSIState));
    assert_param(IS_RCC_CALIBRATION_VALUE(RCC_OscInitStruct->HSICalibrationValue));

    /* Check if HSI is used as system clock or as PLL source when PLL is selected as system clock */
    if ((__HAL_RCC_GET_SYSCLK_SOURCE() == RCC_CFGR_SWS_HSI) || \
 800152a:	4b4a      	ldr	r3, [pc, #296]	@ (8001654 <HAL_RCC_OscConfig+0x240>)
 800152c:	689b      	ldr	r3, [r3, #8]
 800152e:	f003 030c 	and.w	r3, r3, #12
 8001532:	2b00      	cmp	r3, #0
 8001534:	d00b      	beq.n	800154e <HAL_RCC_OscConfig+0x13a>
        ((__HAL_RCC_GET_SYSCLK_SOURCE() == RCC_CFGR_SWS_PLL) && ((RCC->PLLCFGR & RCC_PLLCFGR_PLLSRC) == RCC_PLLCFGR_PLLSRC_HSI)))
 8001536:	4b47      	ldr	r3, [pc, #284]	@ (8001654 <HAL_RCC_OscConfig+0x240>)
 8001538:	689b      	ldr	r3, [r3, #8]
 800153a:	f003 030c 	and.w	r3, r3, #12
    if ((__HAL_RCC_GET_SYSCLK_SOURCE() == RCC_CFGR_SWS_HSI) || \
 800153e:	2b08      	cmp	r3, #8
 8001540:	d11c      	bne.n	800157c <HAL_RCC_OscConfig+0x168>
        ((__HAL_RCC_GET_SYSCLK_SOURCE() == RCC_CFGR_SWS_PLL) && ((RCC->PLLCFGR & RCC_PLLCFGR_PLLSRC) == RCC_PLLCFGR_PLLSRC_HSI)))
 8001542:	4b44      	ldr	r3, [pc, #272]	@ (8001654 <HAL_RCC_OscConfig+0x240>)
 8001544:	685b      	ldr	r3, [r3, #4]
 8001546:	f403 0380 	and.w	r3, r3, #4194304	@ 0x400000
 800154a:	2b00      	cmp	r3, #0
 800154c:	d116      	bne.n	800157c <HAL_RCC_OscConfig+0x168>
    {
      /* When HSI is used as system clock it will not disabled */
      if ((__HAL_RCC_GET_FLAG(RCC_FLAG_HSIRDY) != RESET) && (RCC_OscInitStruct->HSIState != RCC_HSI_ON))
 800154e:	4b41      	ldr	r3, [pc, #260]	@ (8001654 <HAL_RCC_OscConfig+0x240>)
 8001550:	681b      	ldr	r3, [r3, #0]
 8001552:	f003 0302 	and.w	r3, r3, #2
 8001556:	2b00      	cmp	r3, #0
 8001558:	d005      	beq.n	8001566 <HAL_RCC_OscConfig+0x152>
 800155a:	687b      	ldr	r3, [r7, #4]
 800155c:	68db      	ldr	r3, [r3, #12]
 800155e:	2b01      	cmp	r3, #1
 8001560:	d001      	beq.n	8001566 <HAL_RCC_OscConfig+0x152>
      {
        return HAL_ERROR;
 8001562:	2301      	movs	r3, #1
 8001564:	e1c7      	b.n	80018f6 <HAL_RCC_OscConfig+0x4e2>
      }
      /* Otherwise, just the calibration is allowed */
      else
      {
        /* Adjusts the Internal High Speed oscillator (HSI) calibration value.*/
        __HAL_RCC_HSI_CALIBRATIONVALUE_ADJUST(RCC_OscInitStruct->HSICalibrationValue);
 8001566:	4b3b      	ldr	r3, [pc, #236]	@ (8001654 <HAL_RCC_OscConfig+0x240>)
 8001568:	681b      	ldr	r3, [r3, #0]
 800156a:	f023 02f8 	bic.w	r2, r3, #248	@ 0xf8
 800156e:	687b      	ldr	r3, [r7, #4]
 8001570:	691b      	ldr	r3, [r3, #16]
 8001572:	00db      	lsls	r3, r3, #3
 8001574:	4937      	ldr	r1, [pc, #220]	@ (8001654 <HAL_RCC_OscConfig+0x240>)
 8001576:	4313      	orrs	r3, r2
 8001578:	600b      	str	r3, [r1, #0]
      if ((__HAL_RCC_GET_FLAG(RCC_FLAG_HSIRDY) != RESET) && (RCC_OscInitStruct->HSIState != RCC_HSI_ON))
 800157a:	e03a      	b.n	80015f2 <HAL_RCC_OscConfig+0x1de>
      }
    }
    else
    {
      /* Check the HSI State */
      if ((RCC_OscInitStruct->HSIState) != RCC_HSI_OFF)
 800157c:	687b      	ldr	r3, [r7, #4]
 800157e:	68db      	ldr	r3, [r3, #12]
 8001580:	2b00      	cmp	r3, #0
 8001582:	d020      	beq.n	80015c6 <HAL_RCC_OscConfig+0x1b2>
      {
        /* Enable the Internal High Speed oscillator (HSI). */
        __HAL_RCC_HSI_ENABLE();
 8001584:	4b34      	ldr	r3, [pc, #208]	@ (8001658 <HAL_RCC_OscConfig+0x244>)
 8001586:	2201      	movs	r2, #1
 8001588:	601a      	str	r2, [r3, #0]

        /* Get Start Tick*/
        tickstart = HAL_GetTick();
 800158a:	f7ff fc6d 	bl	8000e68 <HAL_GetTick>
 800158e:	6138      	str	r0, [r7, #16]

        /* Wait till HSI is ready */
        while (__HAL_RCC_GET_FLAG(RCC_FLAG_HSIRDY) == RESET)
 8001590:	e008      	b.n	80015a4 <HAL_RCC_OscConfig+0x190>
        {
          if ((HAL_GetTick() - tickstart) > HSI_TIMEOUT_VALUE)
 8001592:	f7ff fc69 	bl	8000e68 <HAL_GetTick>
 8001596:	4602      	mov	r2, r0
 8001598:	693b      	ldr	r3, [r7, #16]
 800159a:	1ad3      	subs	r3, r2, r3
 800159c:	2b02      	cmp	r3, #2
 800159e:	d901      	bls.n	80015a4 <HAL_RCC_OscConfig+0x190>
          {
            return HAL_TIMEOUT;
 80015a0:	2303      	movs	r3, #3
 80015a2:	e1a8      	b.n	80018f6 <HAL_RCC_OscConfig+0x4e2>
        while (__HAL_RCC_GET_FLAG(RCC_FLAG_HSIRDY) == RESET)
 80015a4:	4b2b      	ldr	r3, [pc, #172]	@ (8001654 <HAL_RCC_OscConfig+0x240>)
 80015a6:	681b      	ldr	r3, [r3, #0]
 80015a8:	f003 0302 	and.w	r3, r3, #2
 80015ac:	2b00      	cmp	r3, #0
 80015ae:	d0f0      	beq.n	8001592 <HAL_RCC_OscConfig+0x17e>
          }
        }

        /* Adjusts the Internal High Speed oscillator (HSI) calibration value. */
        __HAL_RCC_HSI_CALIBRATIONVALUE_ADJUST(RCC_OscInitStruct->HSICalibrationValue);
 80015b0:	4b28      	ldr	r3, [pc, #160]	@ (8001654 <HAL_RCC_OscConfig+0x240>)
 80015b2:	681b      	ldr	r3, [r3, #0]
 80015b4:	f023 02f8 	bic.w	r2, r3, #248	@ 0xf8
 80015b8:	687b      	ldr	r3, [r7, #4]
 80015ba:	691b      	ldr	r3, [r3, #16]
 80015bc:	00db      	lsls	r3, r3, #3
 80015be:	4925      	ldr	r1, [pc, #148]	@ (8001654 <HAL_RCC_OscConfig+0x240>)
 80015c0:	4313      	orrs	r3, r2
 80015c2:	600b      	str	r3, [r1, #0]
 80015c4:	e015      	b.n	80015f2 <HAL_RCC_OscConfig+0x1de>
      }
      else
      {
        /* Disable the Internal High Speed oscillator (HSI). */
        __HAL_RCC_HSI_DISABLE();
 80015c6:	4b24      	ldr	r3, [pc, #144]	@ (8001658 <HAL_RCC_OscConfig+0x244>)
 80015c8:	2200      	movs	r2, #0
 80015ca:	601a      	str	r2, [r3, #0]

        /* Get Start Tick*/
        tickstart = HAL_GetTick();
 80015cc:	f7ff fc4c 	bl	8000e68 <HAL_GetTick>
 80015d0:	6138      	str	r0, [r7, #16]

        /* Wait till HSI is ready */
        while (__HAL_RCC_GET_FLAG(RCC_FLAG_HSIRDY) != RESET)
 80015d2:	e008      	b.n	80015e6 <HAL_RCC_OscConfig+0x1d2>
        {
          if ((HAL_GetTick() - tickstart) > HSI_TIMEOUT_VALUE)
 80015d4:	f7ff fc48 	bl	8000e68 <HAL_GetTick>
 80015d8:	4602      	mov	r2, r0
 80015da:	693b      	ldr	r3, [r7, #16]
 80015dc:	1ad3      	subs	r3, r2, r3
 80015de:	2b02      	cmp	r3, #2
 80015e0:	d901      	bls.n	80015e6 <HAL_RCC_OscConfig+0x1d2>
          {
            return HAL_TIMEOUT;
 80015e2:	2303      	movs	r3, #3
 80015e4:	e187      	b.n	80018f6 <HAL_RCC_OscConfig+0x4e2>
        while (__HAL_RCC_GET_FLAG(RCC_FLAG_HSIRDY) != RESET)
 80015e6:	4b1b      	ldr	r3, [pc, #108]	@ (8001654 <HAL_RCC_OscConfig+0x240>)
 80015e8:	681b      	ldr	r3, [r3, #0]
 80015ea:	f003 0302 	and.w	r3, r3, #2
 80015ee:	2b00      	cmp	r3, #0
 80015f0:	d1f0      	bne.n	80015d4 <HAL_RCC_OscConfig+0x1c0>
        }
      }
    }
  }
  /*------------------------------ LSI Configuration -------------------------*/
  if (((RCC_OscInitStruct->OscillatorType) & RCC_OSCILLATORTYPE_LSI) == RCC_OSCILLATORTYPE_LSI)
 80015f2:	687b      	ldr	r3, [r7, #4]
 80015f4:	681b      	ldr	r3, [r3, #0]
 80015f6:	f003 0308 	and.w	r3, r3, #8
 80015fa:	2b00      	cmp	r3, #0
 80015fc:	d036      	beq.n	800166c <HAL_RCC_OscConfig+0x258>
  {
    /* Check the parameters */
    assert_param(IS_RCC_LSI(RCC_OscInitStruct->LSIState));

    /* Check the LSI State */
    if ((RCC_OscInitStruct->LSIState) != RCC_LSI_OFF)
 80015fe:	687b      	ldr	r3, [r7, #4]
 8001600:	695b      	ldr	r3, [r3, #20]
 8001602:	2b00      	cmp	r3, #0
 8001604:	d016      	beq.n	8001634 <HAL_RCC_OscConfig+0x220>
    {
      /* Enable the Internal Low Speed oscillator (LSI). */
      __HAL_RCC_LSI_ENABLE();
 8001606:	4b15      	ldr	r3, [pc, #84]	@ (800165c <HAL_RCC_OscConfig+0x248>)
 8001608:	2201      	movs	r2, #1
 800160a:	601a      	str	r2, [r3, #0]

      /* Get Start Tick*/
      tickstart = HAL_GetTick();
 800160c:	f7ff fc2c 	bl	8000e68 <HAL_GetTick>
 8001610:	6138      	str	r0, [r7, #16]

      /* Wait till LSI is ready */
      while (__HAL_RCC_GET_FLAG(RCC_FLAG_LSIRDY) == RESET)
 8001612:	e008      	b.n	8001626 <HAL_RCC_OscConfig+0x212>
      {
        if ((HAL_GetTick() - tickstart) > LSI_TIMEOUT_VALUE)
 8001614:	f7ff fc28 	bl	8000e68 <HAL_GetTick>
 8001618:	4602      	mov	r2, r0
 800161a:	693b      	ldr	r3, [r7, #16]
 800161c:	1ad3      	subs	r3, r2, r3
 800161e:	2b02      	cmp	r3, #2
 8001620:	d901      	bls.n	8001626 <HAL_RCC_OscConfig+0x212>
        {
          return HAL_TIMEOUT;
 8001622:	2303      	movs	r3, #3
 8001624:	e167      	b.n	80018f6 <HAL_RCC_OscConfig+0x4e2>
      while (__HAL_RCC_GET_FLAG(RCC_FLAG_LSIRDY) == RESET)
 8001626:	4b0b      	ldr	r3, [pc, #44]	@ (8001654 <HAL_RCC_OscConfig+0x240>)
 8001628:	6f5b      	ldr	r3, [r3, #116]	@ 0x74
 800162a:	f003 0302 	and.w	r3, r3, #2
 800162e:	2b00      	cmp	r3, #0
 8001630:	d0f0      	beq.n	8001614 <HAL_RCC_OscConfig+0x200>
 8001632:	e01b      	b.n	800166c <HAL_RCC_OscConfig+0x258>
      }
    }
    else
    {
      /* Disable the Internal Low Speed oscillator (LSI). */
      __HAL_RCC_LSI_DISABLE();
 8001634:	4b09      	ldr	r3, [pc, #36]	@ (800165c <HAL_RCC_OscConfig+0x248>)
 8001636:	2200      	movs	r2, #0
 8001638:	601a      	str	r2, [r3, #0]

      /* Get Start Tick */
      tickstart = HAL_GetTick();
 800163a:	f7ff fc15 	bl	8000e68 <HAL_GetTick>
 800163e:	6138      	str	r0, [r7, #16]

      /* Wait till LSI is ready */
      while (__HAL_RCC_GET_FLAG(RCC_FLAG_LSIRDY) != RESET)
 8001640:	e00e      	b.n	8001660 <HAL_RCC_OscConfig+0x24c>
      {
        if ((HAL_GetTick() - tickstart) > LSI_TIMEOUT_VALUE)
 8001642:	f7ff fc11 	bl	8000e68 <HAL_GetTick>
 8001646:	4602      	mov	r2, r0
 8001648:	693b      	ldr	r3, [r7, #16]
 800164a:	1ad3      	subs	r3, r2, r3
 800164c:	2b02      	cmp	r3, #2
 800164e:	d907      	bls.n	8001660 <HAL_RCC_OscConfig+0x24c>
        {
          return HAL_TIMEOUT;
 8001650:	2303      	movs	r3, #3
 8001652:	e150      	b.n	80018f6 <HAL_RCC_OscConfig+0x4e2>
 8001654:	40023800 	.word	0x40023800
 8001658:	42470000 	.word	0x42470000
 800165c:	42470e80 	.word	0x42470e80
      while (__HAL_RCC_GET_FLAG(RCC_FLAG_LSIRDY) != RESET)
 8001660:	4b88      	ldr	r3, [pc, #544]	@ (8001884 <HAL_RCC_OscConfig+0x470>)
 8001662:	6f5b      	ldr	r3, [r3, #116]	@ 0x74
 8001664:	f003 0302 	and.w	r3, r3, #2
 8001668:	2b00      	cmp	r3, #0
 800166a:	d1ea      	bne.n	8001642 <HAL_RCC_OscConfig+0x22e>
        }
      }
    }
  }
  /*------------------------------ LSE Configuration -------------------------*/
  if (((RCC_OscInitStruct->OscillatorType) & RCC_OSCILLATORTYPE_LSE) == RCC_OSCILLATORTYPE_LSE)
 800166c:	687b      	ldr	r3, [r7, #4]
 800166e:	681b      	ldr	r3, [r3, #0]
 8001670:	f003 0304 	and.w	r3, r3, #4
 8001674:	2b00      	cmp	r3, #0
 8001676:	f000 8097 	beq.w	80017a8 <HAL_RCC_OscConfig+0x394>
  {
    FlagStatus       pwrclkchanged = RESET;
 800167a:	2300      	movs	r3, #0
 800167c:	75fb      	strb	r3, [r7, #23]
    /* Check the parameters */
    assert_param(IS_RCC_LSE(RCC_OscInitStruct->LSEState));

    /* Update LSE configuration in Backup Domain control register    */
    /* Requires to enable write access to Backup Domain of necessary */
    if (__HAL_RCC_PWR_IS_CLK_DISABLED())
 800167e:	4b81      	ldr	r3, [pc, #516]	@ (8001884 <HAL_RCC_OscConfig+0x470>)
 8001680:	6c1b      	ldr	r3, [r3, #64]	@ 0x40
 8001682:	f003 5380 	and.w	r3, r3, #268435456	@ 0x10000000
 8001686:	2b00      	cmp	r3, #0
 8001688:	d10f      	bne.n	80016aa <HAL_RCC_OscConfig+0x296>
    {
      __HAL_RCC_PWR_CLK_ENABLE();
 800168a:	2300      	movs	r3, #0
 800168c:	60bb      	str	r3, [r7, #8]
 800168e:	4b7d      	ldr	r3, [pc, #500]	@ (8001884 <HAL_RCC_OscConfig+0x470>)
 8001690:	6c1b      	ldr	r3, [r3, #64]	@ 0x40
 8001692:	4a7c      	ldr	r2, [pc, #496]	@ (8001884 <HAL_RCC_OscConfig+0x470>)
 8001694:	f043 5380 	orr.w	r3, r3, #268435456	@ 0x10000000
 8001698:	6413      	str	r3, [r2, #64]	@ 0x40
 800169a:	4b7a      	ldr	r3, [pc, #488]	@ (8001884 <HAL_RCC_OscConfig+0x470>)
 800169c:	6c1b      	ldr	r3, [r3, #64]	@ 0x40
 800169e:	f003 5380 	and.w	r3, r3, #268435456	@ 0x10000000
 80016a2:	60bb      	str	r3, [r7, #8]
 80016a4:	68bb      	ldr	r3, [r7, #8]
      pwrclkchanged = SET;
 80016a6:	2301      	movs	r3, #1
 80016a8:	75fb      	strb	r3, [r7, #23]
    }

    if (HAL_IS_BIT_CLR(PWR->CR, PWR_CR_DBP))
 80016aa:	4b77      	ldr	r3, [pc, #476]	@ (8001888 <HAL_RCC_OscConfig+0x474>)
 80016ac:	681b      	ldr	r3, [r3, #0]
 80016ae:	f403 7380 	and.w	r3, r3, #256	@ 0x100
 80016b2:	2b00      	cmp	r3, #0
 80016b4:	d118      	bne.n	80016e8 <HAL_RCC_OscConfig+0x2d4>
    {
      /* Enable write access to Backup domain */
      SET_BIT(PWR->CR, PWR_CR_DBP);
 80016b6:	4b74      	ldr	r3, [pc, #464]	@ (8001888 <HAL_RCC_OscConfig+0x474>)
 80016b8:	681b      	ldr	r3, [r3, #0]
 80016ba:	4a73      	ldr	r2, [pc, #460]	@ (8001888 <HAL_RCC_OscConfig+0x474>)
 80016bc:	f443 7380 	orr.w	r3, r3, #256	@ 0x100
 80016c0:	6013      	str	r3, [r2, #0]

      /* Wait for Backup domain Write protection disable */
      tickstart = HAL_GetTick();
 80016c2:	f7ff fbd1 	bl	8000e68 <HAL_GetTick>
 80016c6:	6138      	str	r0, [r7, #16]

      while (HAL_IS_BIT_CLR(PWR->CR, PWR_CR_DBP))
 80016c8:	e008      	b.n	80016dc <HAL_RCC_OscConfig+0x2c8>
      {
        if ((HAL_GetTick() - tickstart) > RCC_DBP_TIMEOUT_VALUE)
 80016ca:	f7ff fbcd 	bl	8000e68 <HAL_GetTick>
 80016ce:	4602      	mov	r2, r0
 80016d0:	693b      	ldr	r3, [r7, #16]
 80016d2:	1ad3      	subs	r3, r2, r3
 80016d4:	2b02      	cmp	r3, #2
 80016d6:	d901      	bls.n	80016dc <HAL_RCC_OscConfig+0x2c8>
        {
          return HAL_TIMEOUT;
 80016d8:	2303      	movs	r3, #3
 80016da:	e10c      	b.n	80018f6 <HAL_RCC_OscConfig+0x4e2>
      while (HAL_IS_BIT_CLR(PWR->CR, PWR_CR_DBP))
 80016dc:	4b6a      	ldr	r3, [pc, #424]	@ (8001888 <HAL_RCC_OscConfig+0x474>)
 80016de:	681b      	ldr	r3, [r3, #0]
 80016e0:	f403 7380 	and.w	r3, r3, #256	@ 0x100
 80016e4:	2b00      	cmp	r3, #0
 80016e6:	d0f0      	beq.n	80016ca <HAL_RCC_OscConfig+0x2b6>
        }
      }
    }

    /* Set the new LSE configuration -----------------------------------------*/
    __HAL_RCC_LSE_CONFIG(RCC_OscInitStruct->LSEState);
 80016e8:	687b      	ldr	r3, [r7, #4]
 80016ea:	689b      	ldr	r3, [r3, #8]
 80016ec:	2b01      	cmp	r3, #1
 80016ee:	d106      	bne.n	80016fe <HAL_RCC_OscConfig+0x2ea>
 80016f0:	4b64      	ldr	r3, [pc, #400]	@ (8001884 <HAL_RCC_OscConfig+0x470>)
 80016f2:	6f1b      	ldr	r3, [r3, #112]	@ 0x70
 80016f4:	4a63      	ldr	r2, [pc, #396]	@ (8001884 <HAL_RCC_OscConfig+0x470>)
 80016f6:	f043 0301 	orr.w	r3, r3, #1
 80016fa:	6713      	str	r3, [r2, #112]	@ 0x70
 80016fc:	e01c      	b.n	8001738 <HAL_RCC_OscConfig+0x324>
 80016fe:	687b      	ldr	r3, [r7, #4]
 8001700:	689b      	ldr	r3, [r3, #8]
 8001702:	2b05      	cmp	r3, #5
 8001704:	d10c      	bne.n	8001720 <HAL_RCC_OscConfig+0x30c>
 8001706:	4b5f      	ldr	r3, [pc, #380]	@ (8001884 <HAL_RCC_OscConfig+0x470>)
 8001708:	6f1b      	ldr	r3, [r3, #112]	@ 0x70
 800170a:	4a5e      	ldr	r2, [pc, #376]	@ (8001884 <HAL_RCC_OscConfig+0x470>)
 800170c:	f043 0304 	orr.w	r3, r3, #4
 8001710:	6713      	str	r3, [r2, #112]	@ 0x70
 8001712:	4b5c      	ldr	r3, [pc, #368]	@ (8001884 <HAL_RCC_OscConfig+0x470>)
 8001714:	6f1b      	ldr	r3, [r3, #112]	@ 0x70
 8001716:	4a5b      	ldr	r2, [pc, #364]	@ (8001884 <HAL_RCC_OscConfig+0x470>)
 8001718:	f043 0301 	orr.w	r3, r3, #1
 800171c:	6713      	str	r3, [r2, #112]	@ 0x70
 800171e:	e00b      	b.n	8001738 <HAL_RCC_OscConfig+0x324>
 8001720:	4b58      	ldr	r3, [pc, #352]	@ (8001884 <HAL_RCC_OscConfig+0x470>)
 8001722:	6f1b      	ldr	r3, [r3, #112]	@ 0x70
 8001724:	4a57      	ldr	r2, [pc, #348]	@ (8001884 <HAL_RCC_OscConfig+0x470>)
 8001726:	f023 0301 	bic.w	r3, r3, #1
 800172a:	6713      	str	r3, [r2, #112]	@ 0x70
 800172c:	4b55      	ldr	r3, [pc, #340]	@ (8001884 <HAL_RCC_OscConfig+0x470>)
 800172e:	6f1b      	ldr	r3, [r3, #112]	@ 0x70
 8001730:	4a54      	ldr	r2, [pc, #336]	@ (8001884 <HAL_RCC_OscConfig+0x470>)
 8001732:	f023 0304 	bic.w	r3, r3, #4
 8001736:	6713      	str	r3, [r2, #112]	@ 0x70
    /* Check the LSE State */
    if ((RCC_OscInitStruct->LSEState) != RCC_LSE_OFF)
 8001738:	687b      	ldr	r3, [r7, #4]
 800173a:	689b      	ldr	r3, [r3, #8]
 800173c:	2b00      	cmp	r3, #0
 800173e:	d015      	beq.n	800176c <HAL_RCC_OscConfig+0x358>
    {
      /* Get Start Tick*/
      tickstart = HAL_GetTick();
 8001740:	f7ff fb92 	bl	8000e68 <HAL_GetTick>
 8001744:	6138      	str	r0, [r7, #16]

      /* Wait till LSE is ready */
      while (__HAL_RCC_GET_FLAG(RCC_FLAG_LSERDY) == RESET)
 8001746:	e00a      	b.n	800175e <HAL_RCC_OscConfig+0x34a>
      {
        if ((HAL_GetTick() - tickstart) > RCC_LSE_TIMEOUT_VALUE)
 8001748:	f7ff fb8e 	bl	8000e68 <HAL_GetTick>
 800174c:	4602      	mov	r2, r0
 800174e:	693b      	ldr	r3, [r7, #16]
 8001750:	1ad3      	subs	r3, r2, r3
 8001752:	f241 3288 	movw	r2, #5000	@ 0x1388
 8001756:	4293      	cmp	r3, r2
 8001758:	d901      	bls.n	800175e <HAL_RCC_OscConfig+0x34a>
        {
          return HAL_TIMEOUT;
 800175a:	2303      	movs	r3, #3
 800175c:	e0cb      	b.n	80018f6 <HAL_RCC_OscConfig+0x4e2>
      while (__HAL_RCC_GET_FLAG(RCC_FLAG_LSERDY) == RESET)
 800175e:	4b49      	ldr	r3, [pc, #292]	@ (8001884 <HAL_RCC_OscConfig+0x470>)
 8001760:	6f1b      	ldr	r3, [r3, #112]	@ 0x70
 8001762:	f003 0302 	and.w	r3, r3, #2
 8001766:	2b00      	cmp	r3, #0
 8001768:	d0ee      	beq.n	8001748 <HAL_RCC_OscConfig+0x334>
 800176a:	e014      	b.n	8001796 <HAL_RCC_OscConfig+0x382>
      }
    }
    else
    {
      /* Get Start Tick */
      tickstart = HAL_GetTick();
 800176c:	f7ff fb7c 	bl	8000e68 <HAL_GetTick>
 8001770:	6138      	str	r0, [r7, #16]

      /* Wait till LSE is ready */
      while (__HAL_RCC_GET_FLAG(RCC_FLAG_LSERDY) != RESET)
 8001772:	e00a      	b.n	800178a <HAL_RCC_OscConfig+0x376>
      {
        if ((HAL_GetTick() - tickstart) > RCC_LSE_TIMEOUT_VALUE)
 8001774:	f7ff fb78 	bl	8000e68 <HAL_GetTick>
 8001778:	4602      	mov	r2, r0
 800177a:	693b      	ldr	r3, [r7, #16]
 800177c:	1ad3      	subs	r3, r2, r3
 800177e:	f241 3288 	movw	r2, #5000	@ 0x1388
 8001782:	4293      	cmp	r3, r2
 8001784:	d901      	bls.n	800178a <HAL_RCC_OscConfig+0x376>
        {
          return HAL_TIMEOUT;
 8001786:	2303      	movs	r3, #3
 8001788:	e0b5      	b.n	80018f6 <HAL_RCC_OscConfig+0x4e2>
      while (__HAL_RCC_GET_FLAG(RCC_FLAG_LSERDY) != RESET)
 800178a:	4b3e      	ldr	r3, [pc, #248]	@ (8001884 <HAL_RCC_OscConfig+0x470>)
 800178c:	6f1b      	ldr	r3, [r3, #112]	@ 0x70
 800178e:	f003 0302 	and.w	r3, r3, #2
 8001792:	2b00      	cmp	r3, #0
 8001794:	d1ee      	bne.n	8001774 <HAL_RCC_OscConfig+0x360>
        }
      }
    }

    /* Restore clock configuration if changed */
    if (pwrclkchanged == SET)
 8001796:	7dfb      	ldrb	r3, [r7, #23]
 8001798:	2b01      	cmp	r3, #1
 800179a:	d105      	bne.n	80017a8 <HAL_RCC_OscConfig+0x394>
    {
      __HAL_RCC_PWR_CLK_DISABLE();
 800179c:	4b39      	ldr	r3, [pc, #228]	@ (8001884 <HAL_RCC_OscConfig+0x470>)
 800179e:	6c1b      	ldr	r3, [r3, #64]	@ 0x40
 80017a0:	4a38      	ldr	r2, [pc, #224]	@ (8001884 <HAL_RCC_OscConfig+0x470>)
 80017a2:	f023 5380 	bic.w	r3, r3, #268435456	@ 0x10000000
 80017a6:	6413      	str	r3, [r2, #64]	@ 0x40
    }
  }
  /*-------------------------------- PLL Configuration -----------------------*/
  /* Check the parameters */
  assert_param(IS_RCC_PLL(RCC_OscInitStruct->PLL.PLLState));
  if ((RCC_OscInitStruct->PLL.PLLState) != RCC_PLL_NONE)
 80017a8:	687b      	ldr	r3, [r7, #4]
 80017aa:	699b      	ldr	r3, [r3, #24]
 80017ac:	2b00      	cmp	r3, #0
 80017ae:	f000 80a1 	beq.w	80018f4 <HAL_RCC_OscConfig+0x4e0>
  {
    /* Check if the PLL is used as system clock or not */
    if (__HAL_RCC_GET_SYSCLK_SOURCE() != RCC_CFGR_SWS_PLL)
 80017b2:	4b34      	ldr	r3, [pc, #208]	@ (8001884 <HAL_RCC_OscConfig+0x470>)
 80017b4:	689b      	ldr	r3, [r3, #8]
 80017b6:	f003 030c 	and.w	r3, r3, #12
 80017ba:	2b08      	cmp	r3, #8
 80017bc:	d05c      	beq.n	8001878 <HAL_RCC_OscConfig+0x464>
    {
      if ((RCC_OscInitStruct->PLL.PLLState) == RCC_PLL_ON)
 80017be:	687b      	ldr	r3, [r7, #4]
 80017c0:	699b      	ldr	r3, [r3, #24]
 80017c2:	2b02      	cmp	r3, #2
 80017c4:	d141      	bne.n	800184a <HAL_RCC_OscConfig+0x436>
        assert_param(IS_RCC_PLLN_VALUE(RCC_OscInitStruct->PLL.PLLN));
        assert_param(IS_RCC_PLLP_VALUE(RCC_OscInitStruct->PLL.PLLP));
        assert_param(IS_RCC_PLLQ_VALUE(RCC_OscInitStruct->PLL.PLLQ));

        /* Disable the main PLL. */
        __HAL_RCC_PLL_DISABLE();
 80017c6:	4b31      	ldr	r3, [pc, #196]	@ (800188c <HAL_RCC_OscConfig+0x478>)
 80017c8:	2200      	movs	r2, #0
 80017ca:	601a      	str	r2, [r3, #0]

        /* Get Start Tick */
        tickstart = HAL_GetTick();
 80017cc:	f7ff fb4c 	bl	8000e68 <HAL_GetTick>
 80017d0:	6138      	str	r0, [r7, #16]

        /* Wait till PLL is disabled */
        while (__HAL_RCC_GET_FLAG(RCC_FLAG_PLLRDY) != RESET)
 80017d2:	e008      	b.n	80017e6 <HAL_RCC_OscConfig+0x3d2>
        {
          if ((HAL_GetTick() - tickstart) > PLL_TIMEOUT_VALUE)
 80017d4:	f7ff fb48 	bl	8000e68 <HAL_GetTick>
 80017d8:	4602      	mov	r2, r0
 80017da:	693b      	ldr	r3, [r7, #16]
 80017dc:	1ad3      	subs	r3, r2, r3
 80017de:	2b02      	cmp	r3, #2
 80017e0:	d901      	bls.n	80017e6 <HAL_RCC_OscConfig+0x3d2>
          {
            return HAL_TIMEOUT;
 80017e2:	2303      	movs	r3, #3
 80017e4:	e087      	b.n	80018f6 <HAL_RCC_OscConfig+0x4e2>
        while (__HAL_RCC_GET_FLAG(RCC_FLAG_PLLRDY) != RESET)
 80017e6:	4b27      	ldr	r3, [pc, #156]	@ (8001884 <HAL_RCC_OscConfig+0x470>)
 80017e8:	681b      	ldr	r3, [r3, #0]
 80017ea:	f003 7300 	and.w	r3, r3, #33554432	@ 0x2000000
 80017ee:	2b00      	cmp	r3, #0
 80017f0:	d1f0      	bne.n	80017d4 <HAL_RCC_OscConfig+0x3c0>
          }
        }

        /* Configure the main PLL clock source, multiplication and division factors. */
        WRITE_REG(RCC->PLLCFGR, (RCC_OscInitStruct->PLL.PLLSource                                            | \
 80017f2:	687b      	ldr	r3, [r7, #4]
 80017f4:	69da      	ldr	r2, [r3, #28]
 80017f6:	687b      	ldr	r3, [r7, #4]
 80017f8:	6a1b      	ldr	r3, [r3, #32]
 80017fa:	431a      	orrs	r2, r3
 80017fc:	687b      	ldr	r3, [r7, #4]
 80017fe:	6a5b      	ldr	r3, [r3, #36]	@ 0x24
 8001800:	019b      	lsls	r3, r3, #6
 8001802:	431a      	orrs	r2, r3
 8001804:	687b      	ldr	r3, [r7, #4]
 8001806:	6a9b      	ldr	r3, [r3, #40]	@ 0x28
 8001808:	085b      	lsrs	r3, r3, #1
 800180a:	3b01      	subs	r3, #1
 800180c:	041b      	lsls	r3, r3, #16
 800180e:	431a      	orrs	r2, r3
 8001810:	687b      	ldr	r3, [r7, #4]
 8001812:	6adb      	ldr	r3, [r3, #44]	@ 0x2c
 8001814:	061b      	lsls	r3, r3, #24
 8001816:	491b      	ldr	r1, [pc, #108]	@ (8001884 <HAL_RCC_OscConfig+0x470>)
 8001818:	4313      	orrs	r3, r2
 800181a:	604b      	str	r3, [r1, #4]
                                 RCC_OscInitStruct->PLL.PLLM                                                 | \
                                 (RCC_OscInitStruct->PLL.PLLN << RCC_PLLCFGR_PLLN_Pos)             | \
                                 (((RCC_OscInitStruct->PLL.PLLP >> 1U) - 1U) << RCC_PLLCFGR_PLLP_Pos) | \
                                 (RCC_OscInitStruct->PLL.PLLQ << RCC_PLLCFGR_PLLQ_Pos)));
        /* Enable the main PLL. */
        __HAL_RCC_PLL_ENABLE();
 800181c:	4b1b      	ldr	r3, [pc, #108]	@ (800188c <HAL_RCC_OscConfig+0x478>)
 800181e:	2201      	movs	r2, #1
 8001820:	601a      	str	r2, [r3, #0]

        /* Get Start Tick */
        tickstart = HAL_GetTick();
 8001822:	f7ff fb21 	bl	8000e68 <HAL_GetTick>
 8001826:	6138      	str	r0, [r7, #16]

        /* Wait till PLL is ready */
        while (__HAL_RCC_GET_FLAG(RCC_FLAG_PLLRDY) == RESET)
 8001828:	e008      	b.n	800183c <HAL_RCC_OscConfig+0x428>
        {
          if ((HAL_GetTick() - tickstart) > PLL_TIMEOUT_VALUE)
 800182a:	f7ff fb1d 	bl	8000e68 <HAL_GetTick>
 800182e:	4602      	mov	r2, r0
 8001830:	693b      	ldr	r3, [r7, #16]
 8001832:	1ad3      	subs	r3, r2, r3
 8001834:	2b02      	cmp	r3, #2
 8001836:	d901      	bls.n	800183c <HAL_RCC_OscConfig+0x428>
          {
            return HAL_TIMEOUT;
 8001838:	2303      	movs	r3, #3
 800183a:	e05c      	b.n	80018f6 <HAL_RCC_OscConfig+0x4e2>
        while (__HAL_RCC_GET_FLAG(RCC_FLAG_PLLRDY) == RESET)
 800183c:	4b11      	ldr	r3, [pc, #68]	@ (8001884 <HAL_RCC_OscConfig+0x470>)
 800183e:	681b      	ldr	r3, [r3, #0]
 8001840:	f003 7300 	and.w	r3, r3, #33554432	@ 0x2000000
 8001844:	2b00      	cmp	r3, #0
 8001846:	d0f0      	beq.n	800182a <HAL_RCC_OscConfig+0x416>
 8001848:	e054      	b.n	80018f4 <HAL_RCC_OscConfig+0x4e0>
        }
      }
      else
      {
        /* Disable the main PLL. */
        __HAL_RCC_PLL_DISABLE();
 800184a:	4b10      	ldr	r3, [pc, #64]	@ (800188c <HAL_RCC_OscConfig+0x478>)
 800184c:	2200      	movs	r2, #0
 800184e:	601a      	str	r2, [r3, #0]

        /* Get Start Tick */
        tickstart = HAL_GetTick();
 8001850:	f7ff fb0a 	bl	8000e68 <HAL_GetTick>
 8001854:	6138      	str	r0, [r7, #16]

        /* Wait till PLL is disabled */
        while (__HAL_RCC_GET_FLAG(RCC_FLAG_PLLRDY) != RESET)
 8001856:	e008      	b.n	800186a <HAL_RCC_OscConfig+0x456>
        {
          if ((HAL_GetTick() - tickstart) > PLL_TIMEOUT_VALUE)
 8001858:	f7ff fb06 	bl	8000e68 <HAL_GetTick>
 800185c:	4602      	mov	r2, r0
 800185e:	693b      	ldr	r3, [r7, #16]
 8001860:	1ad3      	subs	r3, r2, r3
 8001862:	2b02      	cmp	r3, #2
 8001864:	d901      	bls.n	800186a <HAL_RCC_OscConfig+0x456>
          {
            return HAL_TIMEOUT;
 8001866:	2303      	movs	r3, #3
 8001868:	e045      	b.n	80018f6 <HAL_RCC_OscConfig+0x4e2>
        while (__HAL_RCC_GET_FLAG(RCC_FLAG_PLLRDY) != RESET)
 800186a:	4b06      	ldr	r3, [pc, #24]	@ (8001884 <HAL_RCC_OscConfig+0x470>)
 800186c:	681b      	ldr	r3, [r3, #0]
 800186e:	f003 7300 	and.w	r3, r3, #33554432	@ 0x2000000
 8001872:	2b00      	cmp	r3, #0
 8001874:	d1f0      	bne.n	8001858 <HAL_RCC_OscConfig+0x444>
 8001876:	e03d      	b.n	80018f4 <HAL_RCC_OscConfig+0x4e0>
      }
    }
    else
    {
      /* Check if there is a request to disable the PLL used as System clock source */
      if ((RCC_OscInitStruct->PLL.PLLState) == RCC_PLL_OFF)
 8001878:	687b      	ldr	r3, [r7, #4]
 800187a:	699b      	ldr	r3, [r3, #24]
 800187c:	2b01      	cmp	r3, #1
 800187e:	d107      	bne.n	8001890 <HAL_RCC_OscConfig+0x47c>
      {
        return HAL_ERROR;
 8001880:	2301      	movs	r3, #1
 8001882:	e038      	b.n	80018f6 <HAL_RCC_OscConfig+0x4e2>
 8001884:	40023800 	.word	0x40023800
 8001888:	40007000 	.word	0x40007000
 800188c:	42470060 	.word	0x42470060
      }
      else
      {
        /* Do not return HAL_ERROR if request repeats the current configuration */
        pll_config = RCC->PLLCFGR;
 8001890:	4b1b      	ldr	r3, [pc, #108]	@ (8001900 <HAL_RCC_OscConfig+0x4ec>)
 8001892:	685b      	ldr	r3, [r3, #4]
 8001894:	60fb      	str	r3, [r7, #12]
            (READ_BIT(pll_config, RCC_PLLCFGR_PLLN) != (RCC_OscInitStruct->PLL.PLLN) << RCC_PLLCFGR_PLLN_Pos) ||
            (READ_BIT(pll_config, RCC_PLLCFGR_PLLP) != (((RCC_OscInitStruct->PLL.PLLP >> 1U) - 1U)) << RCC_PLLCFGR_PLLP_Pos) ||
            (READ_BIT(pll_config, RCC_PLLCFGR_PLLQ) != (RCC_OscInitStruct->PLL.PLLQ << RCC_PLLCFGR_PLLQ_Pos)) ||
            (READ_BIT(pll_config, RCC_PLLCFGR_PLLR) != (RCC_OscInitStruct->PLL.PLLR << RCC_PLLCFGR_PLLR_Pos)))
#else
        if (((RCC_OscInitStruct->PLL.PLLState) == RCC_PLL_OFF) ||
 8001896:	687b      	ldr	r3, [r7, #4]
 8001898:	699b      	ldr	r3, [r3, #24]
 800189a:	2b01      	cmp	r3, #1
 800189c:	d028      	beq.n	80018f0 <HAL_RCC_OscConfig+0x4dc>
            (READ_BIT(pll_config, RCC_PLLCFGR_PLLSRC) != RCC_OscInitStruct->PLL.PLLSource) ||
 800189e:	68fb      	ldr	r3, [r7, #12]
 80018a0:	f403 0280 	and.w	r2, r3, #4194304	@ 0x400000
 80018a4:	687b      	ldr	r3, [r7, #4]
 80018a6:	69db      	ldr	r3, [r3, #28]
        if (((RCC_OscInitStruct->PLL.PLLState) == RCC_PLL_OFF) ||
 80018a8:	429a      	cmp	r2, r3
 80018aa:	d121      	bne.n	80018f0 <HAL_RCC_OscConfig+0x4dc>
            (READ_BIT(pll_config, RCC_PLLCFGR_PLLM) != (RCC_OscInitStruct->PLL.PLLM) << RCC_PLLCFGR_PLLM_Pos) ||
 80018ac:	68fb      	ldr	r3, [r7, #12]
 80018ae:	f003 023f 	and.w	r2, r3, #63	@ 0x3f
 80018b2:	687b      	ldr	r3, [r7, #4]
 80018b4:	6a1b      	ldr	r3, [r3, #32]
            (READ_BIT(pll_config, RCC_PLLCFGR_PLLSRC) != RCC_OscInitStruct->PLL.PLLSource) ||
 80018b6:	429a      	cmp	r2, r3
 80018b8:	d11a      	bne.n	80018f0 <HAL_RCC_OscConfig+0x4dc>
            (READ_BIT(pll_config, RCC_PLLCFGR_PLLN) != (RCC_OscInitStruct->PLL.PLLN) << RCC_PLLCFGR_PLLN_Pos) ||
 80018ba:	68fa      	ldr	r2, [r7, #12]
 80018bc:	f647 73c0 	movw	r3, #32704	@ 0x7fc0
 80018c0:	4013      	ands	r3, r2
 80018c2:	687a      	ldr	r2, [r7, #4]
 80018c4:	6a52      	ldr	r2, [r2, #36]	@ 0x24
 80018c6:	0192      	lsls	r2, r2, #6
            (READ_BIT(pll_config, RCC_PLLCFGR_PLLM) != (RCC_OscInitStruct->PLL.PLLM) << RCC_PLLCFGR_PLLM_Pos) ||
 80018c8:	4293      	cmp	r3, r2
 80018ca:	d111      	bne.n	80018f0 <HAL_RCC_OscConfig+0x4dc>
            (READ_BIT(pll_config, RCC_PLLCFGR_PLLP) != (((RCC_OscInitStruct->PLL.PLLP >> 1U) - 1U)) << RCC_PLLCFGR_PLLP_Pos) ||
 80018cc:	68fb      	ldr	r3, [r7, #12]
 80018ce:	f403 3240 	and.w	r2, r3, #196608	@ 0x30000
 80018d2:	687b      	ldr	r3, [r7, #4]
 80018d4:	6a9b      	ldr	r3, [r3, #40]	@ 0x28
 80018d6:	085b      	lsrs	r3, r3, #1
 80018d8:	3b01      	subs	r3, #1
 80018da:	041b      	lsls	r3, r3, #16
            (READ_BIT(pll_config, RCC_PLLCFGR_PLLN) != (RCC_OscInitStruct->PLL.PLLN) << RCC_PLLCFGR_PLLN_Pos) ||
 80018dc:	429a      	cmp	r2, r3
 80018de:	d107      	bne.n	80018f0 <HAL_RCC_OscConfig+0x4dc>
            (READ_BIT(pll_config, RCC_PLLCFGR_PLLQ) != (RCC_OscInitStruct->PLL.PLLQ << RCC_PLLCFGR_PLLQ_Pos)))
 80018e0:	68fb      	ldr	r3, [r7, #12]
 80018e2:	f003 6270 	and.w	r2, r3, #251658240	@ 0xf000000
 80018e6:	687b      	ldr	r3, [r7, #4]
 80018e8:	6adb      	ldr	r3, [r3, #44]	@ 0x2c
 80018ea:	061b      	lsls	r3, r3, #24
            (READ_BIT(pll_config, RCC_PLLCFGR_PLLP) != (((RCC_OscInitStruct->PLL.PLLP >> 1U) - 1U)) << RCC_PLLCFGR_PLLP_Pos) ||
 80018ec:	429a      	cmp	r2, r3
 80018ee:	d001      	beq.n	80018f4 <HAL_RCC_OscConfig+0x4e0>
#endif /* RCC_PLLCFGR_PLLR */
        {
          return HAL_ERROR;
 80018f0:	2301      	movs	r3, #1
 80018f2:	e000      	b.n	80018f6 <HAL_RCC_OscConfig+0x4e2>
        }
      }
    }
  }
  return HAL_OK;
 80018f4:	2300      	movs	r3, #0
}
 80018f6:	4618      	mov	r0, r3
 80018f8:	3718      	adds	r7, #24
 80018fa:	46bd      	mov	sp, r7
 80018fc:	bd80      	pop	{r7, pc}
 80018fe:	bf00      	nop
 8001900:	40023800 	.word	0x40023800

08001904 <HAL_RCC_ClockConfig>:
  *         HPRE[3:0] bits to ensure that HCLK not exceed the maximum allowed frequency
  *         (for more details refer to section above "Initialization/de-initialization functions")
  * @retval None
  */
HAL_StatusTypeDef HAL_RCC_ClockConfig(const RCC_ClkInitTypeDef  *RCC_ClkInitStruct, uint32_t FLatency)
{
 8001904:	b580      	push	{r7, lr}
 8001906:	b084      	sub	sp, #16
 8001908:	af00      	add	r7, sp, #0
 800190a:	6078      	str	r0, [r7, #4]
 800190c:	6039      	str	r1, [r7, #0]
  uint32_t tickstart;

  /* Check Null pointer */
  if (RCC_ClkInitStruct == NULL)
 800190e:	687b      	ldr	r3, [r7, #4]
 8001910:	2b00      	cmp	r3, #0
 8001912:	d101      	bne.n	8001918 <HAL_RCC_ClockConfig+0x14>
  {
    return HAL_ERROR;
 8001914:	2301      	movs	r3, #1
 8001916:	e0cc      	b.n	8001ab2 <HAL_RCC_ClockConfig+0x1ae>
  /* To correctly read data from FLASH memory, the number of wait states (LATENCY)
    must be correctly programmed according to the frequency of the CPU clock
    (HCLK) and the supply voltage of the device. */

  /* Increasing the number of wait states because of higher CPU frequency */
  if (FLatency > __HAL_FLASH_GET_LATENCY())
 8001918:	4b68      	ldr	r3, [pc, #416]	@ (8001abc <HAL_RCC_ClockConfig+0x1b8>)
 800191a:	681b      	ldr	r3, [r3, #0]
 800191c:	f003 0307 	and.w	r3, r3, #7
 8001920:	683a      	ldr	r2, [r7, #0]
 8001922:	429a      	cmp	r2, r3
 8001924:	d90c      	bls.n	8001940 <HAL_RCC_ClockConfig+0x3c>
  {
    /* Program the new number of wait states to the LATENCY bits in the FLASH_ACR register */
    __HAL_FLASH_SET_LATENCY(FLatency);
 8001926:	4b65      	ldr	r3, [pc, #404]	@ (8001abc <HAL_RCC_ClockConfig+0x1b8>)
 8001928:	683a      	ldr	r2, [r7, #0]
 800192a:	b2d2      	uxtb	r2, r2
 800192c:	701a      	strb	r2, [r3, #0]

    /* Check that the new number of wait states is taken into account to access the Flash
    memory by reading the FLASH_ACR register */
    if (__HAL_FLASH_GET_LATENCY() != FLatency)
 800192e:	4b63      	ldr	r3, [pc, #396]	@ (8001abc <HAL_RCC_ClockConfig+0x1b8>)
 8001930:	681b      	ldr	r3, [r3, #0]
 8001932:	f003 0307 	and.w	r3, r3, #7
 8001936:	683a      	ldr	r2, [r7, #0]
 8001938:	429a      	cmp	r2, r3
 800193a:	d001      	beq.n	8001940 <HAL_RCC_ClockConfig+0x3c>
    {
      return HAL_ERROR;
 800193c:	2301      	movs	r3, #1
 800193e:	e0b8      	b.n	8001ab2 <HAL_RCC_ClockConfig+0x1ae>
    }
  }

  /*-------------------------- HCLK Configuration --------------------------*/
  if (((RCC_ClkInitStruct->ClockType) & RCC_CLOCKTYPE_HCLK) == RCC_CLOCKTYPE_HCLK)
 8001940:	687b      	ldr	r3, [r7, #4]
 8001942:	681b      	ldr	r3, [r3, #0]
 8001944:	f003 0302 	and.w	r3, r3, #2
 8001948:	2b00      	cmp	r3, #0
 800194a:	d020      	beq.n	800198e <HAL_RCC_ClockConfig+0x8a>
  {
    /* Set the highest APBx dividers in order to ensure that we do not go through
       a non-spec phase whatever we decrease or increase HCLK. */
    if (((RCC_ClkInitStruct->ClockType) & RCC_CLOCKTYPE_PCLK1) == RCC_CLOCKTYPE_PCLK1)
 800194c:	687b      	ldr	r3, [r7, #4]
 800194e:	681b      	ldr	r3, [r3, #0]
 8001950:	f003 0304 	and.w	r3, r3, #4
 8001954:	2b00      	cmp	r3, #0
 8001956:	d005      	beq.n	8001964 <HAL_RCC_ClockConfig+0x60>
    {
      MODIFY_REG(RCC->CFGR, RCC_CFGR_PPRE1, RCC_HCLK_DIV16);
 8001958:	4b59      	ldr	r3, [pc, #356]	@ (8001ac0 <HAL_RCC_ClockConfig+0x1bc>)
 800195a:	689b      	ldr	r3, [r3, #8]
 800195c:	4a58      	ldr	r2, [pc, #352]	@ (8001ac0 <HAL_RCC_ClockConfig+0x1bc>)
 800195e:	f443 53e0 	orr.w	r3, r3, #7168	@ 0x1c00
 8001962:	6093      	str	r3, [r2, #8]
    }

    if (((RCC_ClkInitStruct->ClockType) & RCC_CLOCKTYPE_PCLK2) == RCC_CLOCKTYPE_PCLK2)
 8001964:	687b      	ldr	r3, [r7, #4]
 8001966:	681b      	ldr	r3, [r3, #0]
 8001968:	f003 0308 	and.w	r3, r3, #8
 800196c:	2b00      	cmp	r3, #0
 800196e:	d005      	beq.n	800197c <HAL_RCC_ClockConfig+0x78>
    {
      MODIFY_REG(RCC->CFGR, RCC_CFGR_PPRE2, (RCC_HCLK_DIV16 << 3));
 8001970:	4b53      	ldr	r3, [pc, #332]	@ (8001ac0 <HAL_RCC_ClockConfig+0x1bc>)
 8001972:	689b      	ldr	r3, [r3, #8]
 8001974:	4a52      	ldr	r2, [pc, #328]	@ (8001ac0 <HAL_RCC_ClockConfig+0x1bc>)
 8001976:	f443 4360 	orr.w	r3, r3, #57344	@ 0xe000
 800197a:	6093      	str	r3, [r2, #8]
    }

    assert_param(IS_RCC_HCLK(RCC_ClkInitStruct->AHBCLKDivider));
    MODIFY_REG(RCC->CFGR, RCC_CFGR_HPRE, RCC_ClkInitStruct->AHBCLKDivider);
 800197c:	4b50      	ldr	r3, [pc, #320]	@ (8001ac0 <HAL_RCC_ClockConfig+0x1bc>)
 800197e:	689b      	ldr	r3, [r3, #8]
 8001980:	f023 02f0 	bic.w	r2, r3, #240	@ 0xf0
 8001984:	687b      	ldr	r3, [r7, #4]
 8001986:	689b      	ldr	r3, [r3, #8]
 8001988:	494d      	ldr	r1, [pc, #308]	@ (8001ac0 <HAL_RCC_ClockConfig+0x1bc>)
 800198a:	4313      	orrs	r3, r2
 800198c:	608b      	str	r3, [r1, #8]
  }

  /*------------------------- SYSCLK Configuration ---------------------------*/
  if (((RCC_ClkInitStruct->ClockType) & RCC_CLOCKTYPE_SYSCLK) == RCC_CLOCKTYPE_SYSCLK)
 800198e:	687b      	ldr	r3, [r7, #4]
 8001990:	681b      	ldr	r3, [r3, #0]
 8001992:	f003 0301 	and.w	r3, r3, #1
 8001996:	2b00      	cmp	r3, #0
 8001998:	d044      	beq.n	8001a24 <HAL_RCC_ClockConfig+0x120>
  {
    assert_param(IS_RCC_SYSCLKSOURCE(RCC_ClkInitStruct->SYSCLKSource));

    /* HSE is selected as System Clock Source */
    if (RCC_ClkInitStruct->SYSCLKSource == RCC_SYSCLKSOURCE_HSE)
 800199a:	687b      	ldr	r3, [r7, #4]
 800199c:	685b      	ldr	r3, [r3, #4]
 800199e:	2b01      	cmp	r3, #1
 80019a0:	d107      	bne.n	80019b2 <HAL_RCC_ClockConfig+0xae>
    {
      /* Check the HSE ready flag */
      if (__HAL_RCC_GET_FLAG(RCC_FLAG_HSERDY) == RESET)
 80019a2:	4b47      	ldr	r3, [pc, #284]	@ (8001ac0 <HAL_RCC_ClockConfig+0x1bc>)
 80019a4:	681b      	ldr	r3, [r3, #0]
 80019a6:	f403 3300 	and.w	r3, r3, #131072	@ 0x20000
 80019aa:	2b00      	cmp	r3, #0
 80019ac:	d119      	bne.n	80019e2 <HAL_RCC_ClockConfig+0xde>
      {
        return HAL_ERROR;
 80019ae:	2301      	movs	r3, #1
 80019b0:	e07f      	b.n	8001ab2 <HAL_RCC_ClockConfig+0x1ae>
      }
    }
    /* PLL is selected as System Clock Source */
    else if ((RCC_ClkInitStruct->SYSCLKSource == RCC_SYSCLKSOURCE_PLLCLK)   ||
 80019b2:	687b      	ldr	r3, [r7, #4]
 80019b4:	685b      	ldr	r3, [r3, #4]
 80019b6:	2b02      	cmp	r3, #2
 80019b8:	d003      	beq.n	80019c2 <HAL_RCC_ClockConfig+0xbe>
             (RCC_ClkInitStruct->SYSCLKSource == RCC_SYSCLKSOURCE_PLLRCLK))
 80019ba:	687b      	ldr	r3, [r7, #4]
 80019bc:	685b      	ldr	r3, [r3, #4]
    else if ((RCC_ClkInitStruct->SYSCLKSource == RCC_SYSCLKSOURCE_PLLCLK)   ||
 80019be:	2b03      	cmp	r3, #3
 80019c0:	d107      	bne.n	80019d2 <HAL_RCC_ClockConfig+0xce>
    {
      /* Check the PLL ready flag */
      if (__HAL_RCC_GET_FLAG(RCC_FLAG_PLLRDY) == RESET)
 80019c2:	4b3f      	ldr	r3, [pc, #252]	@ (8001ac0 <HAL_RCC_ClockConfig+0x1bc>)
 80019c4:	681b      	ldr	r3, [r3, #0]
 80019c6:	f003 7300 	and.w	r3, r3, #33554432	@ 0x2000000
 80019ca:	2b00      	cmp	r3, #0
 80019cc:	d109      	bne.n	80019e2 <HAL_RCC_ClockConfig+0xde>
      {
        return HAL_ERROR;
 80019ce:	2301      	movs	r3, #1
 80019d0:	e06f      	b.n	8001ab2 <HAL_RCC_ClockConfig+0x1ae>
    }
    /* HSI is selected as System Clock Source */
    else
    {
      /* Check the HSI ready flag */
      if (__HAL_RCC_GET_FLAG(RCC_FLAG_HSIRDY) == RESET)
 80019d2:	4b3b      	ldr	r3, [pc, #236]	@ (8001ac0 <HAL_RCC_ClockConfig+0x1bc>)
 80019d4:	681b      	ldr	r3, [r3, #0]
 80019d6:	f003 0302 	and.w	r3, r3, #2
 80019da:	2b00      	cmp	r3, #0
 80019dc:	d101      	bne.n	80019e2 <HAL_RCC_ClockConfig+0xde>
      {
        return HAL_ERROR;
 80019de:	2301      	movs	r3, #1
 80019e0:	e067      	b.n	8001ab2 <HAL_RCC_ClockConfig+0x1ae>
      }
    }

    __HAL_RCC_SYSCLK_CONFIG(RCC_ClkInitStruct->SYSCLKSource);
 80019e2:	4b37      	ldr	r3, [pc, #220]	@ (8001ac0 <HAL_RCC_ClockConfig+0x1bc>)
 80019e4:	689b      	ldr	r3, [r3, #8]
 80019e6:	f023 0203 	bic.w	r2, r3, #3
 80019ea:	687b      	ldr	r3, [r7, #4]
 80019ec:	685b      	ldr	r3, [r3, #4]
 80019ee:	4934      	ldr	r1, [pc, #208]	@ (8001ac0 <HAL_RCC_ClockConfig+0x1bc>)
 80019f0:	4313      	orrs	r3, r2
 80019f2:	608b      	str	r3, [r1, #8]

    /* Get Start Tick */
    tickstart = HAL_GetTick();
 80019f4:	f7ff fa38 	bl	8000e68 <HAL_GetTick>
 80019f8:	60f8      	str	r0, [r7, #12]

    while (__HAL_RCC_GET_SYSCLK_SOURCE() != (RCC_ClkInitStruct->SYSCLKSource << RCC_CFGR_SWS_Pos))
 80019fa:	e00a      	b.n	8001a12 <HAL_RCC_ClockConfig+0x10e>
    {
      if ((HAL_GetTick() - tickstart) > CLOCKSWITCH_TIMEOUT_VALUE)
 80019fc:	f7ff fa34 	bl	8000e68 <HAL_GetTick>
 8001a00:	4602      	mov	r2, r0
 8001a02:	68fb      	ldr	r3, [r7, #12]
 8001a04:	1ad3      	subs	r3, r2, r3
 8001a06:	f241 3288 	movw	r2, #5000	@ 0x1388
 8001a0a:	4293      	cmp	r3, r2
 8001a0c:	d901      	bls.n	8001a12 <HAL_RCC_ClockConfig+0x10e>
      {
        return HAL_TIMEOUT;
 8001a0e:	2303      	movs	r3, #3
 8001a10:	e04f      	b.n	8001ab2 <HAL_RCC_ClockConfig+0x1ae>
    while (__HAL_RCC_GET_SYSCLK_SOURCE() != (RCC_ClkInitStruct->SYSCLKSource << RCC_CFGR_SWS_Pos))
 8001a12:	4b2b      	ldr	r3, [pc, #172]	@ (8001ac0 <HAL_RCC_ClockConfig+0x1bc>)
 8001a14:	689b      	ldr	r3, [r3, #8]
 8001a16:	f003 020c 	and.w	r2, r3, #12
 8001a1a:	687b      	ldr	r3, [r7, #4]
 8001a1c:	685b      	ldr	r3, [r3, #4]
 8001a1e:	009b      	lsls	r3, r3, #2
 8001a20:	429a      	cmp	r2, r3
 8001a22:	d1eb      	bne.n	80019fc <HAL_RCC_ClockConfig+0xf8>
      }
    }
  }

  /* Decreasing the number of wait states because of lower CPU frequency */
  if (FLatency < __HAL_FLASH_GET_LATENCY())
 8001a24:	4b25      	ldr	r3, [pc, #148]	@ (8001abc <HAL_RCC_ClockConfig+0x1b8>)
 8001a26:	681b      	ldr	r3, [r3, #0]
 8001a28:	f003 0307 	and.w	r3, r3, #7
 8001a2c:	683a      	ldr	r2, [r7, #0]
 8001a2e:	429a      	cmp	r2, r3
 8001a30:	d20c      	bcs.n	8001a4c <HAL_RCC_ClockConfig+0x148>
  {
    /* Program the new number of wait states to the LATENCY bits in the FLASH_ACR register */
    __HAL_FLASH_SET_LATENCY(FLatency);
 8001a32:	4b22      	ldr	r3, [pc, #136]	@ (8001abc <HAL_RCC_ClockConfig+0x1b8>)
 8001a34:	683a      	ldr	r2, [r7, #0]
 8001a36:	b2d2      	uxtb	r2, r2
 8001a38:	701a      	strb	r2, [r3, #0]

    /* Check that the new number of wait states is taken into account to access the Flash
    memory by reading the FLASH_ACR register */
    if (__HAL_FLASH_GET_LATENCY() != FLatency)
 8001a3a:	4b20      	ldr	r3, [pc, #128]	@ (8001abc <HAL_RCC_ClockConfig+0x1b8>)
 8001a3c:	681b      	ldr	r3, [r3, #0]
 8001a3e:	f003 0307 	and.w	r3, r3, #7
 8001a42:	683a      	ldr	r2, [r7, #0]
 8001a44:	429a      	cmp	r2, r3
 8001a46:	d001      	beq.n	8001a4c <HAL_RCC_ClockConfig+0x148>
    {
      return HAL_ERROR;
 8001a48:	2301      	movs	r3, #1
 8001a4a:	e032      	b.n	8001ab2 <HAL_RCC_ClockConfig+0x1ae>
    }
  }

  /*-------------------------- PCLK1 Configuration ---------------------------*/
  if (((RCC_ClkInitStruct->ClockType) & RCC_CLOCKTYPE_PCLK1) == RCC_CLOCKTYPE_PCLK1)
 8001a4c:	687b      	ldr	r3, [r7, #4]
 8001a4e:	681b      	ldr	r3, [r3, #0]
 8001a50:	f003 0304 	and.w	r3, r3, #4
 8001a54:	2b00      	cmp	r3, #0
 8001a56:	d008      	beq.n	8001a6a <HAL_RCC_ClockConfig+0x166>
  {
    assert_param(IS_RCC_PCLK(RCC_ClkInitStruct->APB1CLKDivider));
    MODIFY_REG(RCC->CFGR, RCC_CFGR_PPRE1, RCC_ClkInitStruct->APB1CLKDivider);
 8001a58:	4b19      	ldr	r3, [pc, #100]	@ (8001ac0 <HAL_RCC_ClockConfig+0x1bc>)
 8001a5a:	689b      	ldr	r3, [r3, #8]
 8001a5c:	f423 52e0 	bic.w	r2, r3, #7168	@ 0x1c00
 8001a60:	687b      	ldr	r3, [r7, #4]
 8001a62:	68db      	ldr	r3, [r3, #12]
 8001a64:	4916      	ldr	r1, [pc, #88]	@ (8001ac0 <HAL_RCC_ClockConfig+0x1bc>)
 8001a66:	4313      	orrs	r3, r2
 8001a68:	608b      	str	r3, [r1, #8]
  }

  /*-------------------------- PCLK2 Configuration ---------------------------*/
  if (((RCC_ClkInitStruct->ClockType) & RCC_CLOCKTYPE_PCLK2) == RCC_CLOCKTYPE_PCLK2)
 8001a6a:	687b      	ldr	r3, [r7, #4]
 8001a6c:	681b      	ldr	r3, [r3, #0]
 8001a6e:	f003 0308 	and.w	r3, r3, #8
 8001a72:	2b00      	cmp	r3, #0
 8001a74:	d009      	beq.n	8001a8a <HAL_RCC_ClockConfig+0x186>
  {
    assert_param(IS_RCC_PCLK(RCC_ClkInitStruct->APB2CLKDivider));
    MODIFY_REG(RCC->CFGR, RCC_CFGR_PPRE2, ((RCC_ClkInitStruct->APB2CLKDivider) << 3U));
 8001a76:	4b12      	ldr	r3, [pc, #72]	@ (8001ac0 <HAL_RCC_ClockConfig+0x1bc>)
 8001a78:	689b      	ldr	r3, [r3, #8]
 8001a7a:	f423 4260 	bic.w	r2, r3, #57344	@ 0xe000
 8001a7e:	687b      	ldr	r3, [r7, #4]
 8001a80:	691b      	ldr	r3, [r3, #16]
 8001a82:	00db      	lsls	r3, r3, #3
 8001a84:	490e      	ldr	r1, [pc, #56]	@ (8001ac0 <HAL_RCC_ClockConfig+0x1bc>)
 8001a86:	4313      	orrs	r3, r2
 8001a88:	608b      	str	r3, [r1, #8]
  }

  /* Update the SystemCoreClock global variable */
  SystemCoreClock = HAL_RCC_GetSysClockFreq() >> AHBPrescTable[(RCC->CFGR & RCC_CFGR_HPRE) >> RCC_CFGR_HPRE_Pos];
 8001a8a:	f000 f821 	bl	8001ad0 <HAL_RCC_GetSysClockFreq>
 8001a8e:	4602      	mov	r2, r0
 8001a90:	4b0b      	ldr	r3, [pc, #44]	@ (8001ac0 <HAL_RCC_ClockConfig+0x1bc>)
 8001a92:	689b      	ldr	r3, [r3, #8]
 8001a94:	091b      	lsrs	r3, r3, #4
 8001a96:	f003 030f 	and.w	r3, r3, #15
 8001a9a:	490a      	ldr	r1, [pc, #40]	@ (8001ac4 <HAL_RCC_ClockConfig+0x1c0>)
 8001a9c:	5ccb      	ldrb	r3, [r1, r3]
 8001a9e:	fa22 f303 	lsr.w	r3, r2, r3
 8001aa2:	4a09      	ldr	r2, [pc, #36]	@ (8001ac8 <HAL_RCC_ClockConfig+0x1c4>)
 8001aa4:	6013      	str	r3, [r2, #0]

  /* Configure the source of time base considering new system clocks settings */
  HAL_InitTick(uwTickPrio);
 8001aa6:	4b09      	ldr	r3, [pc, #36]	@ (8001acc <HAL_RCC_ClockConfig+0x1c8>)
 8001aa8:	681b      	ldr	r3, [r3, #0]
 8001aaa:	4618      	mov	r0, r3
 8001aac:	f7ff f8c8 	bl	8000c40 <HAL_InitTick>

  return HAL_OK;
 8001ab0:	2300      	movs	r3, #0
}
 8001ab2:	4618      	mov	r0, r3
 8001ab4:	3710      	adds	r7, #16
 8001ab6:	46bd      	mov	sp, r7
 8001ab8:	bd80      	pop	{r7, pc}
 8001aba:	bf00      	nop
 8001abc:	40023c00 	.word	0x40023c00
 8001ac0:	40023800 	.word	0x40023800
 8001ac4:	080062a8 	.word	0x080062a8
 8001ac8:	20000000 	.word	0x20000000
 8001acc:	20000004 	.word	0x20000004

08001ad0 <HAL_RCC_GetSysClockFreq>:
  *
  *
  * @retval SYSCLK frequency
  */
__weak uint32_t HAL_RCC_GetSysClockFreq(void)
{
 8001ad0:	e92d 4fb0 	stmdb	sp!, {r4, r5, r7, r8, r9, sl, fp, lr}
 8001ad4:	b094      	sub	sp, #80	@ 0x50
 8001ad6:	af00      	add	r7, sp, #0
  uint32_t pllm = 0U;
 8001ad8:	2300      	movs	r3, #0
 8001ada:	647b      	str	r3, [r7, #68]	@ 0x44
  uint32_t pllvco = 0U;
 8001adc:	2300      	movs	r3, #0
 8001ade:	64fb      	str	r3, [r7, #76]	@ 0x4c
  uint32_t pllp = 0U;
 8001ae0:	2300      	movs	r3, #0
 8001ae2:	643b      	str	r3, [r7, #64]	@ 0x40
  uint32_t sysclockfreq = 0U;
 8001ae4:	2300      	movs	r3, #0
 8001ae6:	64bb      	str	r3, [r7, #72]	@ 0x48

  /* Get SYSCLK source -------------------------------------------------------*/
  switch (RCC->CFGR & RCC_CFGR_SWS)
 8001ae8:	4b79      	ldr	r3, [pc, #484]	@ (8001cd0 <HAL_RCC_GetSysClockFreq+0x200>)
 8001aea:	689b      	ldr	r3, [r3, #8]
 8001aec:	f003 030c 	and.w	r3, r3, #12
 8001af0:	2b08      	cmp	r3, #8
 8001af2:	d00d      	beq.n	8001b10 <HAL_RCC_GetSysClockFreq+0x40>
 8001af4:	2b08      	cmp	r3, #8
 8001af6:	f200 80e1 	bhi.w	8001cbc <HAL_RCC_GetSysClockFreq+0x1ec>
 8001afa:	2b00      	cmp	r3, #0
 8001afc:	d002      	beq.n	8001b04 <HAL_RCC_GetSysClockFreq+0x34>
 8001afe:	2b04      	cmp	r3, #4
 8001b00:	d003      	beq.n	8001b0a <HAL_RCC_GetSysClockFreq+0x3a>
 8001b02:	e0db      	b.n	8001cbc <HAL_RCC_GetSysClockFreq+0x1ec>
  {
    case RCC_CFGR_SWS_HSI:  /* HSI used as system clock source */
    {
      sysclockfreq = HSI_VALUE;
 8001b04:	4b73      	ldr	r3, [pc, #460]	@ (8001cd4 <HAL_RCC_GetSysClockFreq+0x204>)
 8001b06:	64bb      	str	r3, [r7, #72]	@ 0x48
      break;
 8001b08:	e0db      	b.n	8001cc2 <HAL_RCC_GetSysClockFreq+0x1f2>
    }
    case RCC_CFGR_SWS_HSE:  /* HSE used as system clock  source */
    {
      sysclockfreq = HSE_VALUE;
 8001b0a:	4b73      	ldr	r3, [pc, #460]	@ (8001cd8 <HAL_RCC_GetSysClockFreq+0x208>)
 8001b0c:	64bb      	str	r3, [r7, #72]	@ 0x48
      break;
 8001b0e:	e0d8      	b.n	8001cc2 <HAL_RCC_GetSysClockFreq+0x1f2>
    }
    case RCC_CFGR_SWS_PLL:  /* PLL used as system clock  source */
    {
      /* PLL_VCO = (HSE_VALUE or HSI_VALUE / PLLM) * PLLN
      SYSCLK = PLL_VCO / PLLP */
      pllm = RCC->PLLCFGR & RCC_PLLCFGR_PLLM;
 8001b10:	4b6f      	ldr	r3, [pc, #444]	@ (8001cd0 <HAL_RCC_GetSysClockFreq+0x200>)
 8001b12:	685b      	ldr	r3, [r3, #4]
 8001b14:	f003 033f 	and.w	r3, r3, #63	@ 0x3f
 8001b18:	647b      	str	r3, [r7, #68]	@ 0x44
      if (__HAL_RCC_GET_PLL_OSCSOURCE() != RCC_PLLSOURCE_HSI)
 8001b1a:	4b6d      	ldr	r3, [pc, #436]	@ (8001cd0 <HAL_RCC_GetSysClockFreq+0x200>)
 8001b1c:	685b      	ldr	r3, [r3, #4]
 8001b1e:	f403 0380 	and.w	r3, r3, #4194304	@ 0x400000
 8001b22:	2b00      	cmp	r3, #0
 8001b24:	d063      	beq.n	8001bee <HAL_RCC_GetSysClockFreq+0x11e>
      {
        /* HSE used as PLL clock source */
        pllvco = (uint32_t)((((uint64_t) HSE_VALUE * ((uint64_t)((RCC->PLLCFGR & RCC_PLLCFGR_PLLN) >> RCC_PLLCFGR_PLLN_Pos)))) / (uint64_t)pllm);
 8001b26:	4b6a      	ldr	r3, [pc, #424]	@ (8001cd0 <HAL_RCC_GetSysClockFreq+0x200>)
 8001b28:	685b      	ldr	r3, [r3, #4]
 8001b2a:	099b      	lsrs	r3, r3, #6
 8001b2c:	2200      	movs	r2, #0
 8001b2e:	63bb      	str	r3, [r7, #56]	@ 0x38
 8001b30:	63fa      	str	r2, [r7, #60]	@ 0x3c
 8001b32:	6bbb      	ldr	r3, [r7, #56]	@ 0x38
 8001b34:	f3c3 0308 	ubfx	r3, r3, #0, #9
 8001b38:	633b      	str	r3, [r7, #48]	@ 0x30
 8001b3a:	2300      	movs	r3, #0
 8001b3c:	637b      	str	r3, [r7, #52]	@ 0x34
 8001b3e:	e9d7 450c 	ldrd	r4, r5, [r7, #48]	@ 0x30
 8001b42:	4622      	mov	r2, r4
 8001b44:	462b      	mov	r3, r5
 8001b46:	f04f 0000 	mov.w	r0, #0
 8001b4a:	f04f 0100 	mov.w	r1, #0
 8001b4e:	0159      	lsls	r1, r3, #5
 8001b50:	ea41 61d2 	orr.w	r1, r1, r2, lsr #27
 8001b54:	0150      	lsls	r0, r2, #5
 8001b56:	4602      	mov	r2, r0
 8001b58:	460b      	mov	r3, r1
 8001b5a:	4621      	mov	r1, r4
 8001b5c:	1a51      	subs	r1, r2, r1
 8001b5e:	6139      	str	r1, [r7, #16]
 8001b60:	4629      	mov	r1, r5
 8001b62:	eb63 0301 	sbc.w	r3, r3, r1
 8001b66:	617b      	str	r3, [r7, #20]
 8001b68:	f04f 0200 	mov.w	r2, #0
 8001b6c:	f04f 0300 	mov.w	r3, #0
 8001b70:	e9d7 ab04 	ldrd	sl, fp, [r7, #16]
 8001b74:	4659      	mov	r1, fp
 8001b76:	018b      	lsls	r3, r1, #6
 8001b78:	4651      	mov	r1, sl
 8001b7a:	ea43 6391 	orr.w	r3, r3, r1, lsr #26
 8001b7e:	4651      	mov	r1, sl
 8001b80:	018a      	lsls	r2, r1, #6
 8001b82:	4651      	mov	r1, sl
 8001b84:	ebb2 0801 	subs.w	r8, r2, r1
 8001b88:	4659      	mov	r1, fp
 8001b8a:	eb63 0901 	sbc.w	r9, r3, r1
 8001b8e:	f04f 0200 	mov.w	r2, #0
 8001b92:	f04f 0300 	mov.w	r3, #0
 8001b96:	ea4f 03c9 	mov.w	r3, r9, lsl #3
 8001b9a:	ea43 7358 	orr.w	r3, r3, r8, lsr #29
 8001b9e:	ea4f 02c8 	mov.w	r2, r8, lsl #3
 8001ba2:	4690      	mov	r8, r2
 8001ba4:	4699      	mov	r9, r3
 8001ba6:	4623      	mov	r3, r4
 8001ba8:	eb18 0303 	adds.w	r3, r8, r3
 8001bac:	60bb      	str	r3, [r7, #8]
 8001bae:	462b      	mov	r3, r5
 8001bb0:	eb49 0303 	adc.w	r3, r9, r3
 8001bb4:	60fb      	str	r3, [r7, #12]
 8001bb6:	f04f 0200 	mov.w	r2, #0
 8001bba:	f04f 0300 	mov.w	r3, #0
 8001bbe:	e9d7 4502 	ldrd	r4, r5, [r7, #8]
 8001bc2:	4629      	mov	r1, r5
 8001bc4:	024b      	lsls	r3, r1, #9
 8001bc6:	4621      	mov	r1, r4
 8001bc8:	ea43 53d1 	orr.w	r3, r3, r1, lsr #23
 8001bcc:	4621      	mov	r1, r4
 8001bce:	024a      	lsls	r2, r1, #9
 8001bd0:	4610      	mov	r0, r2
 8001bd2:	4619      	mov	r1, r3
 8001bd4:	6c7b      	ldr	r3, [r7, #68]	@ 0x44
 8001bd6:	2200      	movs	r2, #0
 8001bd8:	62bb      	str	r3, [r7, #40]	@ 0x28
 8001bda:	62fa      	str	r2, [r7, #44]	@ 0x2c
 8001bdc:	e9d7 230a 	ldrd	r2, r3, [r7, #40]	@ 0x28
 8001be0:	f7fe fb40 	bl	8000264 <__aeabi_uldivmod>
 8001be4:	4602      	mov	r2, r0
 8001be6:	460b      	mov	r3, r1
 8001be8:	4613      	mov	r3, r2
 8001bea:	64fb      	str	r3, [r7, #76]	@ 0x4c
 8001bec:	e058      	b.n	8001ca0 <HAL_RCC_GetSysClockFreq+0x1d0>
      }
      else
      {
        /* HSI used as PLL clock source */
        pllvco = (uint32_t)((((uint64_t) HSI_VALUE * ((uint64_t)((RCC->PLLCFGR & RCC_PLLCFGR_PLLN) >> RCC_PLLCFGR_PLLN_Pos)))) / (uint64_t)pllm);
 8001bee:	4b38      	ldr	r3, [pc, #224]	@ (8001cd0 <HAL_RCC_GetSysClockFreq+0x200>)
 8001bf0:	685b      	ldr	r3, [r3, #4]
 8001bf2:	099b      	lsrs	r3, r3, #6
 8001bf4:	2200      	movs	r2, #0
 8001bf6:	4618      	mov	r0, r3
 8001bf8:	4611      	mov	r1, r2
 8001bfa:	f3c0 0308 	ubfx	r3, r0, #0, #9
 8001bfe:	623b      	str	r3, [r7, #32]
 8001c00:	2300      	movs	r3, #0
 8001c02:	627b      	str	r3, [r7, #36]	@ 0x24
 8001c04:	e9d7 8908 	ldrd	r8, r9, [r7, #32]
 8001c08:	4642      	mov	r2, r8
 8001c0a:	464b      	mov	r3, r9
 8001c0c:	f04f 0000 	mov.w	r0, #0
 8001c10:	f04f 0100 	mov.w	r1, #0
 8001c14:	0159      	lsls	r1, r3, #5
 8001c16:	ea41 61d2 	orr.w	r1, r1, r2, lsr #27
 8001c1a:	0150      	lsls	r0, r2, #5
 8001c1c:	4602      	mov	r2, r0
 8001c1e:	460b      	mov	r3, r1
 8001c20:	4641      	mov	r1, r8
 8001c22:	ebb2 0a01 	subs.w	sl, r2, r1
 8001c26:	4649      	mov	r1, r9
 8001c28:	eb63 0b01 	sbc.w	fp, r3, r1
 8001c2c:	f04f 0200 	mov.w	r2, #0
 8001c30:	f04f 0300 	mov.w	r3, #0
 8001c34:	ea4f 138b 	mov.w	r3, fp, lsl #6
 8001c38:	ea43 639a 	orr.w	r3, r3, sl, lsr #26
 8001c3c:	ea4f 128a 	mov.w	r2, sl, lsl #6
 8001c40:	ebb2 040a 	subs.w	r4, r2, sl
 8001c44:	eb63 050b 	sbc.w	r5, r3, fp
 8001c48:	f04f 0200 	mov.w	r2, #0
 8001c4c:	f04f 0300 	mov.w	r3, #0
 8001c50:	00eb      	lsls	r3, r5, #3
 8001c52:	ea43 7354 	orr.w	r3, r3, r4, lsr #29
 8001c56:	00e2      	lsls	r2, r4, #3
 8001c58:	4614      	mov	r4, r2
 8001c5a:	461d      	mov	r5, r3
 8001c5c:	4643      	mov	r3, r8
 8001c5e:	18e3      	adds	r3, r4, r3
 8001c60:	603b      	str	r3, [r7, #0]
 8001c62:	464b      	mov	r3, r9
 8001c64:	eb45 0303 	adc.w	r3, r5, r3
 8001c68:	607b      	str	r3, [r7, #4]
 8001c6a:	f04f 0200 	mov.w	r2, #0
 8001c6e:	f04f 0300 	mov.w	r3, #0
 8001c72:	e9d7 4500 	ldrd	r4, r5, [r7]
 8001c76:	4629      	mov	r1, r5
 8001c78:	028b      	lsls	r3, r1, #10
 8001c7a:	4621      	mov	r1, r4
 8001c7c:	ea43 5391 	orr.w	r3, r3, r1, lsr #22
 8001c80:	4621      	mov	r1, r4
 8001c82:	028a      	lsls	r2, r1, #10
 8001c84:	4610      	mov	r0, r2
 8001c86:	4619      	mov	r1, r3
 8001c88:	6c7b      	ldr	r3, [r7, #68]	@ 0x44
 8001c8a:	2200      	movs	r2, #0
 8001c8c:	61bb      	str	r3, [r7, #24]
 8001c8e:	61fa      	str	r2, [r7, #28]
 8001c90:	e9d7 2306 	ldrd	r2, r3, [r7, #24]
 8001c94:	f7fe fae6 	bl	8000264 <__aeabi_uldivmod>
 8001c98:	4602      	mov	r2, r0
 8001c9a:	460b      	mov	r3, r1
 8001c9c:	4613      	mov	r3, r2
 8001c9e:	64fb      	str	r3, [r7, #76]	@ 0x4c
      }
      pllp = ((((RCC->PLLCFGR & RCC_PLLCFGR_PLLP) >> RCC_PLLCFGR_PLLP_Pos) + 1U) * 2U);
 8001ca0:	4b0b      	ldr	r3, [pc, #44]	@ (8001cd0 <HAL_RCC_GetSysClockFreq+0x200>)
 8001ca2:	685b      	ldr	r3, [r3, #4]
 8001ca4:	0c1b      	lsrs	r3, r3, #16
 8001ca6:	f003 0303 	and.w	r3, r3, #3
 8001caa:	3301      	adds	r3, #1
 8001cac:	005b      	lsls	r3, r3, #1
 8001cae:	643b      	str	r3, [r7, #64]	@ 0x40

      sysclockfreq = pllvco / pllp;
 8001cb0:	6cfa      	ldr	r2, [r7, #76]	@ 0x4c
 8001cb2:	6c3b      	ldr	r3, [r7, #64]	@ 0x40
 8001cb4:	fbb2 f3f3 	udiv	r3, r2, r3
 8001cb8:	64bb      	str	r3, [r7, #72]	@ 0x48
      break;
 8001cba:	e002      	b.n	8001cc2 <HAL_RCC_GetSysClockFreq+0x1f2>
    }
    default:
    {
      sysclockfreq = HSI_VALUE;
 8001cbc:	4b05      	ldr	r3, [pc, #20]	@ (8001cd4 <HAL_RCC_GetSysClockFreq+0x204>)
 8001cbe:	64bb      	str	r3, [r7, #72]	@ 0x48
      break;
 8001cc0:	bf00      	nop
    }
  }
  return sysclockfreq;
 8001cc2:	6cbb      	ldr	r3, [r7, #72]	@ 0x48
}
 8001cc4:	4618      	mov	r0, r3
 8001cc6:	3750      	adds	r7, #80	@ 0x50
 8001cc8:	46bd      	mov	sp, r7
 8001cca:	e8bd 8fb0 	ldmia.w	sp!, {r4, r5, r7, r8, r9, sl, fp, pc}
 8001cce:	bf00      	nop
 8001cd0:	40023800 	.word	0x40023800
 8001cd4:	00f42400 	.word	0x00f42400
 8001cd8:	007a1200 	.word	0x007a1200

08001cdc <HAL_RCC_GetHCLKFreq>:
  * @note   The SystemCoreClock CMSIS variable is used to store System Clock Frequency
  *         and updated within this function
  * @retval HCLK frequency
  */
uint32_t HAL_RCC_GetHCLKFreq(void)
{
 8001cdc:	b480      	push	{r7}
 8001cde:	af00      	add	r7, sp, #0
  return SystemCoreClock;
 8001ce0:	4b03      	ldr	r3, [pc, #12]	@ (8001cf0 <HAL_RCC_GetHCLKFreq+0x14>)
 8001ce2:	681b      	ldr	r3, [r3, #0]
}
 8001ce4:	4618      	mov	r0, r3
 8001ce6:	46bd      	mov	sp, r7
 8001ce8:	f85d 7b04 	ldr.w	r7, [sp], #4
 8001cec:	4770      	bx	lr
 8001cee:	bf00      	nop
 8001cf0:	20000000 	.word	0x20000000

08001cf4 <HAL_RCC_GetPCLK1Freq>:
  * @note   Each time PCLK1 changes, this function must be called to update the
  *         right PCLK1 value. Otherwise, any configuration based on this function will be incorrect.
  * @retval PCLK1 frequency
  */
uint32_t HAL_RCC_GetPCLK1Freq(void)
{
 8001cf4:	b580      	push	{r7, lr}
 8001cf6:	af00      	add	r7, sp, #0
  /* Get HCLK source and Compute PCLK1 frequency ---------------------------*/
  return (HAL_RCC_GetHCLKFreq() >> APBPrescTable[(RCC->CFGR & RCC_CFGR_PPRE1) >> RCC_CFGR_PPRE1_Pos]);
 8001cf8:	f7ff fff0 	bl	8001cdc <HAL_RCC_GetHCLKFreq>
 8001cfc:	4602      	mov	r2, r0
 8001cfe:	4b05      	ldr	r3, [pc, #20]	@ (8001d14 <HAL_RCC_GetPCLK1Freq+0x20>)
 8001d00:	689b      	ldr	r3, [r3, #8]
 8001d02:	0a9b      	lsrs	r3, r3, #10
 8001d04:	f003 0307 	and.w	r3, r3, #7
 8001d08:	4903      	ldr	r1, [pc, #12]	@ (8001d18 <HAL_RCC_GetPCLK1Freq+0x24>)
 8001d0a:	5ccb      	ldrb	r3, [r1, r3]
 8001d0c:	fa22 f303 	lsr.w	r3, r2, r3
}
 8001d10:	4618      	mov	r0, r3
 8001d12:	bd80      	pop	{r7, pc}
 8001d14:	40023800 	.word	0x40023800
 8001d18:	080062b8 	.word	0x080062b8

08001d1c <HAL_RCC_GetClockConfig>:
  * will be configured.
  * @param  pFLatency Pointer on the Flash Latency.
  * @retval None
  */
void HAL_RCC_GetClockConfig(RCC_ClkInitTypeDef  *RCC_ClkInitStruct, uint32_t *pFLatency)
{
 8001d1c:	b480      	push	{r7}
 8001d1e:	b083      	sub	sp, #12
 8001d20:	af00      	add	r7, sp, #0
 8001d22:	6078      	str	r0, [r7, #4]
 8001d24:	6039      	str	r1, [r7, #0]
  /* Set all possible values for the Clock type parameter --------------------*/
  RCC_ClkInitStruct->ClockType = RCC_CLOCKTYPE_SYSCLK | RCC_CLOCKTYPE_HCLK | RCC_CLOCKTYPE_PCLK1 | RCC_CLOCKTYPE_PCLK2;
 8001d26:	687b      	ldr	r3, [r7, #4]
 8001d28:	220f      	movs	r2, #15
 8001d2a:	601a      	str	r2, [r3, #0]

  /* Get the SYSCLK configuration --------------------------------------------*/
  RCC_ClkInitStruct->SYSCLKSource = (uint32_t)(RCC->CFGR & RCC_CFGR_SW);
 8001d2c:	4b12      	ldr	r3, [pc, #72]	@ (8001d78 <HAL_RCC_GetClockConfig+0x5c>)
 8001d2e:	689b      	ldr	r3, [r3, #8]
 8001d30:	f003 0203 	and.w	r2, r3, #3
 8001d34:	687b      	ldr	r3, [r7, #4]
 8001d36:	605a      	str	r2, [r3, #4]

  /* Get the HCLK configuration ----------------------------------------------*/
  RCC_ClkInitStruct->AHBCLKDivider = (uint32_t)(RCC->CFGR & RCC_CFGR_HPRE);
 8001d38:	4b0f      	ldr	r3, [pc, #60]	@ (8001d78 <HAL_RCC_GetClockConfig+0x5c>)
 8001d3a:	689b      	ldr	r3, [r3, #8]
 8001d3c:	f003 02f0 	and.w	r2, r3, #240	@ 0xf0
 8001d40:	687b      	ldr	r3, [r7, #4]
 8001d42:	609a      	str	r2, [r3, #8]

  /* Get the APB1 configuration ----------------------------------------------*/
  RCC_ClkInitStruct->APB1CLKDivider = (uint32_t)(RCC->CFGR & RCC_CFGR_PPRE1);
 8001d44:	4b0c      	ldr	r3, [pc, #48]	@ (8001d78 <HAL_RCC_GetClockConfig+0x5c>)
 8001d46:	689b      	ldr	r3, [r3, #8]
 8001d48:	f403 52e0 	and.w	r2, r3, #7168	@ 0x1c00
 8001d4c:	687b      	ldr	r3, [r7, #4]
 8001d4e:	60da      	str	r2, [r3, #12]

  /* Get the APB2 configuration ----------------------------------------------*/
  RCC_ClkInitStruct->APB2CLKDivider = (uint32_t)((RCC->CFGR & RCC_CFGR_PPRE2) >> 3U);
 8001d50:	4b09      	ldr	r3, [pc, #36]	@ (8001d78 <HAL_RCC_GetClockConfig+0x5c>)
 8001d52:	689b      	ldr	r3, [r3, #8]
 8001d54:	08db      	lsrs	r3, r3, #3
 8001d56:	f403 52e0 	and.w	r2, r3, #7168	@ 0x1c00
 8001d5a:	687b      	ldr	r3, [r7, #4]
 8001d5c:	611a      	str	r2, [r3, #16]

  /* Get the Flash Wait State (Latency) configuration ------------------------*/
  *pFLatency = (uint32_t)(FLASH->ACR & FLASH_ACR_LATENCY);
 8001d5e:	4b07      	ldr	r3, [pc, #28]	@ (8001d7c <HAL_RCC_GetClockConfig+0x60>)
 8001d60:	681b      	ldr	r3, [r3, #0]
 8001d62:	f003 0207 	and.w	r2, r3, #7
 8001d66:	683b      	ldr	r3, [r7, #0]
 8001d68:	601a      	str	r2, [r3, #0]
}
 8001d6a:	bf00      	nop
 8001d6c:	370c      	adds	r7, #12
 8001d6e:	46bd      	mov	sp, r7
 8001d70:	f85d 7b04 	ldr.w	r7, [sp], #4
 8001d74:	4770      	bx	lr
 8001d76:	bf00      	nop
 8001d78:	40023800 	.word	0x40023800
 8001d7c:	40023c00 	.word	0x40023c00

08001d80 <HAL_TIM_Base_Init>:
  *         Ex: call @ref HAL_TIM_Base_DeInit() before HAL_TIM_Base_Init()
  * @param  htim TIM Base handle
  * @retval HAL status
  */
HAL_StatusTypeDef HAL_TIM_Base_Init(TIM_HandleTypeDef *htim)
{
 8001d80:	b580      	push	{r7, lr}
 8001d82:	b082      	sub	sp, #8
 8001d84:	af00      	add	r7, sp, #0
 8001d86:	6078      	str	r0, [r7, #4]
  /* Check the TIM handle allocation */
  if (htim == NULL)
 8001d88:	687b      	ldr	r3, [r7, #4]
 8001d8a:	2b00      	cmp	r3, #0
 8001d8c:	d101      	bne.n	8001d92 <HAL_TIM_Base_Init+0x12>
  {
    return HAL_ERROR;
 8001d8e:	2301      	movs	r3, #1
 8001d90:	e041      	b.n	8001e16 <HAL_TIM_Base_Init+0x96>
  assert_param(IS_TIM_COUNTER_MODE(htim->Init.CounterMode));
  assert_param(IS_TIM_CLOCKDIVISION_DIV(htim->Init.ClockDivision));
  assert_param(IS_TIM_PERIOD(htim, htim->Init.Period));
  assert_param(IS_TIM_AUTORELOAD_PRELOAD(htim->Init.AutoReloadPreload));

  if (htim->State == HAL_TIM_STATE_RESET)
 8001d92:	687b      	ldr	r3, [r7, #4]
 8001d94:	f893 303d 	ldrb.w	r3, [r3, #61]	@ 0x3d
 8001d98:	b2db      	uxtb	r3, r3
 8001d9a:	2b00      	cmp	r3, #0
 8001d9c:	d106      	bne.n	8001dac <HAL_TIM_Base_Init+0x2c>
  {
    /* Allocate lock resource and initialize it */
    htim->Lock = HAL_UNLOCKED;
 8001d9e:	687b      	ldr	r3, [r7, #4]
 8001da0:	2200      	movs	r2, #0
 8001da2:	f883 203c 	strb.w	r2, [r3, #60]	@ 0x3c
    }
    /* Init the low level hardware : GPIO, CLOCK, NVIC */
    htim->Base_MspInitCallback(htim);
#else
    /* Init the low level hardware : GPIO, CLOCK, NVIC */
    HAL_TIM_Base_MspInit(htim);
 8001da6:	6878      	ldr	r0, [r7, #4]
 8001da8:	f000 f839 	bl	8001e1e <HAL_TIM_Base_MspInit>
#endif /* USE_HAL_TIM_REGISTER_CALLBACKS */
  }

  /* Set the TIM state */
  htim->State = HAL_TIM_STATE_BUSY;
 8001dac:	687b      	ldr	r3, [r7, #4]
 8001dae:	2202      	movs	r2, #2
 8001db0:	f883 203d 	strb.w	r2, [r3, #61]	@ 0x3d

  /* Set the Time Base configuration */
  TIM_Base_SetConfig(htim->Instance, &htim->Init);
 8001db4:	687b      	ldr	r3, [r7, #4]
 8001db6:	681a      	ldr	r2, [r3, #0]
 8001db8:	687b      	ldr	r3, [r7, #4]
 8001dba:	3304      	adds	r3, #4
 8001dbc:	4619      	mov	r1, r3
 8001dbe:	4610      	mov	r0, r2
 8001dc0:	f000 f9c0 	bl	8002144 <TIM_Base_SetConfig>

  /* Initialize the DMA burst operation state */
  htim->DMABurstState = HAL_DMA_BURST_STATE_READY;
 8001dc4:	687b      	ldr	r3, [r7, #4]
 8001dc6:	2201      	movs	r2, #1
 8001dc8:	f883 2046 	strb.w	r2, [r3, #70]	@ 0x46

  /* Initialize the TIM channels state */
  TIM_CHANNEL_STATE_SET_ALL(htim, HAL_TIM_CHANNEL_STATE_READY);
 8001dcc:	687b      	ldr	r3, [r7, #4]
 8001dce:	2201      	movs	r2, #1
 8001dd0:	f883 203e 	strb.w	r2, [r3, #62]	@ 0x3e
 8001dd4:	687b      	ldr	r3, [r7, #4]
 8001dd6:	2201      	movs	r2, #1
 8001dd8:	f883 203f 	strb.w	r2, [r3, #63]	@ 0x3f
 8001ddc:	687b      	ldr	r3, [r7, #4]
 8001dde:	2201      	movs	r2, #1
 8001de0:	f883 2040 	strb.w	r2, [r3, #64]	@ 0x40
 8001de4:	687b      	ldr	r3, [r7, #4]
 8001de6:	2201      	movs	r2, #1
 8001de8:	f883 2041 	strb.w	r2, [r3, #65]	@ 0x41
  TIM_CHANNEL_N_STATE_SET_ALL(htim, HAL_TIM_CHANNEL_STATE_READY);
 8001dec:	687b      	ldr	r3, [r7, #4]
 8001dee:	2201      	movs	r2, #1
 8001df0:	f883 2042 	strb.w	r2, [r3, #66]	@ 0x42
 8001df4:	687b      	ldr	r3, [r7, #4]
 8001df6:	2201      	movs	r2, #1
 8001df8:	f883 2043 	strb.w	r2, [r3, #67]	@ 0x43
 8001dfc:	687b      	ldr	r3, [r7, #4]
 8001dfe:	2201      	movs	r2, #1
 8001e00:	f883 2044 	strb.w	r2, [r3, #68]	@ 0x44
 8001e04:	687b      	ldr	r3, [r7, #4]
 8001e06:	2201      	movs	r2, #1
 8001e08:	f883 2045 	strb.w	r2, [r3, #69]	@ 0x45

  /* Initialize the TIM state*/
  htim->State = HAL_TIM_STATE_READY;
 8001e0c:	687b      	ldr	r3, [r7, #4]
 8001e0e:	2201      	movs	r2, #1
 8001e10:	f883 203d 	strb.w	r2, [r3, #61]	@ 0x3d

  return HAL_OK;
 8001e14:	2300      	movs	r3, #0
}
 8001e16:	4618      	mov	r0, r3
 8001e18:	3708      	adds	r7, #8
 8001e1a:	46bd      	mov	sp, r7
 8001e1c:	bd80      	pop	{r7, pc}

08001e1e <HAL_TIM_Base_MspInit>:
  * @brief  Initializes the TIM Base MSP.
  * @param  htim TIM Base handle
  * @retval None
  */
__weak void HAL_TIM_Base_MspInit(TIM_HandleTypeDef *htim)
{
 8001e1e:	b480      	push	{r7}
 8001e20:	b083      	sub	sp, #12
 8001e22:	af00      	add	r7, sp, #0
 8001e24:	6078      	str	r0, [r7, #4]
  UNUSED(htim);

  /* NOTE : This function should not be modified, when the callback is needed,
            the HAL_TIM_Base_MspInit could be implemented in the user file
   */
}
 8001e26:	bf00      	nop
 8001e28:	370c      	adds	r7, #12
 8001e2a:	46bd      	mov	sp, r7
 8001e2c:	f85d 7b04 	ldr.w	r7, [sp], #4
 8001e30:	4770      	bx	lr
	...

08001e34 <HAL_TIM_Base_Start_IT>:
  * @brief  Starts the TIM Base generation in interrupt mode.
  * @param  htim TIM Base handle
  * @retval HAL status
  */
HAL_StatusTypeDef HAL_TIM_Base_Start_IT(TIM_HandleTypeDef *htim)
{
 8001e34:	b480      	push	{r7}
 8001e36:	b085      	sub	sp, #20
 8001e38:	af00      	add	r7, sp, #0
 8001e3a:	6078      	str	r0, [r7, #4]

  /* Check the parameters */
  assert_param(IS_TIM_INSTANCE(htim->Instance));

  /* Check the TIM state */
  if (htim->State != HAL_TIM_STATE_READY)
 8001e3c:	687b      	ldr	r3, [r7, #4]
 8001e3e:	f893 303d 	ldrb.w	r3, [r3, #61]	@ 0x3d
 8001e42:	b2db      	uxtb	r3, r3
 8001e44:	2b01      	cmp	r3, #1
 8001e46:	d001      	beq.n	8001e4c <HAL_TIM_Base_Start_IT+0x18>
  {
    return HAL_ERROR;
 8001e48:	2301      	movs	r3, #1
 8001e4a:	e04e      	b.n	8001eea <HAL_TIM_Base_Start_IT+0xb6>
  }

  /* Set the TIM state */
  htim->State = HAL_TIM_STATE_BUSY;
 8001e4c:	687b      	ldr	r3, [r7, #4]
 8001e4e:	2202      	movs	r2, #2
 8001e50:	f883 203d 	strb.w	r2, [r3, #61]	@ 0x3d

  /* Enable the TIM Update interrupt */
  __HAL_TIM_ENABLE_IT(htim, TIM_IT_UPDATE);
 8001e54:	687b      	ldr	r3, [r7, #4]
 8001e56:	681b      	ldr	r3, [r3, #0]
 8001e58:	68da      	ldr	r2, [r3, #12]
 8001e5a:	687b      	ldr	r3, [r7, #4]
 8001e5c:	681b      	ldr	r3, [r3, #0]
 8001e5e:	f042 0201 	orr.w	r2, r2, #1
 8001e62:	60da      	str	r2, [r3, #12]

  /* Enable the Peripheral, except in trigger mode where enable is automatically done with trigger */
  if (IS_TIM_SLAVE_INSTANCE(htim->Instance))
 8001e64:	687b      	ldr	r3, [r7, #4]
 8001e66:	681b      	ldr	r3, [r3, #0]
 8001e68:	4a23      	ldr	r2, [pc, #140]	@ (8001ef8 <HAL_TIM_Base_Start_IT+0xc4>)
 8001e6a:	4293      	cmp	r3, r2
 8001e6c:	d022      	beq.n	8001eb4 <HAL_TIM_Base_Start_IT+0x80>
 8001e6e:	687b      	ldr	r3, [r7, #4]
 8001e70:	681b      	ldr	r3, [r3, #0]
 8001e72:	f1b3 4f80 	cmp.w	r3, #1073741824	@ 0x40000000
 8001e76:	d01d      	beq.n	8001eb4 <HAL_TIM_Base_Start_IT+0x80>
 8001e78:	687b      	ldr	r3, [r7, #4]
 8001e7a:	681b      	ldr	r3, [r3, #0]
 8001e7c:	4a1f      	ldr	r2, [pc, #124]	@ (8001efc <HAL_TIM_Base_Start_IT+0xc8>)
 8001e7e:	4293      	cmp	r3, r2
 8001e80:	d018      	beq.n	8001eb4 <HAL_TIM_Base_Start_IT+0x80>
 8001e82:	687b      	ldr	r3, [r7, #4]
 8001e84:	681b      	ldr	r3, [r3, #0]
 8001e86:	4a1e      	ldr	r2, [pc, #120]	@ (8001f00 <HAL_TIM_Base_Start_IT+0xcc>)
 8001e88:	4293      	cmp	r3, r2
 8001e8a:	d013      	beq.n	8001eb4 <HAL_TIM_Base_Start_IT+0x80>
 8001e8c:	687b      	ldr	r3, [r7, #4]
 8001e8e:	681b      	ldr	r3, [r3, #0]
 8001e90:	4a1c      	ldr	r2, [pc, #112]	@ (8001f04 <HAL_TIM_Base_Start_IT+0xd0>)
 8001e92:	4293      	cmp	r3, r2
 8001e94:	d00e      	beq.n	8001eb4 <HAL_TIM_Base_Start_IT+0x80>
 8001e96:	687b      	ldr	r3, [r7, #4]
 8001e98:	681b      	ldr	r3, [r3, #0]
 8001e9a:	4a1b      	ldr	r2, [pc, #108]	@ (8001f08 <HAL_TIM_Base_Start_IT+0xd4>)
 8001e9c:	4293      	cmp	r3, r2
 8001e9e:	d009      	beq.n	8001eb4 <HAL_TIM_Base_Start_IT+0x80>
 8001ea0:	687b      	ldr	r3, [r7, #4]
 8001ea2:	681b      	ldr	r3, [r3, #0]
 8001ea4:	4a19      	ldr	r2, [pc, #100]	@ (8001f0c <HAL_TIM_Base_Start_IT+0xd8>)
 8001ea6:	4293      	cmp	r3, r2
 8001ea8:	d004      	beq.n	8001eb4 <HAL_TIM_Base_Start_IT+0x80>
 8001eaa:	687b      	ldr	r3, [r7, #4]
 8001eac:	681b      	ldr	r3, [r3, #0]
 8001eae:	4a18      	ldr	r2, [pc, #96]	@ (8001f10 <HAL_TIM_Base_Start_IT+0xdc>)
 8001eb0:	4293      	cmp	r3, r2
 8001eb2:	d111      	bne.n	8001ed8 <HAL_TIM_Base_Start_IT+0xa4>
  {
    tmpsmcr = htim->Instance->SMCR & TIM_SMCR_SMS;
 8001eb4:	687b      	ldr	r3, [r7, #4]
 8001eb6:	681b      	ldr	r3, [r3, #0]
 8001eb8:	689b      	ldr	r3, [r3, #8]
 8001eba:	f003 0307 	and.w	r3, r3, #7
 8001ebe:	60fb      	str	r3, [r7, #12]
    if (!IS_TIM_SLAVEMODE_TRIGGER_ENABLED(tmpsmcr))
 8001ec0:	68fb      	ldr	r3, [r7, #12]
 8001ec2:	2b06      	cmp	r3, #6
 8001ec4:	d010      	beq.n	8001ee8 <HAL_TIM_Base_Start_IT+0xb4>
    {
      __HAL_TIM_ENABLE(htim);
 8001ec6:	687b      	ldr	r3, [r7, #4]
 8001ec8:	681b      	ldr	r3, [r3, #0]
 8001eca:	681a      	ldr	r2, [r3, #0]
 8001ecc:	687b      	ldr	r3, [r7, #4]
 8001ece:	681b      	ldr	r3, [r3, #0]
 8001ed0:	f042 0201 	orr.w	r2, r2, #1
 8001ed4:	601a      	str	r2, [r3, #0]
    if (!IS_TIM_SLAVEMODE_TRIGGER_ENABLED(tmpsmcr))
 8001ed6:	e007      	b.n	8001ee8 <HAL_TIM_Base_Start_IT+0xb4>
    }
  }
  else
  {
    __HAL_TIM_ENABLE(htim);
 8001ed8:	687b      	ldr	r3, [r7, #4]
 8001eda:	681b      	ldr	r3, [r3, #0]
 8001edc:	681a      	ldr	r2, [r3, #0]
 8001ede:	687b      	ldr	r3, [r7, #4]
 8001ee0:	681b      	ldr	r3, [r3, #0]
 8001ee2:	f042 0201 	orr.w	r2, r2, #1
 8001ee6:	601a      	str	r2, [r3, #0]
  }

  /* Return function status */
  return HAL_OK;
 8001ee8:	2300      	movs	r3, #0
}
 8001eea:	4618      	mov	r0, r3
 8001eec:	3714      	adds	r7, #20
 8001eee:	46bd      	mov	sp, r7
 8001ef0:	f85d 7b04 	ldr.w	r7, [sp], #4
 8001ef4:	4770      	bx	lr
 8001ef6:	bf00      	nop
 8001ef8:	40010000 	.word	0x40010000
 8001efc:	40000400 	.word	0x40000400
 8001f00:	40000800 	.word	0x40000800
 8001f04:	40000c00 	.word	0x40000c00
 8001f08:	40010400 	.word	0x40010400
 8001f0c:	40014000 	.word	0x40014000
 8001f10:	40001800 	.word	0x40001800

08001f14 <HAL_TIM_IRQHandler>:
  * @brief  This function handles TIM interrupts requests.
  * @param  htim TIM  handle
  * @retval None
  */
void HAL_TIM_IRQHandler(TIM_HandleTypeDef *htim)
{
 8001f14:	b580      	push	{r7, lr}
 8001f16:	b084      	sub	sp, #16
 8001f18:	af00      	add	r7, sp, #0
 8001f1a:	6078      	str	r0, [r7, #4]
  uint32_t itsource = htim->Instance->DIER;
 8001f1c:	687b      	ldr	r3, [r7, #4]
 8001f1e:	681b      	ldr	r3, [r3, #0]
 8001f20:	68db      	ldr	r3, [r3, #12]
 8001f22:	60fb      	str	r3, [r7, #12]
  uint32_t itflag   = htim->Instance->SR;
 8001f24:	687b      	ldr	r3, [r7, #4]
 8001f26:	681b      	ldr	r3, [r3, #0]
 8001f28:	691b      	ldr	r3, [r3, #16]
 8001f2a:	60bb      	str	r3, [r7, #8]

  /* Capture compare 1 event */
  if ((itflag & (TIM_FLAG_CC1)) == (TIM_FLAG_CC1))
 8001f2c:	68bb      	ldr	r3, [r7, #8]
 8001f2e:	f003 0302 	and.w	r3, r3, #2
 8001f32:	2b00      	cmp	r3, #0
 8001f34:	d020      	beq.n	8001f78 <HAL_TIM_IRQHandler+0x64>
  {
    if ((itsource & (TIM_IT_CC1)) == (TIM_IT_CC1))
 8001f36:	68fb      	ldr	r3, [r7, #12]
 8001f38:	f003 0302 	and.w	r3, r3, #2
 8001f3c:	2b00      	cmp	r3, #0
 8001f3e:	d01b      	beq.n	8001f78 <HAL_TIM_IRQHandler+0x64>
    {
      {
        __HAL_TIM_CLEAR_FLAG(htim, TIM_FLAG_CC1);
 8001f40:	687b      	ldr	r3, [r7, #4]
 8001f42:	681b      	ldr	r3, [r3, #0]
 8001f44:	f06f 0202 	mvn.w	r2, #2
 8001f48:	611a      	str	r2, [r3, #16]
        htim->Channel = HAL_TIM_ACTIVE_CHANNEL_1;
 8001f4a:	687b      	ldr	r3, [r7, #4]
 8001f4c:	2201      	movs	r2, #1
 8001f4e:	771a      	strb	r2, [r3, #28]

        /* Input capture event */
        if ((htim->Instance->CCMR1 & TIM_CCMR1_CC1S) != 0x00U)
 8001f50:	687b      	ldr	r3, [r7, #4]
 8001f52:	681b      	ldr	r3, [r3, #0]
 8001f54:	699b      	ldr	r3, [r3, #24]
 8001f56:	f003 0303 	and.w	r3, r3, #3
 8001f5a:	2b00      	cmp	r3, #0
 8001f5c:	d003      	beq.n	8001f66 <HAL_TIM_IRQHandler+0x52>
        {
#if (USE_HAL_TIM_REGISTER_CALLBACKS == 1)
          htim->IC_CaptureCallback(htim);
#else
          HAL_TIM_IC_CaptureCallback(htim);
 8001f5e:	6878      	ldr	r0, [r7, #4]
 8001f60:	f000 f8d2 	bl	8002108 <HAL_TIM_IC_CaptureCallback>
 8001f64:	e005      	b.n	8001f72 <HAL_TIM_IRQHandler+0x5e>
        {
#if (USE_HAL_TIM_REGISTER_CALLBACKS == 1)
          htim->OC_DelayElapsedCallback(htim);
          htim->PWM_PulseFinishedCallback(htim);
#else
          HAL_TIM_OC_DelayElapsedCallback(htim);
 8001f66:	6878      	ldr	r0, [r7, #4]
 8001f68:	f000 f8c4 	bl	80020f4 <HAL_TIM_OC_DelayElapsedCallback>
          HAL_TIM_PWM_PulseFinishedCallback(htim);
 8001f6c:	6878      	ldr	r0, [r7, #4]
 8001f6e:	f000 f8d5 	bl	800211c <HAL_TIM_PWM_PulseFinishedCallback>
#endif /* USE_HAL_TIM_REGISTER_CALLBACKS */
        }
        htim->Channel = HAL_TIM_ACTIVE_CHANNEL_CLEARED;
 8001f72:	687b      	ldr	r3, [r7, #4]
 8001f74:	2200      	movs	r2, #0
 8001f76:	771a      	strb	r2, [r3, #28]
      }
    }
  }
  /* Capture compare 2 event */
  if ((itflag & (TIM_FLAG_CC2)) == (TIM_FLAG_CC2))
 8001f78:	68bb      	ldr	r3, [r7, #8]
 8001f7a:	f003 0304 	and.w	r3, r3, #4
 8001f7e:	2b00      	cmp	r3, #0
 8001f80:	d020      	beq.n	8001fc4 <HAL_TIM_IRQHandler+0xb0>
  {
    if ((itsource & (TIM_IT_CC2)) == (TIM_IT_CC2))
 8001f82:	68fb      	ldr	r3, [r7, #12]
 8001f84:	f003 0304 	and.w	r3, r3, #4
 8001f88:	2b00      	cmp	r3, #0
 8001f8a:	d01b      	beq.n	8001fc4 <HAL_TIM_IRQHandler+0xb0>
    {
      __HAL_TIM_CLEAR_FLAG(htim, TIM_FLAG_CC2);
 8001f8c:	687b      	ldr	r3, [r7, #4]
 8001f8e:	681b      	ldr	r3, [r3, #0]
 8001f90:	f06f 0204 	mvn.w	r2, #4
 8001f94:	611a      	str	r2, [r3, #16]
      htim->Channel = HAL_TIM_ACTIVE_CHANNEL_2;
 8001f96:	687b      	ldr	r3, [r7, #4]
 8001f98:	2202      	movs	r2, #2
 8001f9a:	771a      	strb	r2, [r3, #28]
      /* Input capture event */
      if ((htim->Instance->CCMR1 & TIM_CCMR1_CC2S) != 0x00U)
 8001f9c:	687b      	ldr	r3, [r7, #4]
 8001f9e:	681b      	ldr	r3, [r3, #0]
 8001fa0:	699b      	ldr	r3, [r3, #24]
 8001fa2:	f403 7340 	and.w	r3, r3, #768	@ 0x300
 8001fa6:	2b00      	cmp	r3, #0
 8001fa8:	d003      	beq.n	8001fb2 <HAL_TIM_IRQHandler+0x9e>
      {
#if (USE_HAL_TIM_REGISTER_CALLBACKS == 1)
        htim->IC_CaptureCallback(htim);
#else
        HAL_TIM_IC_CaptureCallback(htim);
 8001faa:	6878      	ldr	r0, [r7, #4]
 8001fac:	f000 f8ac 	bl	8002108 <HAL_TIM_IC_CaptureCallback>
 8001fb0:	e005      	b.n	8001fbe <HAL_TIM_IRQHandler+0xaa>
      {
#if (USE_HAL_TIM_REGISTER_CALLBACKS == 1)
        htim->OC_DelayElapsedCallback(htim);
        htim->PWM_PulseFinishedCallback(htim);
#else
        HAL_TIM_OC_DelayElapsedCallback(htim);
 8001fb2:	6878      	ldr	r0, [r7, #4]
 8001fb4:	f000 f89e 	bl	80020f4 <HAL_TIM_OC_DelayElapsedCallback>
        HAL_TIM_PWM_PulseFinishedCallback(htim);
 8001fb8:	6878      	ldr	r0, [r7, #4]
 8001fba:	f000 f8af 	bl	800211c <HAL_TIM_PWM_PulseFinishedCallback>
#endif /* USE_HAL_TIM_REGISTER_CALLBACKS */
      }
      htim->Channel = HAL_TIM_ACTIVE_CHANNEL_CLEARED;
 8001fbe:	687b      	ldr	r3, [r7, #4]
 8001fc0:	2200      	movs	r2, #0
 8001fc2:	771a      	strb	r2, [r3, #28]
    }
  }
  /* Capture compare 3 event */
  if ((itflag & (TIM_FLAG_CC3)) == (TIM_FLAG_CC3))
 8001fc4:	68bb      	ldr	r3, [r7, #8]
 8001fc6:	f003 0308 	and.w	r3, r3, #8
 8001fca:	2b00      	cmp	r3, #0
 8001fcc:	d020      	beq.n	8002010 <HAL_TIM_IRQHandler+0xfc>
  {
    if ((itsource & (TIM_IT_CC3)) == (TIM_IT_CC3))
 8001fce:	68fb      	ldr	r3, [r7, #12]
 8001fd0:	f003 0308 	and.w	r3, r3, #8
 8001fd4:	2b00      	cmp	r3, #0
 8001fd6:	d01b      	beq.n	8002010 <HAL_TIM_IRQHandler+0xfc>
    {
      __HAL_TIM_CLEAR_FLAG(htim, TIM_FLAG_CC3);
 8001fd8:	687b      	ldr	r3, [r7, #4]
 8001fda:	681b      	ldr	r3, [r3, #0]
 8001fdc:	f06f 0208 	mvn.w	r2, #8
 8001fe0:	611a      	str	r2, [r3, #16]
      htim->Channel = HAL_TIM_ACTIVE_CHANNEL_3;
 8001fe2:	687b      	ldr	r3, [r7, #4]
 8001fe4:	2204      	movs	r2, #4
 8001fe6:	771a      	strb	r2, [r3, #28]
      /* Input capture event */
      if ((htim->Instance->CCMR2 & TIM_CCMR2_CC3S) != 0x00U)
 8001fe8:	687b      	ldr	r3, [r7, #4]
 8001fea:	681b      	ldr	r3, [r3, #0]
 8001fec:	69db      	ldr	r3, [r3, #28]
 8001fee:	f003 0303 	and.w	r3, r3, #3
 8001ff2:	2b00      	cmp	r3, #0
 8001ff4:	d003      	beq.n	8001ffe <HAL_TIM_IRQHandler+0xea>
      {
#if (USE_HAL_TIM_REGISTER_CALLBACKS == 1)
        htim->IC_CaptureCallback(htim);
#else
        HAL_TIM_IC_CaptureCallback(htim);
 8001ff6:	6878      	ldr	r0, [r7, #4]
 8001ff8:	f000 f886 	bl	8002108 <HAL_TIM_IC_CaptureCallback>
 8001ffc:	e005      	b.n	800200a <HAL_TIM_IRQHandler+0xf6>
      {
#if (USE_HAL_TIM_REGISTER_CALLBACKS == 1)
        htim->OC_DelayElapsedCallback(htim);
        htim->PWM_PulseFinishedCallback(htim);
#else
        HAL_TIM_OC_DelayElapsedCallback(htim);
 8001ffe:	6878      	ldr	r0, [r7, #4]
 8002000:	f000 f878 	bl	80020f4 <HAL_TIM_OC_DelayElapsedCallback>
        HAL_TIM_PWM_PulseFinishedCallback(htim);
 8002004:	6878      	ldr	r0, [r7, #4]
 8002006:	f000 f889 	bl	800211c <HAL_TIM_PWM_PulseFinishedCallback>
#endif /* USE_HAL_TIM_REGISTER_CALLBACKS */
      }
      htim->Channel = HAL_TIM_ACTIVE_CHANNEL_CLEARED;
 800200a:	687b      	ldr	r3, [r7, #4]
 800200c:	2200      	movs	r2, #0
 800200e:	771a      	strb	r2, [r3, #28]
    }
  }
  /* Capture compare 4 event */
  if ((itflag & (TIM_FLAG_CC4)) == (TIM_FLAG_CC4))
 8002010:	68bb      	ldr	r3, [r7, #8]
 8002012:	f003 0310 	and.w	r3, r3, #16
 8002016:	2b00      	cmp	r3, #0
 8002018:	d020      	beq.n	800205c <HAL_TIM_IRQHandler+0x148>
  {
    if ((itsource & (TIM_IT_CC4)) == (TIM_IT_CC4))
 800201a:	68fb      	ldr	r3, [r7, #12]
 800201c:	f003 0310 	and.w	r3, r3, #16
 8002020:	2b00      	cmp	r3, #0
 8002022:	d01b      	beq.n	800205c <HAL_TIM_IRQHandler+0x148>
    {
      __HAL_TIM_CLEAR_FLAG(htim, TIM_FLAG_CC4);
 8002024:	687b      	ldr	r3, [r7, #4]
 8002026:	681b      	ldr	r3, [r3, #0]
 8002028:	f06f 0210 	mvn.w	r2, #16
 800202c:	611a      	str	r2, [r3, #16]
      htim->Channel = HAL_TIM_ACTIVE_CHANNEL_4;
 800202e:	687b      	ldr	r3, [r7, #4]
 8002030:	2208      	movs	r2, #8
 8002032:	771a      	strb	r2, [r3, #28]
      /* Input capture event */
      if ((htim->Instance->CCMR2 & TIM_CCMR2_CC4S) != 0x00U)
 8002034:	687b      	ldr	r3, [r7, #4]
 8002036:	681b      	ldr	r3, [r3, #0]
 8002038:	69db      	ldr	r3, [r3, #28]
 800203a:	f403 7340 	and.w	r3, r3, #768	@ 0x300
 800203e:	2b00      	cmp	r3, #0
 8002040:	d003      	beq.n	800204a <HAL_TIM_IRQHandler+0x136>
      {
#if (USE_HAL_TIM_REGISTER_CALLBACKS == 1)
        htim->IC_CaptureCallback(htim);
#else
        HAL_TIM_IC_CaptureCallback(htim);
 8002042:	6878      	ldr	r0, [r7, #4]
 8002044:	f000 f860 	bl	8002108 <HAL_TIM_IC_CaptureCallback>
 8002048:	e005      	b.n	8002056 <HAL_TIM_IRQHandler+0x142>
      {
#if (USE_HAL_TIM_REGISTER_CALLBACKS == 1)
        htim->OC_DelayElapsedCallback(htim);
        htim->PWM_PulseFinishedCallback(htim);
#else
        HAL_TIM_OC_DelayElapsedCallback(htim);
 800204a:	6878      	ldr	r0, [r7, #4]
 800204c:	f000 f852 	bl	80020f4 <HAL_TIM_OC_DelayElapsedCallback>
        HAL_TIM_PWM_PulseFinishedCallback(htim);
 8002050:	6878      	ldr	r0, [r7, #4]
 8002052:	f000 f863 	bl	800211c <HAL_TIM_PWM_PulseFinishedCallback>
#endif /* USE_HAL_TIM_REGISTER_CALLBACKS */
      }
      htim->Channel = HAL_TIM_ACTIVE_CHANNEL_CLEARED;
 8002056:	687b      	ldr	r3, [r7, #4]
 8002058:	2200      	movs	r2, #0
 800205a:	771a      	strb	r2, [r3, #28]
    }
  }
  /* TIM Update event */
  if ((itflag & (TIM_FLAG_UPDATE)) == (TIM_FLAG_UPDATE))
 800205c:	68bb      	ldr	r3, [r7, #8]
 800205e:	f003 0301 	and.w	r3, r3, #1
 8002062:	2b00      	cmp	r3, #0
 8002064:	d00c      	beq.n	8002080 <HAL_TIM_IRQHandler+0x16c>
  {
    if ((itsource & (TIM_IT_UPDATE)) == (TIM_IT_UPDATE))
 8002066:	68fb      	ldr	r3, [r7, #12]
 8002068:	f003 0301 	and.w	r3, r3, #1
 800206c:	2b00      	cmp	r3, #0
 800206e:	d007      	beq.n	8002080 <HAL_TIM_IRQHandler+0x16c>
    {
      __HAL_TIM_CLEAR_FLAG(htim, TIM_FLAG_UPDATE);
 8002070:	687b      	ldr	r3, [r7, #4]
 8002072:	681b      	ldr	r3, [r3, #0]
 8002074:	f06f 0201 	mvn.w	r2, #1
 8002078:	611a      	str	r2, [r3, #16]
#if (USE_HAL_TIM_REGISTER_CALLBACKS == 1)
      htim->PeriodElapsedCallback(htim);
#else
      HAL_TIM_PeriodElapsedCallback(htim);
 800207a:	6878      	ldr	r0, [r7, #4]
 800207c:	f7fe fda0 	bl	8000bc0 <HAL_TIM_PeriodElapsedCallback>
#endif /* USE_HAL_TIM_REGISTER_CALLBACKS */
    }
  }
  /* TIM Break input event */
  if ((itflag & (TIM_FLAG_BREAK)) == (TIM_FLAG_BREAK))
 8002080:	68bb      	ldr	r3, [r7, #8]
 8002082:	f003 0380 	and.w	r3, r3, #128	@ 0x80
 8002086:	2b00      	cmp	r3, #0
 8002088:	d00c      	beq.n	80020a4 <HAL_TIM_IRQHandler+0x190>
  {
    if ((itsource & (TIM_IT_BREAK)) == (TIM_IT_BREAK))
 800208a:	68fb      	ldr	r3, [r7, #12]
 800208c:	f003 0380 	and.w	r3, r3, #128	@ 0x80
 8002090:	2b00      	cmp	r3, #0
 8002092:	d007      	beq.n	80020a4 <HAL_TIM_IRQHandler+0x190>
    {
      __HAL_TIM_CLEAR_FLAG(htim, TIM_FLAG_BREAK);
 8002094:	687b      	ldr	r3, [r7, #4]
 8002096:	681b      	ldr	r3, [r3, #0]
 8002098:	f06f 0280 	mvn.w	r2, #128	@ 0x80
 800209c:	611a      	str	r2, [r3, #16]
#if (USE_HAL_TIM_REGISTER_CALLBACKS == 1)
      htim->BreakCallback(htim);
#else
      HAL_TIMEx_BreakCallback(htim);
 800209e:	6878      	ldr	r0, [r7, #4]
 80020a0:	f000 f900 	bl	80022a4 <HAL_TIMEx_BreakCallback>
#endif /* USE_HAL_TIM_REGISTER_CALLBACKS */
    }
  }
  /* TIM Trigger detection event */
  if ((itflag & (TIM_FLAG_TRIGGER)) == (TIM_FLAG_TRIGGER))
 80020a4:	68bb      	ldr	r3, [r7, #8]
 80020a6:	f003 0340 	and.w	r3, r3, #64	@ 0x40
 80020aa:	2b00      	cmp	r3, #0
 80020ac:	d00c      	beq.n	80020c8 <HAL_TIM_IRQHandler+0x1b4>
  {
    if ((itsource & (TIM_IT_TRIGGER)) == (TIM_IT_TRIGGER))
 80020ae:	68fb      	ldr	r3, [r7, #12]
 80020b0:	f003 0340 	and.w	r3, r3, #64	@ 0x40
 80020b4:	2b00      	cmp	r3, #0
 80020b6:	d007      	beq.n	80020c8 <HAL_TIM_IRQHandler+0x1b4>
    {
      __HAL_TIM_CLEAR_FLAG(htim, TIM_FLAG_TRIGGER);
 80020b8:	687b      	ldr	r3, [r7, #4]
 80020ba:	681b      	ldr	r3, [r3, #0]
 80020bc:	f06f 0240 	mvn.w	r2, #64	@ 0x40
 80020c0:	611a      	str	r2, [r3, #16]
#if (USE_HAL_TIM_REGISTER_CALLBACKS == 1)
      htim->TriggerCallback(htim);
#else
      HAL_TIM_TriggerCallback(htim);
 80020c2:	6878      	ldr	r0, [r7, #4]
 80020c4:	f000 f834 	bl	8002130 <HAL_TIM_TriggerCallback>
#endif /* USE_HAL_TIM_REGISTER_CALLBACKS */
    }
  }
  /* TIM commutation event */
  if ((itflag & (TIM_FLAG_COM)) == (TIM_FLAG_COM))
 80020c8:	68bb      	ldr	r3, [r7, #8]
 80020ca:	f003 0320 	and.w	r3, r3, #32
 80020ce:	2b00      	cmp	r3, #0
 80020d0:	d00c      	beq.n	80020ec <HAL_TIM_IRQHandler+0x1d8>
  {
    if ((itsource & (TIM_IT_COM)) == (TIM_IT_COM))
 80020d2:	68fb      	ldr	r3, [r7, #12]
 80020d4:	f003 0320 	and.w	r3, r3, #32
 80020d8:	2b00      	cmp	r3, #0
 80020da:	d007      	beq.n	80020ec <HAL_TIM_IRQHandler+0x1d8>
    {
      __HAL_TIM_CLEAR_FLAG(htim, TIM_FLAG_COM);
 80020dc:	687b      	ldr	r3, [r7, #4]
 80020de:	681b      	ldr	r3, [r3, #0]
 80020e0:	f06f 0220 	mvn.w	r2, #32
 80020e4:	611a      	str	r2, [r3, #16]
#if (USE_HAL_TIM_REGISTER_CALLBACKS == 1)
      htim->CommutationCallback(htim);
#else
      HAL_TIMEx_CommutCallback(htim);
 80020e6:	6878      	ldr	r0, [r7, #4]
 80020e8:	f000 f8d2 	bl	8002290 <HAL_TIMEx_CommutCallback>
#endif /* USE_HAL_TIM_REGISTER_CALLBACKS */
    }
  }
}
 80020ec:	bf00      	nop
 80020ee:	3710      	adds	r7, #16
 80020f0:	46bd      	mov	sp, r7
 80020f2:	bd80      	pop	{r7, pc}

080020f4 <HAL_TIM_OC_DelayElapsedCallback>:
  * @brief  Output Compare callback in non-blocking mode
  * @param  htim TIM OC handle
  * @retval None
  */
__weak void HAL_TIM_OC_DelayElapsedCallback(TIM_HandleTypeDef *htim)
{
 80020f4:	b480      	push	{r7}
 80020f6:	b083      	sub	sp, #12
 80020f8:	af00      	add	r7, sp, #0
 80020fa:	6078      	str	r0, [r7, #4]
  UNUSED(htim);

  /* NOTE : This function should not be modified, when the callback is needed,
            the HAL_TIM_OC_DelayElapsedCallback could be implemented in the user file
   */
}
 80020fc:	bf00      	nop
 80020fe:	370c      	adds	r7, #12
 8002100:	46bd      	mov	sp, r7
 8002102:	f85d 7b04 	ldr.w	r7, [sp], #4
 8002106:	4770      	bx	lr

08002108 <HAL_TIM_IC_CaptureCallback>:
  * @brief  Input Capture callback in non-blocking mode
  * @param  htim TIM IC handle
  * @retval None
  */
__weak void HAL_TIM_IC_CaptureCallback(TIM_HandleTypeDef *htim)
{
 8002108:	b480      	push	{r7}
 800210a:	b083      	sub	sp, #12
 800210c:	af00      	add	r7, sp, #0
 800210e:	6078      	str	r0, [r7, #4]
  UNUSED(htim);

  /* NOTE : This function should not be modified, when the callback is needed,
            the HAL_TIM_IC_CaptureCallback could be implemented in the user file
   */
}
 8002110:	bf00      	nop
 8002112:	370c      	adds	r7, #12
 8002114:	46bd      	mov	sp, r7
 8002116:	f85d 7b04 	ldr.w	r7, [sp], #4
 800211a:	4770      	bx	lr

0800211c <HAL_TIM_PWM_PulseFinishedCallback>:
  * @brief  PWM Pulse finished callback in non-blocking mode
  * @param  htim TIM handle
  * @retval None
  */
__weak void HAL_TIM_PWM_PulseFinishedCallback(TIM_HandleTypeDef *htim)
{
 800211c:	b480      	push	{r7}
 800211e:	b083      	sub	sp, #12
 8002120:	af00      	add	r7, sp, #0
 8002122:	6078      	str	r0, [r7, #4]
  UNUSED(htim);

  /* NOTE : This function should not be modified, when the callback is needed,
            the HAL_TIM_PWM_PulseFinishedCallback could be implemented in the user file
   */
}
 8002124:	bf00      	nop
 8002126:	370c      	adds	r7, #12
 8002128:	46bd      	mov	sp, r7
 800212a:	f85d 7b04 	ldr.w	r7, [sp], #4
 800212e:	4770      	bx	lr

08002130 <HAL_TIM_TriggerCallback>:
  * @brief  Hall Trigger detection callback in non-blocking mode
  * @param  htim TIM handle
  * @retval None
  */
__weak void HAL_TIM_TriggerCallback(TIM_HandleTypeDef *htim)
{
 8002130:	b480      	push	{r7}
 8002132:	b083      	sub	sp, #12
 8002134:	af00      	add	r7, sp, #0
 8002136:	6078      	str	r0, [r7, #4]
  UNUSED(htim);

  /* NOTE : This function should not be modified, when the callback is needed,
            the HAL_TIM_TriggerCallback could be implemented in the user file
   */
}
 8002138:	bf00      	nop
 800213a:	370c      	adds	r7, #12
 800213c:	46bd      	mov	sp, r7
 800213e:	f85d 7b04 	ldr.w	r7, [sp], #4
 8002142:	4770      	bx	lr

08002144 <TIM_Base_SetConfig>:
  * @param  TIMx TIM peripheral
  * @param  Structure TIM Base configuration structure
  * @retval None
  */
void TIM_Base_SetConfig(TIM_TypeDef *TIMx, const TIM_Base_InitTypeDef *Structure)
{
 8002144:	b480      	push	{r7}
 8002146:	b085      	sub	sp, #20
 8002148:	af00      	add	r7, sp, #0
 800214a:	6078      	str	r0, [r7, #4]
 800214c:	6039      	str	r1, [r7, #0]
  uint32_t tmpcr1;
  tmpcr1 = TIMx->CR1;
 800214e:	687b      	ldr	r3, [r7, #4]
 8002150:	681b      	ldr	r3, [r3, #0]
 8002152:	60fb      	str	r3, [r7, #12]

  /* Set TIM Time Base Unit parameters ---------------------------------------*/
  if (IS_TIM_COUNTER_MODE_SELECT_INSTANCE(TIMx))
 8002154:	687b      	ldr	r3, [r7, #4]
 8002156:	4a43      	ldr	r2, [pc, #268]	@ (8002264 <TIM_Base_SetConfig+0x120>)
 8002158:	4293      	cmp	r3, r2
 800215a:	d013      	beq.n	8002184 <TIM_Base_SetConfig+0x40>
 800215c:	687b      	ldr	r3, [r7, #4]
 800215e:	f1b3 4f80 	cmp.w	r3, #1073741824	@ 0x40000000
 8002162:	d00f      	beq.n	8002184 <TIM_Base_SetConfig+0x40>
 8002164:	687b      	ldr	r3, [r7, #4]
 8002166:	4a40      	ldr	r2, [pc, #256]	@ (8002268 <TIM_Base_SetConfig+0x124>)
 8002168:	4293      	cmp	r3, r2
 800216a:	d00b      	beq.n	8002184 <TIM_Base_SetConfig+0x40>
 800216c:	687b      	ldr	r3, [r7, #4]
 800216e:	4a3f      	ldr	r2, [pc, #252]	@ (800226c <TIM_Base_SetConfig+0x128>)
 8002170:	4293      	cmp	r3, r2
 8002172:	d007      	beq.n	8002184 <TIM_Base_SetConfig+0x40>
 8002174:	687b      	ldr	r3, [r7, #4]
 8002176:	4a3e      	ldr	r2, [pc, #248]	@ (8002270 <TIM_Base_SetConfig+0x12c>)
 8002178:	4293      	cmp	r3, r2
 800217a:	d003      	beq.n	8002184 <TIM_Base_SetConfig+0x40>
 800217c:	687b      	ldr	r3, [r7, #4]
 800217e:	4a3d      	ldr	r2, [pc, #244]	@ (8002274 <TIM_Base_SetConfig+0x130>)
 8002180:	4293      	cmp	r3, r2
 8002182:	d108      	bne.n	8002196 <TIM_Base_SetConfig+0x52>
  {
    /* Select the Counter Mode */
    tmpcr1 &= ~(TIM_CR1_DIR | TIM_CR1_CMS);
 8002184:	68fb      	ldr	r3, [r7, #12]
 8002186:	f023 0370 	bic.w	r3, r3, #112	@ 0x70
 800218a:	60fb      	str	r3, [r7, #12]
    tmpcr1 |= Structure->CounterMode;
 800218c:	683b      	ldr	r3, [r7, #0]
 800218e:	685b      	ldr	r3, [r3, #4]
 8002190:	68fa      	ldr	r2, [r7, #12]
 8002192:	4313      	orrs	r3, r2
 8002194:	60fb      	str	r3, [r7, #12]
  }

  if (IS_TIM_CLOCK_DIVISION_INSTANCE(TIMx))
 8002196:	687b      	ldr	r3, [r7, #4]
 8002198:	4a32      	ldr	r2, [pc, #200]	@ (8002264 <TIM_Base_SetConfig+0x120>)
 800219a:	4293      	cmp	r3, r2
 800219c:	d02b      	beq.n	80021f6 <TIM_Base_SetConfig+0xb2>
 800219e:	687b      	ldr	r3, [r7, #4]
 80021a0:	f1b3 4f80 	cmp.w	r3, #1073741824	@ 0x40000000
 80021a4:	d027      	beq.n	80021f6 <TIM_Base_SetConfig+0xb2>
 80021a6:	687b      	ldr	r3, [r7, #4]
 80021a8:	4a2f      	ldr	r2, [pc, #188]	@ (8002268 <TIM_Base_SetConfig+0x124>)
 80021aa:	4293      	cmp	r3, r2
 80021ac:	d023      	beq.n	80021f6 <TIM_Base_SetConfig+0xb2>
 80021ae:	687b      	ldr	r3, [r7, #4]
 80021b0:	4a2e      	ldr	r2, [pc, #184]	@ (800226c <TIM_Base_SetConfig+0x128>)
 80021b2:	4293      	cmp	r3, r2
 80021b4:	d01f      	beq.n	80021f6 <TIM_Base_SetConfig+0xb2>
 80021b6:	687b      	ldr	r3, [r7, #4]
 80021b8:	4a2d      	ldr	r2, [pc, #180]	@ (8002270 <TIM_Base_SetConfig+0x12c>)
 80021ba:	4293      	cmp	r3, r2
 80021bc:	d01b      	beq.n	80021f6 <TIM_Base_SetConfig+0xb2>
 80021be:	687b      	ldr	r3, [r7, #4]
 80021c0:	4a2c      	ldr	r2, [pc, #176]	@ (8002274 <TIM_Base_SetConfig+0x130>)
 80021c2:	4293      	cmp	r3, r2
 80021c4:	d017      	beq.n	80021f6 <TIM_Base_SetConfig+0xb2>
 80021c6:	687b      	ldr	r3, [r7, #4]
 80021c8:	4a2b      	ldr	r2, [pc, #172]	@ (8002278 <TIM_Base_SetConfig+0x134>)
 80021ca:	4293      	cmp	r3, r2
 80021cc:	d013      	beq.n	80021f6 <TIM_Base_SetConfig+0xb2>
 80021ce:	687b      	ldr	r3, [r7, #4]
 80021d0:	4a2a      	ldr	r2, [pc, #168]	@ (800227c <TIM_Base_SetConfig+0x138>)
 80021d2:	4293      	cmp	r3, r2
 80021d4:	d00f      	beq.n	80021f6 <TIM_Base_SetConfig+0xb2>
 80021d6:	687b      	ldr	r3, [r7, #4]
 80021d8:	4a29      	ldr	r2, [pc, #164]	@ (8002280 <TIM_Base_SetConfig+0x13c>)
 80021da:	4293      	cmp	r3, r2
 80021dc:	d00b      	beq.n	80021f6 <TIM_Base_SetConfig+0xb2>
 80021de:	687b      	ldr	r3, [r7, #4]
 80021e0:	4a28      	ldr	r2, [pc, #160]	@ (8002284 <TIM_Base_SetConfig+0x140>)
 80021e2:	4293      	cmp	r3, r2
 80021e4:	d007      	beq.n	80021f6 <TIM_Base_SetConfig+0xb2>
 80021e6:	687b      	ldr	r3, [r7, #4]
 80021e8:	4a27      	ldr	r2, [pc, #156]	@ (8002288 <TIM_Base_SetConfig+0x144>)
 80021ea:	4293      	cmp	r3, r2
 80021ec:	d003      	beq.n	80021f6 <TIM_Base_SetConfig+0xb2>
 80021ee:	687b      	ldr	r3, [r7, #4]
 80021f0:	4a26      	ldr	r2, [pc, #152]	@ (800228c <TIM_Base_SetConfig+0x148>)
 80021f2:	4293      	cmp	r3, r2
 80021f4:	d108      	bne.n	8002208 <TIM_Base_SetConfig+0xc4>
  {
    /* Set the clock division */
    tmpcr1 &= ~TIM_CR1_CKD;
 80021f6:	68fb      	ldr	r3, [r7, #12]
 80021f8:	f423 7340 	bic.w	r3, r3, #768	@ 0x300
 80021fc:	60fb      	str	r3, [r7, #12]
    tmpcr1 |= (uint32_t)Structure->ClockDivision;
 80021fe:	683b      	ldr	r3, [r7, #0]
 8002200:	68db      	ldr	r3, [r3, #12]
 8002202:	68fa      	ldr	r2, [r7, #12]
 8002204:	4313      	orrs	r3, r2
 8002206:	60fb      	str	r3, [r7, #12]
  }

  /* Set the auto-reload preload */
  MODIFY_REG(tmpcr1, TIM_CR1_ARPE, Structure->AutoReloadPreload);
 8002208:	68fb      	ldr	r3, [r7, #12]
 800220a:	f023 0280 	bic.w	r2, r3, #128	@ 0x80
 800220e:	683b      	ldr	r3, [r7, #0]
 8002210:	695b      	ldr	r3, [r3, #20]
 8002212:	4313      	orrs	r3, r2
 8002214:	60fb      	str	r3, [r7, #12]

  /* Set the Autoreload value */
  TIMx->ARR = (uint32_t)Structure->Period ;
 8002216:	683b      	ldr	r3, [r7, #0]
 8002218:	689a      	ldr	r2, [r3, #8]
 800221a:	687b      	ldr	r3, [r7, #4]
 800221c:	62da      	str	r2, [r3, #44]	@ 0x2c

  /* Set the Prescaler value */
  TIMx->PSC = Structure->Prescaler;
 800221e:	683b      	ldr	r3, [r7, #0]
 8002220:	681a      	ldr	r2, [r3, #0]
 8002222:	687b      	ldr	r3, [r7, #4]
 8002224:	629a      	str	r2, [r3, #40]	@ 0x28

  if (IS_TIM_REPETITION_COUNTER_INSTANCE(TIMx))
 8002226:	687b      	ldr	r3, [r7, #4]
 8002228:	4a0e      	ldr	r2, [pc, #56]	@ (8002264 <TIM_Base_SetConfig+0x120>)
 800222a:	4293      	cmp	r3, r2
 800222c:	d003      	beq.n	8002236 <TIM_Base_SetConfig+0xf2>
 800222e:	687b      	ldr	r3, [r7, #4]
 8002230:	4a10      	ldr	r2, [pc, #64]	@ (8002274 <TIM_Base_SetConfig+0x130>)
 8002232:	4293      	cmp	r3, r2
 8002234:	d103      	bne.n	800223e <TIM_Base_SetConfig+0xfa>
  {
    /* Set the Repetition Counter value */
    TIMx->RCR = Structure->RepetitionCounter;
 8002236:	683b      	ldr	r3, [r7, #0]
 8002238:	691a      	ldr	r2, [r3, #16]
 800223a:	687b      	ldr	r3, [r7, #4]
 800223c:	631a      	str	r2, [r3, #48]	@ 0x30
  }

  /* Disable Update Event (UEV) with Update Generation (UG)
     by changing Update Request Source (URS) to avoid Update flag (UIF) */
  SET_BIT(TIMx->CR1, TIM_CR1_URS);
 800223e:	687b      	ldr	r3, [r7, #4]
 8002240:	681b      	ldr	r3, [r3, #0]
 8002242:	f043 0204 	orr.w	r2, r3, #4
 8002246:	687b      	ldr	r3, [r7, #4]
 8002248:	601a      	str	r2, [r3, #0]

  /* Generate an update event to reload the Prescaler
     and the repetition counter (only for advanced timer) value immediately */
  TIMx->EGR = TIM_EGR_UG;
 800224a:	687b      	ldr	r3, [r7, #4]
 800224c:	2201      	movs	r2, #1
 800224e:	615a      	str	r2, [r3, #20]

  TIMx->CR1 = tmpcr1;
 8002250:	687b      	ldr	r3, [r7, #4]
 8002252:	68fa      	ldr	r2, [r7, #12]
 8002254:	601a      	str	r2, [r3, #0]
}
 8002256:	bf00      	nop
 8002258:	3714      	adds	r7, #20
 800225a:	46bd      	mov	sp, r7
 800225c:	f85d 7b04 	ldr.w	r7, [sp], #4
 8002260:	4770      	bx	lr
 8002262:	bf00      	nop
 8002264:	40010000 	.word	0x40010000
 8002268:	40000400 	.word	0x40000400
 800226c:	40000800 	.word	0x40000800
 8002270:	40000c00 	.word	0x40000c00
 8002274:	40010400 	.word	0x40010400
 8002278:	40014000 	.word	0x40014000
 800227c:	40014400 	.word	0x40014400
 8002280:	40014800 	.word	0x40014800
 8002284:	40001800 	.word	0x40001800
 8002288:	40001c00 	.word	0x40001c00
 800228c:	40002000 	.word	0x40002000

08002290 <HAL_TIMEx_CommutCallback>:
  * @brief  Commutation callback in non-blocking mode
  * @param  htim TIM handle
  * @retval None
  */
__weak void HAL_TIMEx_CommutCallback(TIM_HandleTypeDef *htim)
{
 8002290:	b480      	push	{r7}
 8002292:	b083      	sub	sp, #12
 8002294:	af00      	add	r7, sp, #0
 8002296:	6078      	str	r0, [r7, #4]
  UNUSED(htim);

  /* NOTE : This function should not be modified, when the callback is needed,
            the HAL_TIMEx_CommutCallback could be implemented in the user file
   */
}
 8002298:	bf00      	nop
 800229a:	370c      	adds	r7, #12
 800229c:	46bd      	mov	sp, r7
 800229e:	f85d 7b04 	ldr.w	r7, [sp], #4
 80022a2:	4770      	bx	lr

080022a4 <HAL_TIMEx_BreakCallback>:
  * @brief  Break detection callback in non-blocking mode
  * @param  htim TIM handle
  * @retval None
  */
__weak void HAL_TIMEx_BreakCallback(TIM_HandleTypeDef *htim)
{
 80022a4:	b480      	push	{r7}
 80022a6:	b083      	sub	sp, #12
 80022a8:	af00      	add	r7, sp, #0
 80022aa:	6078      	str	r0, [r7, #4]
  UNUSED(htim);

  /* NOTE : This function should not be modified, when the callback is needed,
            the HAL_TIMEx_BreakCallback could be implemented in the user file
   */
}
 80022ac:	bf00      	nop
 80022ae:	370c      	adds	r7, #12
 80022b0:	46bd      	mov	sp, r7
 80022b2:	f85d 7b04 	ldr.w	r7, [sp], #4
 80022b6:	4770      	bx	lr

080022b8 <vListInitialise>:
/*-----------------------------------------------------------
* PUBLIC LIST API documented in list.h
*----------------------------------------------------------*/

void vListInitialise( List_t * const pxList )
{
 80022b8:	b580      	push	{r7, lr}
 80022ba:	b082      	sub	sp, #8
 80022bc:	af00      	add	r7, sp, #0
 80022be:	6078      	str	r0, [r7, #4]
    traceENTER_vListInitialise( pxList );
 80022c0:	687b      	ldr	r3, [r7, #4]
 80022c2:	4618      	mov	r0, r3
 80022c4:	f003 fdc2 	bl	8005e4c <SEGGER_SYSVIEW_ShrinkId>
 80022c8:	4603      	mov	r3, r0
 80022ca:	4619      	mov	r1, r3
 80022cc:	f240 1019 	movw	r0, #281	@ 0x119
 80022d0:	f002 fe96 	bl	8005000 <SEGGER_SYSVIEW_RecordU32>

    /* The list structure contains a list item which is used to mark the
     * end of the list.  To initialise the list the list end is inserted
     * as the only list entry. */
    pxList->pxIndex = ( ListItem_t * ) &( pxList->xListEnd );
 80022d4:	687b      	ldr	r3, [r7, #4]
 80022d6:	f103 0208 	add.w	r2, r3, #8
 80022da:	687b      	ldr	r3, [r7, #4]
 80022dc:	605a      	str	r2, [r3, #4]

    listSET_FIRST_LIST_ITEM_INTEGRITY_CHECK_VALUE( &( pxList->xListEnd ) );

    /* The list end value is the highest possible value in the list to
     * ensure it remains at the end of the list. */
    pxList->xListEnd.xItemValue = portMAX_DELAY;
 80022de:	687b      	ldr	r3, [r7, #4]
 80022e0:	f04f 32ff 	mov.w	r2, #4294967295	@ 0xffffffff
 80022e4:	609a      	str	r2, [r3, #8]

    /* The list end next and previous pointers point to itself so we know
     * when the list is empty. */
    pxList->xListEnd.pxNext = ( ListItem_t * ) &( pxList->xListEnd );
 80022e6:	687b      	ldr	r3, [r7, #4]
 80022e8:	f103 0208 	add.w	r2, r3, #8
 80022ec:	687b      	ldr	r3, [r7, #4]
 80022ee:	60da      	str	r2, [r3, #12]
    pxList->xListEnd.pxPrevious = ( ListItem_t * ) &( pxList->xListEnd );
 80022f0:	687b      	ldr	r3, [r7, #4]
 80022f2:	f103 0208 	add.w	r2, r3, #8
 80022f6:	687b      	ldr	r3, [r7, #4]
 80022f8:	611a      	str	r2, [r3, #16]
        pxList->xListEnd.pxContainer = NULL;
        listSET_SECOND_LIST_ITEM_INTEGRITY_CHECK_VALUE( &( pxList->xListEnd ) );
    }
    #endif

    pxList->uxNumberOfItems = ( UBaseType_t ) 0U;
 80022fa:	687b      	ldr	r3, [r7, #4]
 80022fc:	2200      	movs	r2, #0
 80022fe:	601a      	str	r2, [r3, #0]
    /* Write known values into the list if
     * configUSE_LIST_DATA_INTEGRITY_CHECK_BYTES is set to 1. */
    listSET_LIST_INTEGRITY_CHECK_1_VALUE( pxList );
    listSET_LIST_INTEGRITY_CHECK_2_VALUE( pxList );

    traceRETURN_vListInitialise();
 8002300:	f240 1019 	movw	r0, #281	@ 0x119
 8002304:	f003 fbcc 	bl	8005aa0 <SEGGER_SYSVIEW_RecordEndCall>
}
 8002308:	bf00      	nop
 800230a:	3708      	adds	r7, #8
 800230c:	46bd      	mov	sp, r7
 800230e:	bd80      	pop	{r7, pc}

08002310 <vListInitialiseItem>:
/*-----------------------------------------------------------*/

void vListInitialiseItem( ListItem_t * const pxItem )
{
 8002310:	b580      	push	{r7, lr}
 8002312:	b082      	sub	sp, #8
 8002314:	af00      	add	r7, sp, #0
 8002316:	6078      	str	r0, [r7, #4]
    traceENTER_vListInitialiseItem( pxItem );
 8002318:	687b      	ldr	r3, [r7, #4]
 800231a:	4618      	mov	r0, r3
 800231c:	f003 fd96 	bl	8005e4c <SEGGER_SYSVIEW_ShrinkId>
 8002320:	4603      	mov	r3, r0
 8002322:	4619      	mov	r1, r3
 8002324:	f44f 708d 	mov.w	r0, #282	@ 0x11a
 8002328:	f002 fe6a 	bl	8005000 <SEGGER_SYSVIEW_RecordU32>

    /* Make sure the list item is not recorded as being on a list. */
    pxItem->pxContainer = NULL;
 800232c:	687b      	ldr	r3, [r7, #4]
 800232e:	2200      	movs	r2, #0
 8002330:	611a      	str	r2, [r3, #16]
    /* Write known values into the list item if
     * configUSE_LIST_DATA_INTEGRITY_CHECK_BYTES is set to 1. */
    listSET_FIRST_LIST_ITEM_INTEGRITY_CHECK_VALUE( pxItem );
    listSET_SECOND_LIST_ITEM_INTEGRITY_CHECK_VALUE( pxItem );

    traceRETURN_vListInitialiseItem();
 8002332:	f44f 708d 	mov.w	r0, #282	@ 0x11a
 8002336:	f003 fbb3 	bl	8005aa0 <SEGGER_SYSVIEW_RecordEndCall>
}
 800233a:	bf00      	nop
 800233c:	3708      	adds	r7, #8
 800233e:	46bd      	mov	sp, r7
 8002340:	bd80      	pop	{r7, pc}

08002342 <vListInsertEnd>:
/*-----------------------------------------------------------*/

void vListInsertEnd( List_t * const pxList,
                     ListItem_t * const pxNewListItem )
{
 8002342:	b590      	push	{r4, r7, lr}
 8002344:	b085      	sub	sp, #20
 8002346:	af00      	add	r7, sp, #0
 8002348:	6078      	str	r0, [r7, #4]
 800234a:	6039      	str	r1, [r7, #0]
    ListItem_t * const pxIndex = pxList->pxIndex;
 800234c:	687b      	ldr	r3, [r7, #4]
 800234e:	685b      	ldr	r3, [r3, #4]
 8002350:	60fb      	str	r3, [r7, #12]

    traceENTER_vListInsertEnd( pxList, pxNewListItem );
 8002352:	687b      	ldr	r3, [r7, #4]
 8002354:	4618      	mov	r0, r3
 8002356:	f003 fd79 	bl	8005e4c <SEGGER_SYSVIEW_ShrinkId>
 800235a:	4604      	mov	r4, r0
 800235c:	683b      	ldr	r3, [r7, #0]
 800235e:	4618      	mov	r0, r3
 8002360:	f003 fd74 	bl	8005e4c <SEGGER_SYSVIEW_ShrinkId>
 8002364:	4603      	mov	r3, r0
 8002366:	461a      	mov	r2, r3
 8002368:	4621      	mov	r1, r4
 800236a:	f240 101b 	movw	r0, #283	@ 0x11b
 800236e:	f002 fe83 	bl	8005078 <SEGGER_SYSVIEW_RecordU32x2>
    listTEST_LIST_ITEM_INTEGRITY( pxNewListItem );

    /* Insert a new list item into pxList, but rather than sort the list,
     * makes the new list item the last item to be removed by a call to
     * listGET_OWNER_OF_NEXT_ENTRY(). */
    pxNewListItem->pxNext = pxIndex;
 8002372:	683b      	ldr	r3, [r7, #0]
 8002374:	68fa      	ldr	r2, [r7, #12]
 8002376:	605a      	str	r2, [r3, #4]
    pxNewListItem->pxPrevious = pxIndex->pxPrevious;
 8002378:	68fb      	ldr	r3, [r7, #12]
 800237a:	689a      	ldr	r2, [r3, #8]
 800237c:	683b      	ldr	r3, [r7, #0]
 800237e:	609a      	str	r2, [r3, #8]

    /* Only used during decision coverage testing. */
    mtCOVERAGE_TEST_DELAY();

    pxIndex->pxPrevious->pxNext = pxNewListItem;
 8002380:	68fb      	ldr	r3, [r7, #12]
 8002382:	689b      	ldr	r3, [r3, #8]
 8002384:	683a      	ldr	r2, [r7, #0]
 8002386:	605a      	str	r2, [r3, #4]
    pxIndex->pxPrevious = pxNewListItem;
 8002388:	68fb      	ldr	r3, [r7, #12]
 800238a:	683a      	ldr	r2, [r7, #0]
 800238c:	609a      	str	r2, [r3, #8]

    /* Remember which list the item is in. */
    pxNewListItem->pxContainer = pxList;
 800238e:	683b      	ldr	r3, [r7, #0]
 8002390:	687a      	ldr	r2, [r7, #4]
 8002392:	611a      	str	r2, [r3, #16]

    ( pxList->uxNumberOfItems )++;
 8002394:	687b      	ldr	r3, [r7, #4]
 8002396:	681b      	ldr	r3, [r3, #0]
 8002398:	1c5a      	adds	r2, r3, #1
 800239a:	687b      	ldr	r3, [r7, #4]
 800239c:	601a      	str	r2, [r3, #0]

    traceRETURN_vListInsertEnd();
 800239e:	f240 101b 	movw	r0, #283	@ 0x11b
 80023a2:	f003 fb7d 	bl	8005aa0 <SEGGER_SYSVIEW_RecordEndCall>
}
 80023a6:	bf00      	nop
 80023a8:	3714      	adds	r7, #20
 80023aa:	46bd      	mov	sp, r7
 80023ac:	bd90      	pop	{r4, r7, pc}

080023ae <vListInsert>:
/*-----------------------------------------------------------*/

void vListInsert( List_t * const pxList,
                  ListItem_t * const pxNewListItem )
{
 80023ae:	b590      	push	{r4, r7, lr}
 80023b0:	b085      	sub	sp, #20
 80023b2:	af00      	add	r7, sp, #0
 80023b4:	6078      	str	r0, [r7, #4]
 80023b6:	6039      	str	r1, [r7, #0]
    ListItem_t * pxIterator;
    const TickType_t xValueOfInsertion = pxNewListItem->xItemValue;
 80023b8:	683b      	ldr	r3, [r7, #0]
 80023ba:	681b      	ldr	r3, [r3, #0]
 80023bc:	60bb      	str	r3, [r7, #8]

    traceENTER_vListInsert( pxList, pxNewListItem );
 80023be:	687b      	ldr	r3, [r7, #4]
 80023c0:	4618      	mov	r0, r3
 80023c2:	f003 fd43 	bl	8005e4c <SEGGER_SYSVIEW_ShrinkId>
 80023c6:	4604      	mov	r4, r0
 80023c8:	683b      	ldr	r3, [r7, #0]
 80023ca:	4618      	mov	r0, r3
 80023cc:	f003 fd3e 	bl	8005e4c <SEGGER_SYSVIEW_ShrinkId>
 80023d0:	4603      	mov	r3, r0
 80023d2:	461a      	mov	r2, r3
 80023d4:	4621      	mov	r1, r4
 80023d6:	f44f 708e 	mov.w	r0, #284	@ 0x11c
 80023da:	f002 fe4d 	bl	8005078 <SEGGER_SYSVIEW_RecordU32x2>
     * new list item should be placed after it.  This ensures that TCBs which are
     * stored in ready lists (all of which have the same xItemValue value) get a
     * share of the CPU.  However, if the xItemValue is the same as the back marker
     * the iteration loop below will not end.  Therefore the value is checked
     * first, and the algorithm slightly modified if necessary. */
    if( xValueOfInsertion == portMAX_DELAY )
 80023de:	68bb      	ldr	r3, [r7, #8]
 80023e0:	f1b3 3fff 	cmp.w	r3, #4294967295	@ 0xffffffff
 80023e4:	d103      	bne.n	80023ee <vListInsert+0x40>
    {
        pxIterator = pxList->xListEnd.pxPrevious;
 80023e6:	687b      	ldr	r3, [r7, #4]
 80023e8:	691b      	ldr	r3, [r3, #16]
 80023ea:	60fb      	str	r3, [r7, #12]
 80023ec:	e00c      	b.n	8002408 <vListInsert+0x5a>
        *   5) If the FreeRTOS port supports interrupt nesting then ensure that
        *      the priority of the tick interrupt is at or below
        *      configMAX_SYSCALL_INTERRUPT_PRIORITY.
        **********************************************************************/

        for( pxIterator = ( ListItem_t * ) &( pxList->xListEnd ); pxIterator->pxNext->xItemValue <= xValueOfInsertion; pxIterator = pxIterator->pxNext )
 80023ee:	687b      	ldr	r3, [r7, #4]
 80023f0:	3308      	adds	r3, #8
 80023f2:	60fb      	str	r3, [r7, #12]
 80023f4:	e002      	b.n	80023fc <vListInsert+0x4e>
 80023f6:	68fb      	ldr	r3, [r7, #12]
 80023f8:	685b      	ldr	r3, [r3, #4]
 80023fa:	60fb      	str	r3, [r7, #12]
 80023fc:	68fb      	ldr	r3, [r7, #12]
 80023fe:	685b      	ldr	r3, [r3, #4]
 8002400:	681b      	ldr	r3, [r3, #0]
 8002402:	68ba      	ldr	r2, [r7, #8]
 8002404:	429a      	cmp	r2, r3
 8002406:	d2f6      	bcs.n	80023f6 <vListInsert+0x48>
            /* There is nothing to do here, just iterating to the wanted
             * insertion position. */
        }
    }

    pxNewListItem->pxNext = pxIterator->pxNext;
 8002408:	68fb      	ldr	r3, [r7, #12]
 800240a:	685a      	ldr	r2, [r3, #4]
 800240c:	683b      	ldr	r3, [r7, #0]
 800240e:	605a      	str	r2, [r3, #4]
    pxNewListItem->pxNext->pxPrevious = pxNewListItem;
 8002410:	683b      	ldr	r3, [r7, #0]
 8002412:	685b      	ldr	r3, [r3, #4]
 8002414:	683a      	ldr	r2, [r7, #0]
 8002416:	609a      	str	r2, [r3, #8]
    pxNewListItem->pxPrevious = pxIterator;
 8002418:	683b      	ldr	r3, [r7, #0]
 800241a:	68fa      	ldr	r2, [r7, #12]
 800241c:	609a      	str	r2, [r3, #8]
    pxIterator->pxNext = pxNewListItem;
 800241e:	68fb      	ldr	r3, [r7, #12]
 8002420:	683a      	ldr	r2, [r7, #0]
 8002422:	605a      	str	r2, [r3, #4]

    /* Remember which list the item is in.  This allows fast removal of the
     * item later. */
    pxNewListItem->pxContainer = pxList;
 8002424:	683b      	ldr	r3, [r7, #0]
 8002426:	687a      	ldr	r2, [r7, #4]
 8002428:	611a      	str	r2, [r3, #16]

    ( pxList->uxNumberOfItems )++;
 800242a:	687b      	ldr	r3, [r7, #4]
 800242c:	681b      	ldr	r3, [r3, #0]
 800242e:	1c5a      	adds	r2, r3, #1
 8002430:	687b      	ldr	r3, [r7, #4]
 8002432:	601a      	str	r2, [r3, #0]

    traceRETURN_vListInsert();
 8002434:	f44f 708e 	mov.w	r0, #284	@ 0x11c
 8002438:	f003 fb32 	bl	8005aa0 <SEGGER_SYSVIEW_RecordEndCall>
}
 800243c:	bf00      	nop
 800243e:	3714      	adds	r7, #20
 8002440:	46bd      	mov	sp, r7
 8002442:	bd90      	pop	{r4, r7, pc}

08002444 <uxListRemove>:
/*-----------------------------------------------------------*/

UBaseType_t uxListRemove( ListItem_t * const pxItemToRemove )
{
 8002444:	b580      	push	{r7, lr}
 8002446:	b084      	sub	sp, #16
 8002448:	af00      	add	r7, sp, #0
 800244a:	6078      	str	r0, [r7, #4]
    /* The list item knows which list it is in.  Obtain the list from the list
     * item. */
    List_t * const pxList = pxItemToRemove->pxContainer;
 800244c:	687b      	ldr	r3, [r7, #4]
 800244e:	691b      	ldr	r3, [r3, #16]
 8002450:	60fb      	str	r3, [r7, #12]

    traceENTER_uxListRemove( pxItemToRemove );
 8002452:	687b      	ldr	r3, [r7, #4]
 8002454:	4618      	mov	r0, r3
 8002456:	f003 fcf9 	bl	8005e4c <SEGGER_SYSVIEW_ShrinkId>
 800245a:	4603      	mov	r3, r0
 800245c:	4619      	mov	r1, r3
 800245e:	f240 101d 	movw	r0, #285	@ 0x11d
 8002462:	f002 fdcd 	bl	8005000 <SEGGER_SYSVIEW_RecordU32>



    pxItemToRemove->pxNext->pxPrevious = pxItemToRemove->pxPrevious;
 8002466:	687b      	ldr	r3, [r7, #4]
 8002468:	685b      	ldr	r3, [r3, #4]
 800246a:	687a      	ldr	r2, [r7, #4]
 800246c:	6892      	ldr	r2, [r2, #8]
 800246e:	609a      	str	r2, [r3, #8]
    pxItemToRemove->pxPrevious->pxNext = pxItemToRemove->pxNext;
 8002470:	687b      	ldr	r3, [r7, #4]
 8002472:	689b      	ldr	r3, [r3, #8]
 8002474:	687a      	ldr	r2, [r7, #4]
 8002476:	6852      	ldr	r2, [r2, #4]
 8002478:	605a      	str	r2, [r3, #4]

    /* Only used during decision coverage testing. */
    mtCOVERAGE_TEST_DELAY();

    /* Make sure the index is left pointing to a valid item. */
    if( pxList->pxIndex == pxItemToRemove )
 800247a:	68fb      	ldr	r3, [r7, #12]
 800247c:	685b      	ldr	r3, [r3, #4]
 800247e:	687a      	ldr	r2, [r7, #4]
 8002480:	429a      	cmp	r2, r3
 8002482:	d103      	bne.n	800248c <uxListRemove+0x48>
    {
        pxList->pxIndex = pxItemToRemove->pxPrevious;
 8002484:	687b      	ldr	r3, [r7, #4]
 8002486:	689a      	ldr	r2, [r3, #8]
 8002488:	68fb      	ldr	r3, [r7, #12]
 800248a:	605a      	str	r2, [r3, #4]
    else
    {
        mtCOVERAGE_TEST_MARKER();
    }

    pxItemToRemove->pxContainer = NULL;
 800248c:	687b      	ldr	r3, [r7, #4]
 800248e:	2200      	movs	r2, #0
 8002490:	611a      	str	r2, [r3, #16]
    ( pxList->uxNumberOfItems )--;
 8002492:	68fb      	ldr	r3, [r7, #12]
 8002494:	681b      	ldr	r3, [r3, #0]
 8002496:	1e5a      	subs	r2, r3, #1
 8002498:	68fb      	ldr	r3, [r7, #12]
 800249a:	601a      	str	r2, [r3, #0]

    traceRETURN_uxListRemove( pxList->uxNumberOfItems );
 800249c:	68fb      	ldr	r3, [r7, #12]
 800249e:	681b      	ldr	r3, [r3, #0]
 80024a0:	4619      	mov	r1, r3
 80024a2:	f240 101d 	movw	r0, #285	@ 0x11d
 80024a6:	f003 fb37 	bl	8005b18 <SEGGER_SYSVIEW_RecordEndCallU32>

    return pxList->uxNumberOfItems;
 80024aa:	68fb      	ldr	r3, [r7, #12]
 80024ac:	681b      	ldr	r3, [r3, #0]
}
 80024ae:	4618      	mov	r0, r3
 80024b0:	3710      	adds	r7, #16
 80024b2:	46bd      	mov	sp, r7
 80024b4:	bd80      	pop	{r7, pc}

080024b6 <prvCreateTask>:
                                  const char * const pcName,
                                  const configSTACK_DEPTH_TYPE usStackDepth,
                                  void * const pvParameters,
                                  UBaseType_t uxPriority,
                                  TaskHandle_t * const pxCreatedTask )
    {
 80024b6:	b580      	push	{r7, lr}
 80024b8:	b08a      	sub	sp, #40	@ 0x28
 80024ba:	af04      	add	r7, sp, #16
 80024bc:	60f8      	str	r0, [r7, #12]
 80024be:	60b9      	str	r1, [r7, #8]
 80024c0:	607a      	str	r2, [r7, #4]
 80024c2:	603b      	str	r3, [r7, #0]

            /* Allocate space for the stack used by the task being created. */
            /* MISRA Ref 11.5.1 [Malloc memory assignment] */
            /* More details at: https://github.com/FreeRTOS/FreeRTOS-Kernel/blob/main/MISRA.md#rule-115 */
            /* coverity[misra_c_2012_rule_11_5_violation] */
            pxStack = pvPortMallocStack( ( ( ( size_t ) usStackDepth ) * sizeof( StackType_t ) ) );
 80024c4:	687b      	ldr	r3, [r7, #4]
 80024c6:	009b      	lsls	r3, r3, #2
 80024c8:	4618      	mov	r0, r3
 80024ca:	f001 fc71 	bl	8003db0 <pvPortMalloc>
 80024ce:	6138      	str	r0, [r7, #16]

            if( pxStack != NULL )
 80024d0:	693b      	ldr	r3, [r7, #16]
 80024d2:	2b00      	cmp	r3, #0
 80024d4:	d013      	beq.n	80024fe <prvCreateTask+0x48>
            {
                /* Allocate space for the TCB. */
                /* MISRA Ref 11.5.1 [Malloc memory assignment] */
                /* More details at: https://github.com/FreeRTOS/FreeRTOS-Kernel/blob/main/MISRA.md#rule-115 */
                /* coverity[misra_c_2012_rule_11_5_violation] */
                pxNewTCB = ( TCB_t * ) pvPortMalloc( sizeof( TCB_t ) );
 80024d6:	2058      	movs	r0, #88	@ 0x58
 80024d8:	f001 fc6a 	bl	8003db0 <pvPortMalloc>
 80024dc:	6178      	str	r0, [r7, #20]

                if( pxNewTCB != NULL )
 80024de:	697b      	ldr	r3, [r7, #20]
 80024e0:	2b00      	cmp	r3, #0
 80024e2:	d008      	beq.n	80024f6 <prvCreateTask+0x40>
                {
                    ( void ) memset( ( void * ) pxNewTCB, 0x00, sizeof( TCB_t ) );
 80024e4:	2258      	movs	r2, #88	@ 0x58
 80024e6:	2100      	movs	r1, #0
 80024e8:	6978      	ldr	r0, [r7, #20]
 80024ea:	f003 fe11 	bl	8006110 <memset>

                    /* Store the stack location in the TCB. */
                    pxNewTCB->pxStack = pxStack;
 80024ee:	697b      	ldr	r3, [r7, #20]
 80024f0:	693a      	ldr	r2, [r7, #16]
 80024f2:	631a      	str	r2, [r3, #48]	@ 0x30
 80024f4:	e005      	b.n	8002502 <prvCreateTask+0x4c>
                }
                else
                {
                    /* The stack cannot be used as the TCB was not created.  Free
                     * it again. */
                    vPortFreeStack( pxStack );
 80024f6:	6938      	ldr	r0, [r7, #16]
 80024f8:	f001 fd8c 	bl	8004014 <vPortFree>
 80024fc:	e001      	b.n	8002502 <prvCreateTask+0x4c>
                }
            }
            else
            {
                pxNewTCB = NULL;
 80024fe:	2300      	movs	r3, #0
 8002500:	617b      	str	r3, [r7, #20]
            }
        }
        #endif /* portSTACK_GROWTH */

        if( pxNewTCB != NULL )
 8002502:	697b      	ldr	r3, [r7, #20]
 8002504:	2b00      	cmp	r3, #0
 8002506:	d00d      	beq.n	8002524 <prvCreateTask+0x6e>
                 * task was created dynamically in case it is later deleted. */
                pxNewTCB->ucStaticallyAllocated = tskDYNAMICALLY_ALLOCATED_STACK_AND_TCB;
            }
            #endif /* tskSTATIC_AND_DYNAMIC_ALLOCATION_POSSIBLE */

            prvInitialiseNewTask( pxTaskCode, pcName, ( uint32_t ) usStackDepth, pvParameters, uxPriority, pxCreatedTask, pxNewTCB, NULL );
 8002508:	2300      	movs	r3, #0
 800250a:	9303      	str	r3, [sp, #12]
 800250c:	697b      	ldr	r3, [r7, #20]
 800250e:	9302      	str	r3, [sp, #8]
 8002510:	6a7b      	ldr	r3, [r7, #36]	@ 0x24
 8002512:	9301      	str	r3, [sp, #4]
 8002514:	6a3b      	ldr	r3, [r7, #32]
 8002516:	9300      	str	r3, [sp, #0]
 8002518:	683b      	ldr	r3, [r7, #0]
 800251a:	687a      	ldr	r2, [r7, #4]
 800251c:	68b9      	ldr	r1, [r7, #8]
 800251e:	68f8      	ldr	r0, [r7, #12]
 8002520:	f000 f84b 	bl	80025ba <prvInitialiseNewTask>
        }

        return pxNewTCB;
 8002524:	697b      	ldr	r3, [r7, #20]
    }
 8002526:	4618      	mov	r0, r3
 8002528:	3718      	adds	r7, #24
 800252a:	46bd      	mov	sp, r7
 800252c:	bd80      	pop	{r7, pc}

0800252e <xTaskCreate>:
                            const char * const pcName,
                            const configSTACK_DEPTH_TYPE usStackDepth,
                            void * const pvParameters,
                            UBaseType_t uxPriority,
                            TaskHandle_t * const pxCreatedTask )
    {
 800252e:	b5f0      	push	{r4, r5, r6, r7, lr}
 8002530:	b08b      	sub	sp, #44	@ 0x2c
 8002532:	af04      	add	r7, sp, #16
 8002534:	60f8      	str	r0, [r7, #12]
 8002536:	60b9      	str	r1, [r7, #8]
 8002538:	607a      	str	r2, [r7, #4]
 800253a:	603b      	str	r3, [r7, #0]
        TCB_t * pxNewTCB;
        BaseType_t xReturn;

        traceENTER_xTaskCreate( pxTaskCode, pcName, usStackDepth, pvParameters, uxPriority, pxCreatedTask );
 800253c:	68fb      	ldr	r3, [r7, #12]
 800253e:	4618      	mov	r0, r3
 8002540:	f003 fc84 	bl	8005e4c <SEGGER_SYSVIEW_ShrinkId>
 8002544:	4605      	mov	r5, r0
 8002546:	68bb      	ldr	r3, [r7, #8]
 8002548:	4618      	mov	r0, r3
 800254a:	f003 fc7f 	bl	8005e4c <SEGGER_SYSVIEW_ShrinkId>
 800254e:	4606      	mov	r6, r0
 8002550:	683b      	ldr	r3, [r7, #0]
 8002552:	4618      	mov	r0, r3
 8002554:	f003 fc7a 	bl	8005e4c <SEGGER_SYSVIEW_ShrinkId>
 8002558:	4604      	mov	r4, r0
 800255a:	6b7b      	ldr	r3, [r7, #52]	@ 0x34
 800255c:	4618      	mov	r0, r3
 800255e:	f003 fc75 	bl	8005e4c <SEGGER_SYSVIEW_ShrinkId>
 8002562:	4603      	mov	r3, r0
 8002564:	9302      	str	r3, [sp, #8]
 8002566:	6b3b      	ldr	r3, [r7, #48]	@ 0x30
 8002568:	9301      	str	r3, [sp, #4]
 800256a:	9400      	str	r4, [sp, #0]
 800256c:	687b      	ldr	r3, [r7, #4]
 800256e:	4632      	mov	r2, r6
 8002570:	4629      	mov	r1, r5
 8002572:	20c2      	movs	r0, #194	@ 0xc2
 8002574:	f002 fe88 	bl	8005288 <SEGGER_SYSVIEW_RecordU32x6>

        pxNewTCB = prvCreateTask( pxTaskCode, pcName, usStackDepth, pvParameters, uxPriority, pxCreatedTask );
 8002578:	6b7b      	ldr	r3, [r7, #52]	@ 0x34
 800257a:	9301      	str	r3, [sp, #4]
 800257c:	6b3b      	ldr	r3, [r7, #48]	@ 0x30
 800257e:	9300      	str	r3, [sp, #0]
 8002580:	683b      	ldr	r3, [r7, #0]
 8002582:	687a      	ldr	r2, [r7, #4]
 8002584:	68b9      	ldr	r1, [r7, #8]
 8002586:	68f8      	ldr	r0, [r7, #12]
 8002588:	f7ff ff95 	bl	80024b6 <prvCreateTask>
 800258c:	6138      	str	r0, [r7, #16]

        if( pxNewTCB != NULL )
 800258e:	693b      	ldr	r3, [r7, #16]
 8002590:	2b00      	cmp	r3, #0
 8002592:	d005      	beq.n	80025a0 <xTaskCreate+0x72>
                /* Set the task's affinity before scheduling it. */
                pxNewTCB->uxCoreAffinityMask = tskNO_AFFINITY;
            }
            #endif

            prvAddNewTaskToReadyList( pxNewTCB );
 8002594:	6938      	ldr	r0, [r7, #16]
 8002596:	f000 f8a1 	bl	80026dc <prvAddNewTaskToReadyList>
            xReturn = pdPASS;
 800259a:	2301      	movs	r3, #1
 800259c:	617b      	str	r3, [r7, #20]
 800259e:	e002      	b.n	80025a6 <xTaskCreate+0x78>
        }
        else
        {
            xReturn = errCOULD_NOT_ALLOCATE_REQUIRED_MEMORY;
 80025a0:	f04f 33ff 	mov.w	r3, #4294967295	@ 0xffffffff
 80025a4:	617b      	str	r3, [r7, #20]
        }

        traceRETURN_xTaskCreate( xReturn );
 80025a6:	697b      	ldr	r3, [r7, #20]
 80025a8:	4619      	mov	r1, r3
 80025aa:	20c2      	movs	r0, #194	@ 0xc2
 80025ac:	f003 fab4 	bl	8005b18 <SEGGER_SYSVIEW_RecordEndCallU32>

        return xReturn;
 80025b0:	697b      	ldr	r3, [r7, #20]
    }
 80025b2:	4618      	mov	r0, r3
 80025b4:	371c      	adds	r7, #28
 80025b6:	46bd      	mov	sp, r7
 80025b8:	bdf0      	pop	{r4, r5, r6, r7, pc}

080025ba <prvInitialiseNewTask>:
                                  void * const pvParameters,
                                  UBaseType_t uxPriority,
                                  TaskHandle_t * const pxCreatedTask,
                                  TCB_t * pxNewTCB,
                                  const MemoryRegion_t * const xRegions )
{
 80025ba:	b580      	push	{r7, lr}
 80025bc:	b088      	sub	sp, #32
 80025be:	af00      	add	r7, sp, #0
 80025c0:	60f8      	str	r0, [r7, #12]
 80025c2:	60b9      	str	r1, [r7, #8]
 80025c4:	607a      	str	r2, [r7, #4]
 80025c6:	603b      	str	r3, [r7, #0]

    /* Avoid dependency on memset() if it is not required. */
    #if ( tskSET_NEW_STACKS_TO_KNOWN_VALUE == 1 )
    {
        /* Fill the stack with a known value to assist debugging. */
        ( void ) memset( pxNewTCB->pxStack, ( int ) tskSTACK_FILL_BYTE, ( size_t ) ulStackDepth * sizeof( StackType_t ) );
 80025c8:	6b3b      	ldr	r3, [r7, #48]	@ 0x30
 80025ca:	6b18      	ldr	r0, [r3, #48]	@ 0x30
 80025cc:	687b      	ldr	r3, [r7, #4]
 80025ce:	009b      	lsls	r3, r3, #2
 80025d0:	461a      	mov	r2, r3
 80025d2:	21a5      	movs	r1, #165	@ 0xa5
 80025d4:	f003 fd9c 	bl	8006110 <memset>
     * grows from high memory to low (as per the 80x86) or vice versa.
     * portSTACK_GROWTH is used to make the result positive or negative as required
     * by the port. */
    #if ( portSTACK_GROWTH < 0 )
    {
        pxTopOfStack = &( pxNewTCB->pxStack[ ulStackDepth - ( uint32_t ) 1 ] );
 80025d8:	6b3b      	ldr	r3, [r7, #48]	@ 0x30
 80025da:	6b1a      	ldr	r2, [r3, #48]	@ 0x30
 80025dc:	687b      	ldr	r3, [r7, #4]
 80025de:	f103 4380 	add.w	r3, r3, #1073741824	@ 0x40000000
 80025e2:	3b01      	subs	r3, #1
 80025e4:	009b      	lsls	r3, r3, #2
 80025e6:	4413      	add	r3, r2
 80025e8:	61bb      	str	r3, [r7, #24]
        pxTopOfStack = ( StackType_t * ) ( ( ( portPOINTER_SIZE_TYPE ) pxTopOfStack ) & ( ~( ( portPOINTER_SIZE_TYPE ) portBYTE_ALIGNMENT_MASK ) ) );
 80025ea:	69bb      	ldr	r3, [r7, #24]
 80025ec:	f023 0307 	bic.w	r3, r3, #7
 80025f0:	61bb      	str	r3, [r7, #24]

        /* Check the alignment of the calculated top of stack is correct. */
        configASSERT( ( ( ( portPOINTER_SIZE_TYPE ) pxTopOfStack & ( portPOINTER_SIZE_TYPE ) portBYTE_ALIGNMENT_MASK ) == 0UL ) );
 80025f2:	69bb      	ldr	r3, [r7, #24]
 80025f4:	f003 0307 	and.w	r3, r3, #7
 80025f8:	2b00      	cmp	r3, #0
 80025fa:	d00b      	beq.n	8002614 <prvInitialiseNewTask+0x5a>
    __asm volatile
 80025fc:	f04f 0350 	mov.w	r3, #80	@ 0x50
 8002600:	f383 8811 	msr	BASEPRI, r3
 8002604:	f3bf 8f6f 	isb	sy
 8002608:	f3bf 8f4f 	dsb	sy
 800260c:	617b      	str	r3, [r7, #20]
}
 800260e:	bf00      	nop
 8002610:	bf00      	nop
 8002612:	e7fd      	b.n	8002610 <prvInitialiseNewTask+0x56>
        pxNewTCB->pxEndOfStack = pxNewTCB->pxStack + ( ulStackDepth - ( uint32_t ) 1 );
    }
    #endif /* portSTACK_GROWTH */

    /* Store the task name in the TCB. */
    if( pcName != NULL )
 8002614:	68bb      	ldr	r3, [r7, #8]
 8002616:	2b00      	cmp	r3, #0
 8002618:	d01e      	beq.n	8002658 <prvInitialiseNewTask+0x9e>
    {
        for( x = ( UBaseType_t ) 0; x < ( UBaseType_t ) configMAX_TASK_NAME_LEN; x++ )
 800261a:	2300      	movs	r3, #0
 800261c:	61fb      	str	r3, [r7, #28]
 800261e:	e012      	b.n	8002646 <prvInitialiseNewTask+0x8c>
        {
            pxNewTCB->pcTaskName[ x ] = pcName[ x ];
 8002620:	68ba      	ldr	r2, [r7, #8]
 8002622:	69fb      	ldr	r3, [r7, #28]
 8002624:	4413      	add	r3, r2
 8002626:	7819      	ldrb	r1, [r3, #0]
 8002628:	6b3a      	ldr	r2, [r7, #48]	@ 0x30
 800262a:	69fb      	ldr	r3, [r7, #28]
 800262c:	4413      	add	r3, r2
 800262e:	3334      	adds	r3, #52	@ 0x34
 8002630:	460a      	mov	r2, r1
 8002632:	701a      	strb	r2, [r3, #0]

            /* Don't copy all configMAX_TASK_NAME_LEN if the string is shorter than
             * configMAX_TASK_NAME_LEN characters just in case the memory after the
             * string is not accessible (extremely unlikely). */
            if( pcName[ x ] == ( char ) 0x00 )
 8002634:	68ba      	ldr	r2, [r7, #8]
 8002636:	69fb      	ldr	r3, [r7, #28]
 8002638:	4413      	add	r3, r2
 800263a:	781b      	ldrb	r3, [r3, #0]
 800263c:	2b00      	cmp	r3, #0
 800263e:	d006      	beq.n	800264e <prvInitialiseNewTask+0x94>
        for( x = ( UBaseType_t ) 0; x < ( UBaseType_t ) configMAX_TASK_NAME_LEN; x++ )
 8002640:	69fb      	ldr	r3, [r7, #28]
 8002642:	3301      	adds	r3, #1
 8002644:	61fb      	str	r3, [r7, #28]
 8002646:	69fb      	ldr	r3, [r7, #28]
 8002648:	2b09      	cmp	r3, #9
 800264a:	d9e9      	bls.n	8002620 <prvInitialiseNewTask+0x66>
 800264c:	e000      	b.n	8002650 <prvInitialiseNewTask+0x96>
            {
                break;
 800264e:	bf00      	nop
            }
        }

        /* Ensure the name string is terminated in the case that the string length
         * was greater or equal to configMAX_TASK_NAME_LEN. */
        pxNewTCB->pcTaskName[ configMAX_TASK_NAME_LEN - 1U ] = '\0';
 8002650:	6b3b      	ldr	r3, [r7, #48]	@ 0x30
 8002652:	2200      	movs	r2, #0
 8002654:	f883 203d 	strb.w	r2, [r3, #61]	@ 0x3d
    {
        mtCOVERAGE_TEST_MARKER();
    }

    /* This is used as an array index so must ensure it's not too large. */
    configASSERT( uxPriority < configMAX_PRIORITIES );
 8002658:	6abb      	ldr	r3, [r7, #40]	@ 0x28
 800265a:	2b04      	cmp	r3, #4
 800265c:	d90b      	bls.n	8002676 <prvInitialiseNewTask+0xbc>
    __asm volatile
 800265e:	f04f 0350 	mov.w	r3, #80	@ 0x50
 8002662:	f383 8811 	msr	BASEPRI, r3
 8002666:	f3bf 8f6f 	isb	sy
 800266a:	f3bf 8f4f 	dsb	sy
 800266e:	613b      	str	r3, [r7, #16]
}
 8002670:	bf00      	nop
 8002672:	bf00      	nop
 8002674:	e7fd      	b.n	8002672 <prvInitialiseNewTask+0xb8>

    if( uxPriority >= ( UBaseType_t ) configMAX_PRIORITIES )
 8002676:	6abb      	ldr	r3, [r7, #40]	@ 0x28
 8002678:	2b04      	cmp	r3, #4
 800267a:	d901      	bls.n	8002680 <prvInitialiseNewTask+0xc6>
    {
        uxPriority = ( UBaseType_t ) configMAX_PRIORITIES - ( UBaseType_t ) 1U;
 800267c:	2304      	movs	r3, #4
 800267e:	62bb      	str	r3, [r7, #40]	@ 0x28
    else
    {
        mtCOVERAGE_TEST_MARKER();
    }

    pxNewTCB->uxPriority = uxPriority;
 8002680:	6b3b      	ldr	r3, [r7, #48]	@ 0x30
 8002682:	6aba      	ldr	r2, [r7, #40]	@ 0x28
 8002684:	62da      	str	r2, [r3, #44]	@ 0x2c
    #if ( configUSE_MUTEXES == 1 )
    {
        pxNewTCB->uxBasePriority = uxPriority;
 8002686:	6b3b      	ldr	r3, [r7, #48]	@ 0x30
 8002688:	6aba      	ldr	r2, [r7, #40]	@ 0x28
 800268a:	649a      	str	r2, [r3, #72]	@ 0x48
    }
    #endif /* configUSE_MUTEXES */

    vListInitialiseItem( &( pxNewTCB->xStateListItem ) );
 800268c:	6b3b      	ldr	r3, [r7, #48]	@ 0x30
 800268e:	3304      	adds	r3, #4
 8002690:	4618      	mov	r0, r3
 8002692:	f7ff fe3d 	bl	8002310 <vListInitialiseItem>
    vListInitialiseItem( &( pxNewTCB->xEventListItem ) );
 8002696:	6b3b      	ldr	r3, [r7, #48]	@ 0x30
 8002698:	3318      	adds	r3, #24
 800269a:	4618      	mov	r0, r3
 800269c:	f7ff fe38 	bl	8002310 <vListInitialiseItem>

    /* Set the pxNewTCB as a link back from the ListItem_t.  This is so we can get
     * back to  the containing TCB from a generic item in a list. */
    listSET_LIST_ITEM_OWNER( &( pxNewTCB->xStateListItem ), pxNewTCB );
 80026a0:	6b3b      	ldr	r3, [r7, #48]	@ 0x30
 80026a2:	6b3a      	ldr	r2, [r7, #48]	@ 0x30
 80026a4:	611a      	str	r2, [r3, #16]

    /* Event lists are always in priority order. */
    listSET_LIST_ITEM_VALUE( &( pxNewTCB->xEventListItem ), ( TickType_t ) configMAX_PRIORITIES - ( TickType_t ) uxPriority );
 80026a6:	6abb      	ldr	r3, [r7, #40]	@ 0x28
 80026a8:	f1c3 0205 	rsb	r2, r3, #5
 80026ac:	6b3b      	ldr	r3, [r7, #48]	@ 0x30
 80026ae:	619a      	str	r2, [r3, #24]
    listSET_LIST_ITEM_OWNER( &( pxNewTCB->xEventListItem ), pxNewTCB );
 80026b0:	6b3b      	ldr	r3, [r7, #48]	@ 0x30
 80026b2:	6b3a      	ldr	r2, [r7, #48]	@ 0x30
 80026b4:	625a      	str	r2, [r3, #36]	@ 0x24
            }
            #endif /* portSTACK_GROWTH */
        }
        #else /* portHAS_STACK_OVERFLOW_CHECKING */
        {
            pxNewTCB->pxTopOfStack = pxPortInitialiseStack( pxTopOfStack, pxTaskCode, pvParameters );
 80026b6:	683a      	ldr	r2, [r7, #0]
 80026b8:	68f9      	ldr	r1, [r7, #12]
 80026ba:	69b8      	ldr	r0, [r7, #24]
 80026bc:	f001 f848 	bl	8003750 <pxPortInitialiseStack>
 80026c0:	4602      	mov	r2, r0
 80026c2:	6b3b      	ldr	r3, [r7, #48]	@ 0x30
 80026c4:	601a      	str	r2, [r3, #0]
            pxNewTCB->uxTaskAttributes |= taskATTRIBUTE_IS_IDLE;
        }
    }
    #endif /* #if ( configNUMBER_OF_CORES > 1 ) */

    if( pxCreatedTask != NULL )
 80026c6:	6afb      	ldr	r3, [r7, #44]	@ 0x2c
 80026c8:	2b00      	cmp	r3, #0
 80026ca:	d002      	beq.n	80026d2 <prvInitialiseNewTask+0x118>
    {
        /* Pass the handle out in an anonymous way.  The handle can be used to
         * change the created task's priority, delete the created task, etc.*/
        *pxCreatedTask = ( TaskHandle_t ) pxNewTCB;
 80026cc:	6afb      	ldr	r3, [r7, #44]	@ 0x2c
 80026ce:	6b3a      	ldr	r2, [r7, #48]	@ 0x30
 80026d0:	601a      	str	r2, [r3, #0]
    }
    else
    {
        mtCOVERAGE_TEST_MARKER();
    }
}
 80026d2:	bf00      	nop
 80026d4:	3720      	adds	r7, #32
 80026d6:	46bd      	mov	sp, r7
 80026d8:	bd80      	pop	{r7, pc}
	...

080026dc <prvAddNewTaskToReadyList>:
/*-----------------------------------------------------------*/

#if ( configNUMBER_OF_CORES == 1 )

    static void prvAddNewTaskToReadyList( TCB_t * pxNewTCB )
    {
 80026dc:	b5b0      	push	{r4, r5, r7, lr}
 80026de:	b086      	sub	sp, #24
 80026e0:	af02      	add	r7, sp, #8
 80026e2:	6078      	str	r0, [r7, #4]
        /* Ensure interrupts don't access the task lists while the lists are being
         * updated. */
        taskENTER_CRITICAL();
 80026e4:	f001 fa36 	bl	8003b54 <vPortEnterCritical>
        {
            uxCurrentNumberOfTasks++;
 80026e8:	4b4f      	ldr	r3, [pc, #316]	@ (8002828 <prvAddNewTaskToReadyList+0x14c>)
 80026ea:	681b      	ldr	r3, [r3, #0]
 80026ec:	3301      	adds	r3, #1
 80026ee:	4a4e      	ldr	r2, [pc, #312]	@ (8002828 <prvAddNewTaskToReadyList+0x14c>)
 80026f0:	6013      	str	r3, [r2, #0]

            if( pxCurrentTCB == NULL )
 80026f2:	4b4e      	ldr	r3, [pc, #312]	@ (800282c <prvAddNewTaskToReadyList+0x150>)
 80026f4:	681b      	ldr	r3, [r3, #0]
 80026f6:	2b00      	cmp	r3, #0
 80026f8:	d109      	bne.n	800270e <prvAddNewTaskToReadyList+0x32>
            {
                /* There are no other tasks, or all the other tasks are in
                 * the suspended state - make this the current task. */
                pxCurrentTCB = pxNewTCB;
 80026fa:	4a4c      	ldr	r2, [pc, #304]	@ (800282c <prvAddNewTaskToReadyList+0x150>)
 80026fc:	687b      	ldr	r3, [r7, #4]
 80026fe:	6013      	str	r3, [r2, #0]

                if( uxCurrentNumberOfTasks == ( UBaseType_t ) 1 )
 8002700:	4b49      	ldr	r3, [pc, #292]	@ (8002828 <prvAddNewTaskToReadyList+0x14c>)
 8002702:	681b      	ldr	r3, [r3, #0]
 8002704:	2b01      	cmp	r3, #1
 8002706:	d110      	bne.n	800272a <prvAddNewTaskToReadyList+0x4e>
                {
                    /* This is the first task to be created so do the preliminary
                     * initialisation required.  We will not recover if this call
                     * fails, but we will report the failure. */
                    prvInitialiseTaskLists();
 8002708:	f000 fd18 	bl	800313c <prvInitialiseTaskLists>
 800270c:	e00d      	b.n	800272a <prvAddNewTaskToReadyList+0x4e>
            else
            {
                /* If the scheduler is not already running, make this task the
                 * current task if it is the highest priority task to be created
                 * so far. */
                if( xSchedulerRunning == pdFALSE )
 800270e:	4b48      	ldr	r3, [pc, #288]	@ (8002830 <prvAddNewTaskToReadyList+0x154>)
 8002710:	681b      	ldr	r3, [r3, #0]
 8002712:	2b00      	cmp	r3, #0
 8002714:	d109      	bne.n	800272a <prvAddNewTaskToReadyList+0x4e>
                {
                    if( pxCurrentTCB->uxPriority <= pxNewTCB->uxPriority )
 8002716:	4b45      	ldr	r3, [pc, #276]	@ (800282c <prvAddNewTaskToReadyList+0x150>)
 8002718:	681b      	ldr	r3, [r3, #0]
 800271a:	6ada      	ldr	r2, [r3, #44]	@ 0x2c
 800271c:	687b      	ldr	r3, [r7, #4]
 800271e:	6adb      	ldr	r3, [r3, #44]	@ 0x2c
 8002720:	429a      	cmp	r2, r3
 8002722:	d802      	bhi.n	800272a <prvAddNewTaskToReadyList+0x4e>
                    {
                        pxCurrentTCB = pxNewTCB;
 8002724:	4a41      	ldr	r2, [pc, #260]	@ (800282c <prvAddNewTaskToReadyList+0x150>)
 8002726:	687b      	ldr	r3, [r7, #4]
 8002728:	6013      	str	r3, [r2, #0]
                {
                    mtCOVERAGE_TEST_MARKER();
                }
            }

            uxTaskNumber++;
 800272a:	4b42      	ldr	r3, [pc, #264]	@ (8002834 <prvAddNewTaskToReadyList+0x158>)
 800272c:	681b      	ldr	r3, [r3, #0]
 800272e:	3301      	adds	r3, #1
 8002730:	4a40      	ldr	r2, [pc, #256]	@ (8002834 <prvAddNewTaskToReadyList+0x158>)
 8002732:	6013      	str	r3, [r2, #0]

            #if ( configUSE_TRACE_FACILITY == 1 )
            {
                /* Add a counter into the TCB for tracing only. */
                pxNewTCB->uxTCBNumber = uxTaskNumber;
 8002734:	4b3f      	ldr	r3, [pc, #252]	@ (8002834 <prvAddNewTaskToReadyList+0x158>)
 8002736:	681a      	ldr	r2, [r3, #0]
 8002738:	687b      	ldr	r3, [r7, #4]
 800273a:	641a      	str	r2, [r3, #64]	@ 0x40
            }
            #endif /* configUSE_TRACE_FACILITY */
            traceTASK_CREATE( pxNewTCB );
 800273c:	687b      	ldr	r3, [r7, #4]
 800273e:	2b00      	cmp	r3, #0
 8002740:	d016      	beq.n	8002770 <prvAddNewTaskToReadyList+0x94>
 8002742:	687b      	ldr	r3, [r7, #4]
 8002744:	4618      	mov	r0, r3
 8002746:	f003 fa5b 	bl	8005c00 <SEGGER_SYSVIEW_OnTaskCreate>
 800274a:	6878      	ldr	r0, [r7, #4]
 800274c:	687b      	ldr	r3, [r7, #4]
 800274e:	f103 0134 	add.w	r1, r3, #52	@ 0x34
 8002752:	687b      	ldr	r3, [r7, #4]
 8002754:	6ada      	ldr	r2, [r3, #44]	@ 0x2c
 8002756:	687b      	ldr	r3, [r7, #4]
 8002758:	6b1b      	ldr	r3, [r3, #48]	@ 0x30
 800275a:	461d      	mov	r5, r3
 800275c:	687b      	ldr	r3, [r7, #4]
 800275e:	681b      	ldr	r3, [r3, #0]
 8002760:	461c      	mov	r4, r3
 8002762:	687b      	ldr	r3, [r7, #4]
 8002764:	6b1b      	ldr	r3, [r3, #48]	@ 0x30
 8002766:	1ae3      	subs	r3, r4, r3
 8002768:	9300      	str	r3, [sp, #0]
 800276a:	462b      	mov	r3, r5
 800276c:	f001 fe4c 	bl	8004408 <SYSVIEW_AddTask>

            prvAddTaskToReadyList( pxNewTCB );
 8002770:	687b      	ldr	r3, [r7, #4]
 8002772:	4618      	mov	r0, r3
 8002774:	f003 fac8 	bl	8005d08 <SEGGER_SYSVIEW_OnTaskStartReady>
 8002778:	687b      	ldr	r3, [r7, #4]
 800277a:	6adb      	ldr	r3, [r3, #44]	@ 0x2c
 800277c:	2201      	movs	r2, #1
 800277e:	409a      	lsls	r2, r3
 8002780:	4b2d      	ldr	r3, [pc, #180]	@ (8002838 <prvAddNewTaskToReadyList+0x15c>)
 8002782:	681b      	ldr	r3, [r3, #0]
 8002784:	4313      	orrs	r3, r2
 8002786:	4a2c      	ldr	r2, [pc, #176]	@ (8002838 <prvAddNewTaskToReadyList+0x15c>)
 8002788:	6013      	str	r3, [r2, #0]
 800278a:	687b      	ldr	r3, [r7, #4]
 800278c:	6ada      	ldr	r2, [r3, #44]	@ 0x2c
 800278e:	492b      	ldr	r1, [pc, #172]	@ (800283c <prvAddNewTaskToReadyList+0x160>)
 8002790:	4613      	mov	r3, r2
 8002792:	009b      	lsls	r3, r3, #2
 8002794:	4413      	add	r3, r2
 8002796:	009b      	lsls	r3, r3, #2
 8002798:	440b      	add	r3, r1
 800279a:	3304      	adds	r3, #4
 800279c:	681b      	ldr	r3, [r3, #0]
 800279e:	60fb      	str	r3, [r7, #12]
 80027a0:	687b      	ldr	r3, [r7, #4]
 80027a2:	68fa      	ldr	r2, [r7, #12]
 80027a4:	609a      	str	r2, [r3, #8]
 80027a6:	68fb      	ldr	r3, [r7, #12]
 80027a8:	689a      	ldr	r2, [r3, #8]
 80027aa:	687b      	ldr	r3, [r7, #4]
 80027ac:	60da      	str	r2, [r3, #12]
 80027ae:	68fb      	ldr	r3, [r7, #12]
 80027b0:	689b      	ldr	r3, [r3, #8]
 80027b2:	687a      	ldr	r2, [r7, #4]
 80027b4:	3204      	adds	r2, #4
 80027b6:	605a      	str	r2, [r3, #4]
 80027b8:	687b      	ldr	r3, [r7, #4]
 80027ba:	1d1a      	adds	r2, r3, #4
 80027bc:	68fb      	ldr	r3, [r7, #12]
 80027be:	609a      	str	r2, [r3, #8]
 80027c0:	687b      	ldr	r3, [r7, #4]
 80027c2:	6ada      	ldr	r2, [r3, #44]	@ 0x2c
 80027c4:	4613      	mov	r3, r2
 80027c6:	009b      	lsls	r3, r3, #2
 80027c8:	4413      	add	r3, r2
 80027ca:	009b      	lsls	r3, r3, #2
 80027cc:	4a1b      	ldr	r2, [pc, #108]	@ (800283c <prvAddNewTaskToReadyList+0x160>)
 80027ce:	441a      	add	r2, r3
 80027d0:	687b      	ldr	r3, [r7, #4]
 80027d2:	615a      	str	r2, [r3, #20]
 80027d4:	687b      	ldr	r3, [r7, #4]
 80027d6:	6ada      	ldr	r2, [r3, #44]	@ 0x2c
 80027d8:	4918      	ldr	r1, [pc, #96]	@ (800283c <prvAddNewTaskToReadyList+0x160>)
 80027da:	4613      	mov	r3, r2
 80027dc:	009b      	lsls	r3, r3, #2
 80027de:	4413      	add	r3, r2
 80027e0:	009b      	lsls	r3, r3, #2
 80027e2:	440b      	add	r3, r1
 80027e4:	681b      	ldr	r3, [r3, #0]
 80027e6:	1c59      	adds	r1, r3, #1
 80027e8:	4814      	ldr	r0, [pc, #80]	@ (800283c <prvAddNewTaskToReadyList+0x160>)
 80027ea:	4613      	mov	r3, r2
 80027ec:	009b      	lsls	r3, r3, #2
 80027ee:	4413      	add	r3, r2
 80027f0:	009b      	lsls	r3, r3, #2
 80027f2:	4403      	add	r3, r0
 80027f4:	6019      	str	r1, [r3, #0]

            portSETUP_TCB( pxNewTCB );
        }
        taskEXIT_CRITICAL();
 80027f6:	f001 f9df 	bl	8003bb8 <vPortExitCritical>

        if( xSchedulerRunning != pdFALSE )
 80027fa:	4b0d      	ldr	r3, [pc, #52]	@ (8002830 <prvAddNewTaskToReadyList+0x154>)
 80027fc:	681b      	ldr	r3, [r3, #0]
 80027fe:	2b00      	cmp	r3, #0
 8002800:	d00e      	beq.n	8002820 <prvAddNewTaskToReadyList+0x144>
        {
            /* If the created task is of a higher priority than the current task
             * then it should run now. */
            taskYIELD_ANY_CORE_IF_USING_PREEMPTION( pxNewTCB );
 8002802:	4b0a      	ldr	r3, [pc, #40]	@ (800282c <prvAddNewTaskToReadyList+0x150>)
 8002804:	681b      	ldr	r3, [r3, #0]
 8002806:	6ada      	ldr	r2, [r3, #44]	@ 0x2c
 8002808:	687b      	ldr	r3, [r7, #4]
 800280a:	6adb      	ldr	r3, [r3, #44]	@ 0x2c
 800280c:	429a      	cmp	r2, r3
 800280e:	d207      	bcs.n	8002820 <prvAddNewTaskToReadyList+0x144>
 8002810:	4b0b      	ldr	r3, [pc, #44]	@ (8002840 <prvAddNewTaskToReadyList+0x164>)
 8002812:	f04f 5280 	mov.w	r2, #268435456	@ 0x10000000
 8002816:	601a      	str	r2, [r3, #0]
 8002818:	f3bf 8f4f 	dsb	sy
 800281c:	f3bf 8f6f 	isb	sy
        }
        else
        {
            mtCOVERAGE_TEST_MARKER();
        }
    }
 8002820:	bf00      	nop
 8002822:	3710      	adds	r7, #16
 8002824:	46bd      	mov	sp, r7
 8002826:	bdb0      	pop	{r4, r5, r7, pc}
 8002828:	20000164 	.word	0x20000164
 800282c:	2000008c 	.word	0x2000008c
 8002830:	20000170 	.word	0x20000170
 8002834:	20000180 	.word	0x20000180
 8002838:	2000016c 	.word	0x2000016c
 800283c:	20000090 	.word	0x20000090
 8002840:	e000ed04 	.word	0xe000ed04

08002844 <vTaskDelete>:
/*-----------------------------------------------------------*/

#if ( INCLUDE_vTaskDelete == 1 )

    void vTaskDelete( TaskHandle_t xTaskToDelete )
    {
 8002844:	b580      	push	{r7, lr}
 8002846:	b084      	sub	sp, #16
 8002848:	af00      	add	r7, sp, #0
 800284a:	6078      	str	r0, [r7, #4]
        TCB_t * pxTCB;

        traceENTER_vTaskDelete( xTaskToDelete );
 800284c:	687b      	ldr	r3, [r7, #4]
 800284e:	4618      	mov	r0, r3
 8002850:	f003 fafc 	bl	8005e4c <SEGGER_SYSVIEW_ShrinkId>
 8002854:	4603      	mov	r3, r0
 8002856:	4619      	mov	r1, r3
 8002858:	20c3      	movs	r0, #195	@ 0xc3
 800285a:	f002 fbd1 	bl	8005000 <SEGGER_SYSVIEW_RecordU32>

        taskENTER_CRITICAL();
 800285e:	f001 f979 	bl	8003b54 <vPortEnterCritical>
        {
            /* If null is passed in here then it is the calling task that is
             * being deleted. */
            pxTCB = prvGetTCBFromHandle( xTaskToDelete );
 8002862:	687b      	ldr	r3, [r7, #4]
 8002864:	2b00      	cmp	r3, #0
 8002866:	d102      	bne.n	800286e <vTaskDelete+0x2a>
 8002868:	4b4a      	ldr	r3, [pc, #296]	@ (8002994 <vTaskDelete+0x150>)
 800286a:	681b      	ldr	r3, [r3, #0]
 800286c:	e000      	b.n	8002870 <vTaskDelete+0x2c>
 800286e:	687b      	ldr	r3, [r7, #4]
 8002870:	60fb      	str	r3, [r7, #12]

            /* Remove task from the ready/delayed list. */
            if( uxListRemove( &( pxTCB->xStateListItem ) ) == ( UBaseType_t ) 0 )
 8002872:	68fb      	ldr	r3, [r7, #12]
 8002874:	3304      	adds	r3, #4
 8002876:	4618      	mov	r0, r3
 8002878:	f7ff fde4 	bl	8002444 <uxListRemove>
 800287c:	4603      	mov	r3, r0
 800287e:	2b00      	cmp	r3, #0
 8002880:	d115      	bne.n	80028ae <vTaskDelete+0x6a>
            {
                taskRESET_READY_PRIORITY( pxTCB->uxPriority );
 8002882:	68fb      	ldr	r3, [r7, #12]
 8002884:	6ada      	ldr	r2, [r3, #44]	@ 0x2c
 8002886:	4944      	ldr	r1, [pc, #272]	@ (8002998 <vTaskDelete+0x154>)
 8002888:	4613      	mov	r3, r2
 800288a:	009b      	lsls	r3, r3, #2
 800288c:	4413      	add	r3, r2
 800288e:	009b      	lsls	r3, r3, #2
 8002890:	440b      	add	r3, r1
 8002892:	681b      	ldr	r3, [r3, #0]
 8002894:	2b00      	cmp	r3, #0
 8002896:	d10a      	bne.n	80028ae <vTaskDelete+0x6a>
 8002898:	68fb      	ldr	r3, [r7, #12]
 800289a:	6adb      	ldr	r3, [r3, #44]	@ 0x2c
 800289c:	2201      	movs	r2, #1
 800289e:	fa02 f303 	lsl.w	r3, r2, r3
 80028a2:	43da      	mvns	r2, r3
 80028a4:	4b3d      	ldr	r3, [pc, #244]	@ (800299c <vTaskDelete+0x158>)
 80028a6:	681b      	ldr	r3, [r3, #0]
 80028a8:	4013      	ands	r3, r2
 80028aa:	4a3c      	ldr	r2, [pc, #240]	@ (800299c <vTaskDelete+0x158>)
 80028ac:	6013      	str	r3, [r2, #0]
            {
                mtCOVERAGE_TEST_MARKER();
            }

            /* Is the task waiting on an event also? */
            if( listLIST_ITEM_CONTAINER( &( pxTCB->xEventListItem ) ) != NULL )
 80028ae:	68fb      	ldr	r3, [r7, #12]
 80028b0:	6a9b      	ldr	r3, [r3, #40]	@ 0x28
 80028b2:	2b00      	cmp	r3, #0
 80028b4:	d004      	beq.n	80028c0 <vTaskDelete+0x7c>
            {
                ( void ) uxListRemove( &( pxTCB->xEventListItem ) );
 80028b6:	68fb      	ldr	r3, [r7, #12]
 80028b8:	3318      	adds	r3, #24
 80028ba:	4618      	mov	r0, r3
 80028bc:	f7ff fdc2 	bl	8002444 <uxListRemove>

            /* Increment the uxTaskNumber also so kernel aware debuggers can
             * detect that the task lists need re-generating.  This is done before
             * portPRE_TASK_DELETE_HOOK() as in the Windows port that macro will
             * not return. */
            uxTaskNumber++;
 80028c0:	4b37      	ldr	r3, [pc, #220]	@ (80029a0 <vTaskDelete+0x15c>)
 80028c2:	681b      	ldr	r3, [r3, #0]
 80028c4:	3301      	adds	r3, #1
 80028c6:	4a36      	ldr	r2, [pc, #216]	@ (80029a0 <vTaskDelete+0x15c>)
 80028c8:	6013      	str	r3, [r2, #0]

            /* If the task is running (or yielding), we must add it to the
             * termination list so that an idle task can delete it when it is
             * no longer running. */
            if( taskTASK_IS_RUNNING_OR_SCHEDULED_TO_YIELD( pxTCB ) != pdFALSE )
 80028ca:	4b32      	ldr	r3, [pc, #200]	@ (8002994 <vTaskDelete+0x150>)
 80028cc:	681b      	ldr	r3, [r3, #0]
 80028ce:	68fa      	ldr	r2, [r7, #12]
 80028d0:	429a      	cmp	r2, r3
 80028d2:	d118      	bne.n	8002906 <vTaskDelete+0xc2>
                 * deleted. This cannot complete when the task is still running
                 * on a core, as a context switch to another task is required.
                 * Place the task in the termination list. The idle task will check
                 * the termination list and free up any memory allocated by the
                 * scheduler for the TCB and stack of the deleted task. */
                vListInsertEnd( &xTasksWaitingTermination, &( pxTCB->xStateListItem ) );
 80028d4:	68fb      	ldr	r3, [r7, #12]
 80028d6:	3304      	adds	r3, #4
 80028d8:	4619      	mov	r1, r3
 80028da:	4832      	ldr	r0, [pc, #200]	@ (80029a4 <vTaskDelete+0x160>)
 80028dc:	f7ff fd31 	bl	8002342 <vListInsertEnd>

                /* Increment the ucTasksDeleted variable so the idle task knows
                 * there is a task that has been deleted and that it should therefore
                 * check the xTasksWaitingTermination list. */
                ++uxDeletedTasksWaitingCleanUp;
 80028e0:	4b31      	ldr	r3, [pc, #196]	@ (80029a8 <vTaskDelete+0x164>)
 80028e2:	681b      	ldr	r3, [r3, #0]
 80028e4:	3301      	adds	r3, #1
 80028e6:	4a30      	ldr	r2, [pc, #192]	@ (80029a8 <vTaskDelete+0x164>)
 80028e8:	6013      	str	r3, [r2, #0]

                /* Call the delete hook before portPRE_TASK_DELETE_HOOK() as
                 * portPRE_TASK_DELETE_HOOK() does not return in the Win32 port. */
                traceTASK_DELETE( pxTCB );
 80028ea:	68fb      	ldr	r3, [r7, #12]
 80028ec:	4618      	mov	r0, r3
 80028ee:	f003 faad 	bl	8005e4c <SEGGER_SYSVIEW_ShrinkId>
 80028f2:	4603      	mov	r3, r0
 80028f4:	4619      	mov	r1, r3
 80028f6:	20c3      	movs	r0, #195	@ 0xc3
 80028f8:	f002 fb82 	bl	8005000 <SEGGER_SYSVIEW_RecordU32>
 80028fc:	68fb      	ldr	r3, [r7, #12]
 80028fe:	4618      	mov	r0, r3
 8002900:	f001 fdea 	bl	80044d8 <SYSVIEW_DeleteTask>
 8002904:	e013      	b.n	800292e <vTaskDelete+0xea>
                    portPRE_TASK_DELETE_HOOK( pxTCB, &( xYieldPendings[ pxTCB->xTaskRunState ] ) );
                #endif
            }
            else
            {
                --uxCurrentNumberOfTasks;
 8002906:	4b29      	ldr	r3, [pc, #164]	@ (80029ac <vTaskDelete+0x168>)
 8002908:	681b      	ldr	r3, [r3, #0]
 800290a:	3b01      	subs	r3, #1
 800290c:	4a27      	ldr	r2, [pc, #156]	@ (80029ac <vTaskDelete+0x168>)
 800290e:	6013      	str	r3, [r2, #0]
                traceTASK_DELETE( pxTCB );
 8002910:	68fb      	ldr	r3, [r7, #12]
 8002912:	4618      	mov	r0, r3
 8002914:	f003 fa9a 	bl	8005e4c <SEGGER_SYSVIEW_ShrinkId>
 8002918:	4603      	mov	r3, r0
 800291a:	4619      	mov	r1, r3
 800291c:	20c3      	movs	r0, #195	@ 0xc3
 800291e:	f002 fb6f 	bl	8005000 <SEGGER_SYSVIEW_RecordU32>
 8002922:	68fb      	ldr	r3, [r7, #12]
 8002924:	4618      	mov	r0, r3
 8002926:	f001 fdd7 	bl	80044d8 <SYSVIEW_DeleteTask>

                /* Reset the next expected unblock time in case it referred to
                 * the task that has just been deleted. */
                prvResetNextTaskUnblockTime();
 800292a:	f000 fc85 	bl	8003238 <prvResetNextTaskUnblockTime>
            }
        }

        #if ( configNUMBER_OF_CORES == 1 )
        {
            taskEXIT_CRITICAL();
 800292e:	f001 f943 	bl	8003bb8 <vPortExitCritical>

            /* If the task is not deleting itself, call prvDeleteTCB from outside of
             * critical section. If a task deletes itself, prvDeleteTCB is called
             * from prvCheckTasksWaitingTermination which is called from Idle task. */
            if( pxTCB != pxCurrentTCB )
 8002932:	4b18      	ldr	r3, [pc, #96]	@ (8002994 <vTaskDelete+0x150>)
 8002934:	681b      	ldr	r3, [r3, #0]
 8002936:	68fa      	ldr	r2, [r7, #12]
 8002938:	429a      	cmp	r2, r3
 800293a:	d002      	beq.n	8002942 <vTaskDelete+0xfe>
            {
                prvDeleteTCB( pxTCB );
 800293c:	68f8      	ldr	r0, [r7, #12]
 800293e:	f000 fc6b 	bl	8003218 <prvDeleteTCB>
            }

            /* Force a reschedule if it is the currently running task that has just
             * been deleted. */
            if( xSchedulerRunning != pdFALSE )
 8002942:	4b1b      	ldr	r3, [pc, #108]	@ (80029b0 <vTaskDelete+0x16c>)
 8002944:	681b      	ldr	r3, [r3, #0]
 8002946:	2b00      	cmp	r3, #0
 8002948:	d01c      	beq.n	8002984 <vTaskDelete+0x140>
            {
                if( pxTCB == pxCurrentTCB )
 800294a:	4b12      	ldr	r3, [pc, #72]	@ (8002994 <vTaskDelete+0x150>)
 800294c:	681b      	ldr	r3, [r3, #0]
 800294e:	68fa      	ldr	r2, [r7, #12]
 8002950:	429a      	cmp	r2, r3
 8002952:	d117      	bne.n	8002984 <vTaskDelete+0x140>
                {
                    configASSERT( uxSchedulerSuspended == 0 );
 8002954:	4b17      	ldr	r3, [pc, #92]	@ (80029b4 <vTaskDelete+0x170>)
 8002956:	681b      	ldr	r3, [r3, #0]
 8002958:	2b00      	cmp	r3, #0
 800295a:	d00b      	beq.n	8002974 <vTaskDelete+0x130>
    __asm volatile
 800295c:	f04f 0350 	mov.w	r3, #80	@ 0x50
 8002960:	f383 8811 	msr	BASEPRI, r3
 8002964:	f3bf 8f6f 	isb	sy
 8002968:	f3bf 8f4f 	dsb	sy
 800296c:	60bb      	str	r3, [r7, #8]
}
 800296e:	bf00      	nop
 8002970:	bf00      	nop
 8002972:	e7fd      	b.n	8002970 <vTaskDelete+0x12c>
                    portYIELD_WITHIN_API();
 8002974:	4b10      	ldr	r3, [pc, #64]	@ (80029b8 <vTaskDelete+0x174>)
 8002976:	f04f 5280 	mov.w	r2, #268435456	@ 0x10000000
 800297a:	601a      	str	r2, [r3, #0]
 800297c:	f3bf 8f4f 	dsb	sy
 8002980:	f3bf 8f6f 	isb	sy

            taskEXIT_CRITICAL();
        }
        #endif /* #if ( configNUMBER_OF_CORES == 1 ) */

        traceRETURN_vTaskDelete();
 8002984:	20c3      	movs	r0, #195	@ 0xc3
 8002986:	f003 f88b 	bl	8005aa0 <SEGGER_SYSVIEW_RecordEndCall>
    }
 800298a:	bf00      	nop
 800298c:	3710      	adds	r7, #16
 800298e:	46bd      	mov	sp, r7
 8002990:	bd80      	pop	{r7, pc}
 8002992:	bf00      	nop
 8002994:	2000008c 	.word	0x2000008c
 8002998:	20000090 	.word	0x20000090
 800299c:	2000016c 	.word	0x2000016c
 80029a0:	20000180 	.word	0x20000180
 80029a4:	20000138 	.word	0x20000138
 80029a8:	2000014c 	.word	0x2000014c
 80029ac:	20000164 	.word	0x20000164
 80029b0:	20000170 	.word	0x20000170
 80029b4:	2000018c 	.word	0x2000018c
 80029b8:	e000ed04 	.word	0xe000ed04

080029bc <vTaskDelay>:
/*-----------------------------------------------------------*/

#if ( INCLUDE_vTaskDelay == 1 )

    void vTaskDelay( const TickType_t xTicksToDelay )
    {
 80029bc:	b580      	push	{r7, lr}
 80029be:	b084      	sub	sp, #16
 80029c0:	af00      	add	r7, sp, #0
 80029c2:	6078      	str	r0, [r7, #4]
        BaseType_t xAlreadyYielded = pdFALSE;
 80029c4:	2300      	movs	r3, #0
 80029c6:	60fb      	str	r3, [r7, #12]

        traceENTER_vTaskDelay( xTicksToDelay );
 80029c8:	6879      	ldr	r1, [r7, #4]
 80029ca:	20c5      	movs	r0, #197	@ 0xc5
 80029cc:	f002 fb18 	bl	8005000 <SEGGER_SYSVIEW_RecordU32>

        /* A delay time of zero just forces a reschedule. */
        if( xTicksToDelay > ( TickType_t ) 0U )
 80029d0:	687b      	ldr	r3, [r7, #4]
 80029d2:	2b00      	cmp	r3, #0
 80029d4:	d018      	beq.n	8002a08 <vTaskDelay+0x4c>
        {
            vTaskSuspendAll();
 80029d6:	f000 f8cd 	bl	8002b74 <vTaskSuspendAll>
            {
                configASSERT( uxSchedulerSuspended == 1U );
 80029da:	4b14      	ldr	r3, [pc, #80]	@ (8002a2c <vTaskDelay+0x70>)
 80029dc:	681b      	ldr	r3, [r3, #0]
 80029de:	2b01      	cmp	r3, #1
 80029e0:	d00b      	beq.n	80029fa <vTaskDelay+0x3e>
    __asm volatile
 80029e2:	f04f 0350 	mov.w	r3, #80	@ 0x50
 80029e6:	f383 8811 	msr	BASEPRI, r3
 80029ea:	f3bf 8f6f 	isb	sy
 80029ee:	f3bf 8f4f 	dsb	sy
 80029f2:	60bb      	str	r3, [r7, #8]
}
 80029f4:	bf00      	nop
 80029f6:	bf00      	nop
 80029f8:	e7fd      	b.n	80029f6 <vTaskDelay+0x3a>
                 * list or removed from the blocked list until the scheduler
                 * is resumed.
                 *
                 * This task cannot be in an event list as it is the currently
                 * executing task. */
                prvAddCurrentTaskToDelayedList( xTicksToDelay, pdFALSE );
 80029fa:	2100      	movs	r1, #0
 80029fc:	6878      	ldr	r0, [r7, #4]
 80029fe:	f000 fe19 	bl	8003634 <prvAddCurrentTaskToDelayedList>
            }
            xAlreadyYielded = xTaskResumeAll();
 8002a02:	f000 f8c9 	bl	8002b98 <xTaskResumeAll>
 8002a06:	60f8      	str	r0, [r7, #12]
            mtCOVERAGE_TEST_MARKER();
        }

        /* Force a reschedule if xTaskResumeAll has not already done so, we may
         * have put ourselves to sleep. */
        if( xAlreadyYielded == pdFALSE )
 8002a08:	68fb      	ldr	r3, [r7, #12]
 8002a0a:	2b00      	cmp	r3, #0
 8002a0c:	d107      	bne.n	8002a1e <vTaskDelay+0x62>
        {
            taskYIELD_WITHIN_API();
 8002a0e:	4b08      	ldr	r3, [pc, #32]	@ (8002a30 <vTaskDelay+0x74>)
 8002a10:	f04f 5280 	mov.w	r2, #268435456	@ 0x10000000
 8002a14:	601a      	str	r2, [r3, #0]
 8002a16:	f3bf 8f4f 	dsb	sy
 8002a1a:	f3bf 8f6f 	isb	sy
        else
        {
            mtCOVERAGE_TEST_MARKER();
        }

        traceRETURN_vTaskDelay();
 8002a1e:	20c5      	movs	r0, #197	@ 0xc5
 8002a20:	f003 f83e 	bl	8005aa0 <SEGGER_SYSVIEW_RecordEndCall>
    }
 8002a24:	bf00      	nop
 8002a26:	3710      	adds	r7, #16
 8002a28:	46bd      	mov	sp, r7
 8002a2a:	bd80      	pop	{r7, pc}
 8002a2c:	2000018c 	.word	0x2000018c
 8002a30:	e000ed04 	.word	0xe000ed04

08002a34 <prvCreateIdleTasks>:

#endif /* ( ( INCLUDE_xTaskResumeFromISR == 1 ) && ( INCLUDE_vTaskSuspend == 1 ) ) */
/*-----------------------------------------------------------*/

static BaseType_t prvCreateIdleTasks( void )
{
 8002a34:	b580      	push	{r7, lr}
 8002a36:	b08a      	sub	sp, #40	@ 0x28
 8002a38:	af02      	add	r7, sp, #8
    BaseType_t xReturn = pdPASS;
 8002a3a:	2301      	movs	r3, #1
 8002a3c:	61fb      	str	r3, [r7, #28]
    BaseType_t xCoreID;
    char cIdleName[ configMAX_TASK_NAME_LEN ];
    TaskFunction_t pxIdleTaskFunction = NULL;
 8002a3e:	2300      	movs	r3, #0
 8002a40:	613b      	str	r3, [r7, #16]
    BaseType_t xIdleTaskNameIndex;

    for( xIdleTaskNameIndex = ( BaseType_t ) 0; xIdleTaskNameIndex < ( BaseType_t ) configMAX_TASK_NAME_LEN; xIdleTaskNameIndex++ )
 8002a42:	2300      	movs	r3, #0
 8002a44:	617b      	str	r3, [r7, #20]
 8002a46:	e011      	b.n	8002a6c <prvCreateIdleTasks+0x38>
    {
        cIdleName[ xIdleTaskNameIndex ] = configIDLE_TASK_NAME[ xIdleTaskNameIndex ];
 8002a48:	4a1c      	ldr	r2, [pc, #112]	@ (8002abc <prvCreateIdleTasks+0x88>)
 8002a4a:	697b      	ldr	r3, [r7, #20]
 8002a4c:	4413      	add	r3, r2
 8002a4e:	7819      	ldrb	r1, [r3, #0]
 8002a50:	1d3a      	adds	r2, r7, #4
 8002a52:	697b      	ldr	r3, [r7, #20]
 8002a54:	4413      	add	r3, r2
 8002a56:	460a      	mov	r2, r1
 8002a58:	701a      	strb	r2, [r3, #0]

        /* Don't copy all configMAX_TASK_NAME_LEN if the string is shorter than
         * configMAX_TASK_NAME_LEN characters just in case the memory after the
         * string is not accessible (extremely unlikely). */
        if( cIdleName[ xIdleTaskNameIndex ] == ( char ) 0x00 )
 8002a5a:	1d3a      	adds	r2, r7, #4
 8002a5c:	697b      	ldr	r3, [r7, #20]
 8002a5e:	4413      	add	r3, r2
 8002a60:	781b      	ldrb	r3, [r3, #0]
 8002a62:	2b00      	cmp	r3, #0
 8002a64:	d006      	beq.n	8002a74 <prvCreateIdleTasks+0x40>
    for( xIdleTaskNameIndex = ( BaseType_t ) 0; xIdleTaskNameIndex < ( BaseType_t ) configMAX_TASK_NAME_LEN; xIdleTaskNameIndex++ )
 8002a66:	697b      	ldr	r3, [r7, #20]
 8002a68:	3301      	adds	r3, #1
 8002a6a:	617b      	str	r3, [r7, #20]
 8002a6c:	697b      	ldr	r3, [r7, #20]
 8002a6e:	2b09      	cmp	r3, #9
 8002a70:	ddea      	ble.n	8002a48 <prvCreateIdleTasks+0x14>
 8002a72:	e000      	b.n	8002a76 <prvCreateIdleTasks+0x42>
        {
            break;
 8002a74:	bf00      	nop
            mtCOVERAGE_TEST_MARKER();
        }
    }

    /* Add each idle task at the lowest priority. */
    for( xCoreID = ( BaseType_t ) 0; xCoreID < ( BaseType_t ) configNUMBER_OF_CORES; xCoreID++ )
 8002a76:	2300      	movs	r3, #0
 8002a78:	61bb      	str	r3, [r7, #24]
 8002a7a:	e015      	b.n	8002aa8 <prvCreateIdleTasks+0x74>
    {
        #if ( configNUMBER_OF_CORES == 1 )
        {
            pxIdleTaskFunction = prvIdleTask;
 8002a7c:	4b10      	ldr	r3, [pc, #64]	@ (8002ac0 <prvCreateIdleTasks+0x8c>)
 8002a7e:	613b      	str	r3, [r7, #16]
            }
        }
        #else /* if ( configSUPPORT_STATIC_ALLOCATION == 1 ) */
        {
            /* The Idle task is being created using dynamically allocated RAM. */
            xReturn = xTaskCreate( pxIdleTaskFunction,
 8002a80:	69bb      	ldr	r3, [r7, #24]
 8002a82:	009b      	lsls	r3, r3, #2
 8002a84:	4a0f      	ldr	r2, [pc, #60]	@ (8002ac4 <prvCreateIdleTasks+0x90>)
 8002a86:	4413      	add	r3, r2
 8002a88:	1d39      	adds	r1, r7, #4
 8002a8a:	9301      	str	r3, [sp, #4]
 8002a8c:	2300      	movs	r3, #0
 8002a8e:	9300      	str	r3, [sp, #0]
 8002a90:	2300      	movs	r3, #0
 8002a92:	2282      	movs	r2, #130	@ 0x82
 8002a94:	6938      	ldr	r0, [r7, #16]
 8002a96:	f7ff fd4a 	bl	800252e <xTaskCreate>
 8002a9a:	61f8      	str	r0, [r7, #28]
                                   &xIdleTaskHandles[ xCoreID ] );
        }
        #endif /* configSUPPORT_STATIC_ALLOCATION */

        /* Break the loop if any of the idle task is failed to be created. */
        if( xReturn == pdFAIL )
 8002a9c:	69fb      	ldr	r3, [r7, #28]
 8002a9e:	2b00      	cmp	r3, #0
 8002aa0:	d006      	beq.n	8002ab0 <prvCreateIdleTasks+0x7c>
    for( xCoreID = ( BaseType_t ) 0; xCoreID < ( BaseType_t ) configNUMBER_OF_CORES; xCoreID++ )
 8002aa2:	69bb      	ldr	r3, [r7, #24]
 8002aa4:	3301      	adds	r3, #1
 8002aa6:	61bb      	str	r3, [r7, #24]
 8002aa8:	69bb      	ldr	r3, [r7, #24]
 8002aaa:	2b00      	cmp	r3, #0
 8002aac:	dde6      	ble.n	8002a7c <prvCreateIdleTasks+0x48>
 8002aae:	e000      	b.n	8002ab2 <prvCreateIdleTasks+0x7e>
        {
            break;
 8002ab0:	bf00      	nop
        {
            mtCOVERAGE_TEST_MARKER();
        }
    }

    return xReturn;
 8002ab2:	69fb      	ldr	r3, [r7, #28]
}
 8002ab4:	4618      	mov	r0, r3
 8002ab6:	3720      	adds	r7, #32
 8002ab8:	46bd      	mov	sp, r7
 8002aba:	bd80      	pop	{r7, pc}
 8002abc:	080061d8 	.word	0x080061d8
 8002ac0:	0800310d 	.word	0x0800310d
 8002ac4:	20000188 	.word	0x20000188

08002ac8 <vTaskStartScheduler>:

/*-----------------------------------------------------------*/

void vTaskStartScheduler( void )
{
 8002ac8:	b580      	push	{r7, lr}
 8002aca:	b084      	sub	sp, #16
 8002acc:	af00      	add	r7, sp, #0
    BaseType_t xReturn;

    traceENTER_vTaskStartScheduler();
 8002ace:	20cd      	movs	r0, #205	@ 0xcd
 8002ad0:	f002 fa78 	bl	8004fc4 <SEGGER_SYSVIEW_RecordVoid>
         * the number of bits as confNUMBER_OF_CORES. */
        configASSERT( ( sizeof( UBaseType_t ) * taskBITS_PER_BYTE ) >= configNUMBER_OF_CORES );
    }
    #endif /* #if ( configUSE_CORE_AFFINITY == 1 ) && ( configNUMBER_OF_CORES > 1 ) */

    xReturn = prvCreateIdleTasks();
 8002ad4:	f7ff ffae 	bl	8002a34 <prvCreateIdleTasks>
 8002ad8:	60f8      	str	r0, [r7, #12]
            mtCOVERAGE_TEST_MARKER();
        }
    }
    #endif /* configUSE_TIMERS */

    if( xReturn == pdPASS )
 8002ada:	68fb      	ldr	r3, [r7, #12]
 8002adc:	2b01      	cmp	r3, #1
 8002ade:	d124      	bne.n	8002b2a <vTaskStartScheduler+0x62>
    __asm volatile
 8002ae0:	f04f 0350 	mov.w	r3, #80	@ 0x50
 8002ae4:	f383 8811 	msr	BASEPRI, r3
 8002ae8:	f3bf 8f6f 	isb	sy
 8002aec:	f3bf 8f4f 	dsb	sy
 8002af0:	60bb      	str	r3, [r7, #8]
}
 8002af2:	bf00      	nop
             * block specific to the task that will run first. */
            configSET_TLS_BLOCK( pxCurrentTCB->xTLSBlock );
        }
        #endif

        xNextTaskUnblockTime = portMAX_DELAY;
 8002af4:	4b19      	ldr	r3, [pc, #100]	@ (8002b5c <vTaskStartScheduler+0x94>)
 8002af6:	f04f 32ff 	mov.w	r2, #4294967295	@ 0xffffffff
 8002afa:	601a      	str	r2, [r3, #0]
        xSchedulerRunning = pdTRUE;
 8002afc:	4b18      	ldr	r3, [pc, #96]	@ (8002b60 <vTaskStartScheduler+0x98>)
 8002afe:	2201      	movs	r2, #1
 8002b00:	601a      	str	r2, [r3, #0]
        xTickCount = ( TickType_t ) configINITIAL_TICK_COUNT;
 8002b02:	4b18      	ldr	r3, [pc, #96]	@ (8002b64 <vTaskStartScheduler+0x9c>)
 8002b04:	2200      	movs	r2, #0
 8002b06:	601a      	str	r2, [r3, #0]
         * is set to 0 and the following line fails to build then ensure you do not
         * have portCONFIGURE_TIMER_FOR_RUN_TIME_STATS() defined in your
         * FreeRTOSConfig.h file. */
        portCONFIGURE_TIMER_FOR_RUN_TIME_STATS();

        traceTASK_SWITCHED_IN();
 8002b08:	4b17      	ldr	r3, [pc, #92]	@ (8002b68 <vTaskStartScheduler+0xa0>)
 8002b0a:	681a      	ldr	r2, [r3, #0]
 8002b0c:	4b17      	ldr	r3, [pc, #92]	@ (8002b6c <vTaskStartScheduler+0xa4>)
 8002b0e:	681b      	ldr	r3, [r3, #0]
 8002b10:	429a      	cmp	r2, r3
 8002b12:	d102      	bne.n	8002b1a <vTaskStartScheduler+0x52>
 8002b14:	f003 f858 	bl	8005bc8 <SEGGER_SYSVIEW_OnIdle>
 8002b18:	e004      	b.n	8002b24 <vTaskStartScheduler+0x5c>
 8002b1a:	4b14      	ldr	r3, [pc, #80]	@ (8002b6c <vTaskStartScheduler+0xa4>)
 8002b1c:	681b      	ldr	r3, [r3, #0]
 8002b1e:	4618      	mov	r0, r3
 8002b20:	f003 f8b0 	bl	8005c84 <SEGGER_SYSVIEW_OnTaskStartExec>
        /* Setting up the timer tick is hardware specific and thus in the
         * portable interface. */

        /* The return value for xPortStartScheduler is not required
         * hence using a void datatype. */
        ( void ) xPortStartScheduler();
 8002b24:	f000 fea6 	bl	8003874 <xPortStartScheduler>
 8002b28:	e00f      	b.n	8002b4a <vTaskStartScheduler+0x82>
    else
    {
        /* This line will only be reached if the kernel could not be started,
         * because there was not enough FreeRTOS heap to create the idle task
         * or the timer task. */
        configASSERT( xReturn != errCOULD_NOT_ALLOCATE_REQUIRED_MEMORY );
 8002b2a:	68fb      	ldr	r3, [r7, #12]
 8002b2c:	f1b3 3fff 	cmp.w	r3, #4294967295	@ 0xffffffff
 8002b30:	d10b      	bne.n	8002b4a <vTaskStartScheduler+0x82>
    __asm volatile
 8002b32:	f04f 0350 	mov.w	r3, #80	@ 0x50
 8002b36:	f383 8811 	msr	BASEPRI, r3
 8002b3a:	f3bf 8f6f 	isb	sy
 8002b3e:	f3bf 8f4f 	dsb	sy
 8002b42:	607b      	str	r3, [r7, #4]
}
 8002b44:	bf00      	nop
 8002b46:	bf00      	nop
 8002b48:	e7fd      	b.n	8002b46 <vTaskStartScheduler+0x7e>
     * meaning xIdleTaskHandles are not used anywhere else. */
    ( void ) xIdleTaskHandles;

    /* OpenOCD makes use of uxTopUsedPriority for thread debugging. Prevent uxTopUsedPriority
     * from getting optimized out as it is no longer used by the kernel. */
    ( void ) uxTopUsedPriority;
 8002b4a:	4b09      	ldr	r3, [pc, #36]	@ (8002b70 <vTaskStartScheduler+0xa8>)
 8002b4c:	681b      	ldr	r3, [r3, #0]

    traceRETURN_vTaskStartScheduler();
 8002b4e:	20cd      	movs	r0, #205	@ 0xcd
 8002b50:	f002 ffa6 	bl	8005aa0 <SEGGER_SYSVIEW_RecordEndCall>
}
 8002b54:	bf00      	nop
 8002b56:	3710      	adds	r7, #16
 8002b58:	46bd      	mov	sp, r7
 8002b5a:	bd80      	pop	{r7, pc}
 8002b5c:	20000184 	.word	0x20000184
 8002b60:	20000170 	.word	0x20000170
 8002b64:	20000168 	.word	0x20000168
 8002b68:	20000188 	.word	0x20000188
 8002b6c:	2000008c 	.word	0x2000008c
 8002b70:	080062c0 	.word	0x080062c0

08002b74 <vTaskSuspendAll>:
    traceRETURN_vTaskEndScheduler();
}
/*----------------------------------------------------------*/

void vTaskSuspendAll( void )
{
 8002b74:	b580      	push	{r7, lr}
 8002b76:	af00      	add	r7, sp, #0
    traceENTER_vTaskSuspendAll();
 8002b78:	20cf      	movs	r0, #207	@ 0xcf
 8002b7a:	f002 fa23 	bl	8004fc4 <SEGGER_SYSVIEW_RecordVoid>
         * do not otherwise exhibit real time behaviour. */
        portSOFTWARE_BARRIER();

        /* The scheduler is suspended if uxSchedulerSuspended is non-zero.  An increment
         * is used to allow calls to vTaskSuspendAll() to nest. */
        ++uxSchedulerSuspended;
 8002b7e:	4b05      	ldr	r3, [pc, #20]	@ (8002b94 <vTaskSuspendAll+0x20>)
 8002b80:	681b      	ldr	r3, [r3, #0]
 8002b82:	3301      	adds	r3, #1
 8002b84:	4a03      	ldr	r2, [pc, #12]	@ (8002b94 <vTaskSuspendAll+0x20>)
 8002b86:	6013      	str	r3, [r2, #0]
            mtCOVERAGE_TEST_MARKER();
        }
    }
    #endif /* #if ( configNUMBER_OF_CORES == 1 ) */

    traceRETURN_vTaskSuspendAll();
 8002b88:	20cf      	movs	r0, #207	@ 0xcf
 8002b8a:	f002 ff89 	bl	8005aa0 <SEGGER_SYSVIEW_RecordEndCall>
}
 8002b8e:	bf00      	nop
 8002b90:	bd80      	pop	{r7, pc}
 8002b92:	bf00      	nop
 8002b94:	2000018c 	.word	0x2000018c

08002b98 <xTaskResumeAll>:

#endif /* configUSE_TICKLESS_IDLE */
/*----------------------------------------------------------*/

BaseType_t xTaskResumeAll( void )
{
 8002b98:	b580      	push	{r7, lr}
 8002b9a:	b088      	sub	sp, #32
 8002b9c:	af00      	add	r7, sp, #0
    TCB_t * pxTCB = NULL;
 8002b9e:	2300      	movs	r3, #0
 8002ba0:	61fb      	str	r3, [r7, #28]
    BaseType_t xAlreadyYielded = pdFALSE;
 8002ba2:	2300      	movs	r3, #0
 8002ba4:	61bb      	str	r3, [r7, #24]

    traceENTER_xTaskResumeAll();
 8002ba6:	20d0      	movs	r0, #208	@ 0xd0
 8002ba8:	f002 fa0c 	bl	8004fc4 <SEGGER_SYSVIEW_RecordVoid>
        /* It is possible that an ISR caused a task to be removed from an event
         * list while the scheduler was suspended.  If this was the case then the
         * removed task will have been added to the xPendingReadyList.  Once the
         * scheduler has been resumed it is safe to move all the pending ready
         * tasks from this list into their appropriate ready list. */
        taskENTER_CRITICAL();
 8002bac:	f000 ffd2 	bl	8003b54 <vPortEnterCritical>
        {
            BaseType_t xCoreID;
            xCoreID = ( BaseType_t ) portGET_CORE_ID();
 8002bb0:	2300      	movs	r3, #0
 8002bb2:	613b      	str	r3, [r7, #16]

            /* If uxSchedulerSuspended is zero then this function does not match a
             * previous call to vTaskSuspendAll(). */
            configASSERT( uxSchedulerSuspended != 0U );
 8002bb4:	4b78      	ldr	r3, [pc, #480]	@ (8002d98 <xTaskResumeAll+0x200>)
 8002bb6:	681b      	ldr	r3, [r3, #0]
 8002bb8:	2b00      	cmp	r3, #0
 8002bba:	d10b      	bne.n	8002bd4 <xTaskResumeAll+0x3c>
    __asm volatile
 8002bbc:	f04f 0350 	mov.w	r3, #80	@ 0x50
 8002bc0:	f383 8811 	msr	BASEPRI, r3
 8002bc4:	f3bf 8f6f 	isb	sy
 8002bc8:	f3bf 8f4f 	dsb	sy
 8002bcc:	603b      	str	r3, [r7, #0]
}
 8002bce:	bf00      	nop
 8002bd0:	bf00      	nop
 8002bd2:	e7fd      	b.n	8002bd0 <xTaskResumeAll+0x38>

            --uxSchedulerSuspended;
 8002bd4:	4b70      	ldr	r3, [pc, #448]	@ (8002d98 <xTaskResumeAll+0x200>)
 8002bd6:	681b      	ldr	r3, [r3, #0]
 8002bd8:	3b01      	subs	r3, #1
 8002bda:	4a6f      	ldr	r2, [pc, #444]	@ (8002d98 <xTaskResumeAll+0x200>)
 8002bdc:	6013      	str	r3, [r2, #0]
            portRELEASE_TASK_LOCK();

            if( uxSchedulerSuspended == ( UBaseType_t ) 0U )
 8002bde:	4b6e      	ldr	r3, [pc, #440]	@ (8002d98 <xTaskResumeAll+0x200>)
 8002be0:	681b      	ldr	r3, [r3, #0]
 8002be2:	2b00      	cmp	r3, #0
 8002be4:	f040 80cc 	bne.w	8002d80 <xTaskResumeAll+0x1e8>
            {
                if( uxCurrentNumberOfTasks > ( UBaseType_t ) 0U )
 8002be8:	4b6c      	ldr	r3, [pc, #432]	@ (8002d9c <xTaskResumeAll+0x204>)
 8002bea:	681b      	ldr	r3, [r3, #0]
 8002bec:	2b00      	cmp	r3, #0
 8002bee:	f000 80c7 	beq.w	8002d80 <xTaskResumeAll+0x1e8>
                {
                    /* Move any readied tasks from the pending list into the
                     * appropriate ready list. */
                    while( listLIST_IS_EMPTY( &xPendingReadyList ) == pdFALSE )
 8002bf2:	e090      	b.n	8002d16 <xTaskResumeAll+0x17e>
                    {
                        /* MISRA Ref 11.5.3 [Void pointer assignment] */
                        /* More details at: https://github.com/FreeRTOS/FreeRTOS-Kernel/blob/main/MISRA.md#rule-115 */
                        /* coverity[misra_c_2012_rule_11_5_violation] */
                        pxTCB = listGET_OWNER_OF_HEAD_ENTRY( ( &xPendingReadyList ) );
 8002bf4:	4b6a      	ldr	r3, [pc, #424]	@ (8002da0 <xTaskResumeAll+0x208>)
 8002bf6:	68db      	ldr	r3, [r3, #12]
 8002bf8:	68db      	ldr	r3, [r3, #12]
 8002bfa:	61fb      	str	r3, [r7, #28]
                        listREMOVE_ITEM( &( pxTCB->xEventListItem ) );
 8002bfc:	69fb      	ldr	r3, [r7, #28]
 8002bfe:	6a9b      	ldr	r3, [r3, #40]	@ 0x28
 8002c00:	60fb      	str	r3, [r7, #12]
 8002c02:	69fb      	ldr	r3, [r7, #28]
 8002c04:	69db      	ldr	r3, [r3, #28]
 8002c06:	69fa      	ldr	r2, [r7, #28]
 8002c08:	6a12      	ldr	r2, [r2, #32]
 8002c0a:	609a      	str	r2, [r3, #8]
 8002c0c:	69fb      	ldr	r3, [r7, #28]
 8002c0e:	6a1b      	ldr	r3, [r3, #32]
 8002c10:	69fa      	ldr	r2, [r7, #28]
 8002c12:	69d2      	ldr	r2, [r2, #28]
 8002c14:	605a      	str	r2, [r3, #4]
 8002c16:	68fb      	ldr	r3, [r7, #12]
 8002c18:	685a      	ldr	r2, [r3, #4]
 8002c1a:	69fb      	ldr	r3, [r7, #28]
 8002c1c:	3318      	adds	r3, #24
 8002c1e:	429a      	cmp	r2, r3
 8002c20:	d103      	bne.n	8002c2a <xTaskResumeAll+0x92>
 8002c22:	69fb      	ldr	r3, [r7, #28]
 8002c24:	6a1a      	ldr	r2, [r3, #32]
 8002c26:	68fb      	ldr	r3, [r7, #12]
 8002c28:	605a      	str	r2, [r3, #4]
 8002c2a:	69fb      	ldr	r3, [r7, #28]
 8002c2c:	2200      	movs	r2, #0
 8002c2e:	629a      	str	r2, [r3, #40]	@ 0x28
 8002c30:	68fb      	ldr	r3, [r7, #12]
 8002c32:	681b      	ldr	r3, [r3, #0]
 8002c34:	1e5a      	subs	r2, r3, #1
 8002c36:	68fb      	ldr	r3, [r7, #12]
 8002c38:	601a      	str	r2, [r3, #0]
                        portMEMORY_BARRIER();
                        listREMOVE_ITEM( &( pxTCB->xStateListItem ) );
 8002c3a:	69fb      	ldr	r3, [r7, #28]
 8002c3c:	695b      	ldr	r3, [r3, #20]
 8002c3e:	60bb      	str	r3, [r7, #8]
 8002c40:	69fb      	ldr	r3, [r7, #28]
 8002c42:	689b      	ldr	r3, [r3, #8]
 8002c44:	69fa      	ldr	r2, [r7, #28]
 8002c46:	68d2      	ldr	r2, [r2, #12]
 8002c48:	609a      	str	r2, [r3, #8]
 8002c4a:	69fb      	ldr	r3, [r7, #28]
 8002c4c:	68db      	ldr	r3, [r3, #12]
 8002c4e:	69fa      	ldr	r2, [r7, #28]
 8002c50:	6892      	ldr	r2, [r2, #8]
 8002c52:	605a      	str	r2, [r3, #4]
 8002c54:	68bb      	ldr	r3, [r7, #8]
 8002c56:	685a      	ldr	r2, [r3, #4]
 8002c58:	69fb      	ldr	r3, [r7, #28]
 8002c5a:	3304      	adds	r3, #4
 8002c5c:	429a      	cmp	r2, r3
 8002c5e:	d103      	bne.n	8002c68 <xTaskResumeAll+0xd0>
 8002c60:	69fb      	ldr	r3, [r7, #28]
 8002c62:	68da      	ldr	r2, [r3, #12]
 8002c64:	68bb      	ldr	r3, [r7, #8]
 8002c66:	605a      	str	r2, [r3, #4]
 8002c68:	69fb      	ldr	r3, [r7, #28]
 8002c6a:	2200      	movs	r2, #0
 8002c6c:	615a      	str	r2, [r3, #20]
 8002c6e:	68bb      	ldr	r3, [r7, #8]
 8002c70:	681b      	ldr	r3, [r3, #0]
 8002c72:	1e5a      	subs	r2, r3, #1
 8002c74:	68bb      	ldr	r3, [r7, #8]
 8002c76:	601a      	str	r2, [r3, #0]
                        prvAddTaskToReadyList( pxTCB );
 8002c78:	69fb      	ldr	r3, [r7, #28]
 8002c7a:	4618      	mov	r0, r3
 8002c7c:	f003 f844 	bl	8005d08 <SEGGER_SYSVIEW_OnTaskStartReady>
 8002c80:	69fb      	ldr	r3, [r7, #28]
 8002c82:	6adb      	ldr	r3, [r3, #44]	@ 0x2c
 8002c84:	2201      	movs	r2, #1
 8002c86:	409a      	lsls	r2, r3
 8002c88:	4b46      	ldr	r3, [pc, #280]	@ (8002da4 <xTaskResumeAll+0x20c>)
 8002c8a:	681b      	ldr	r3, [r3, #0]
 8002c8c:	4313      	orrs	r3, r2
 8002c8e:	4a45      	ldr	r2, [pc, #276]	@ (8002da4 <xTaskResumeAll+0x20c>)
 8002c90:	6013      	str	r3, [r2, #0]
 8002c92:	69fb      	ldr	r3, [r7, #28]
 8002c94:	6ada      	ldr	r2, [r3, #44]	@ 0x2c
 8002c96:	4944      	ldr	r1, [pc, #272]	@ (8002da8 <xTaskResumeAll+0x210>)
 8002c98:	4613      	mov	r3, r2
 8002c9a:	009b      	lsls	r3, r3, #2
 8002c9c:	4413      	add	r3, r2
 8002c9e:	009b      	lsls	r3, r3, #2
 8002ca0:	440b      	add	r3, r1
 8002ca2:	3304      	adds	r3, #4
 8002ca4:	681b      	ldr	r3, [r3, #0]
 8002ca6:	607b      	str	r3, [r7, #4]
 8002ca8:	69fb      	ldr	r3, [r7, #28]
 8002caa:	687a      	ldr	r2, [r7, #4]
 8002cac:	609a      	str	r2, [r3, #8]
 8002cae:	687b      	ldr	r3, [r7, #4]
 8002cb0:	689a      	ldr	r2, [r3, #8]
 8002cb2:	69fb      	ldr	r3, [r7, #28]
 8002cb4:	60da      	str	r2, [r3, #12]
 8002cb6:	687b      	ldr	r3, [r7, #4]
 8002cb8:	689b      	ldr	r3, [r3, #8]
 8002cba:	69fa      	ldr	r2, [r7, #28]
 8002cbc:	3204      	adds	r2, #4
 8002cbe:	605a      	str	r2, [r3, #4]
 8002cc0:	69fb      	ldr	r3, [r7, #28]
 8002cc2:	1d1a      	adds	r2, r3, #4
 8002cc4:	687b      	ldr	r3, [r7, #4]
 8002cc6:	609a      	str	r2, [r3, #8]
 8002cc8:	69fb      	ldr	r3, [r7, #28]
 8002cca:	6ada      	ldr	r2, [r3, #44]	@ 0x2c
 8002ccc:	4613      	mov	r3, r2
 8002cce:	009b      	lsls	r3, r3, #2
 8002cd0:	4413      	add	r3, r2
 8002cd2:	009b      	lsls	r3, r3, #2
 8002cd4:	4a34      	ldr	r2, [pc, #208]	@ (8002da8 <xTaskResumeAll+0x210>)
 8002cd6:	441a      	add	r2, r3
 8002cd8:	69fb      	ldr	r3, [r7, #28]
 8002cda:	615a      	str	r2, [r3, #20]
 8002cdc:	69fb      	ldr	r3, [r7, #28]
 8002cde:	6ada      	ldr	r2, [r3, #44]	@ 0x2c
 8002ce0:	4931      	ldr	r1, [pc, #196]	@ (8002da8 <xTaskResumeAll+0x210>)
 8002ce2:	4613      	mov	r3, r2
 8002ce4:	009b      	lsls	r3, r3, #2
 8002ce6:	4413      	add	r3, r2
 8002ce8:	009b      	lsls	r3, r3, #2
 8002cea:	440b      	add	r3, r1
 8002cec:	681b      	ldr	r3, [r3, #0]
 8002cee:	1c59      	adds	r1, r3, #1
 8002cf0:	482d      	ldr	r0, [pc, #180]	@ (8002da8 <xTaskResumeAll+0x210>)
 8002cf2:	4613      	mov	r3, r2
 8002cf4:	009b      	lsls	r3, r3, #2
 8002cf6:	4413      	add	r3, r2
 8002cf8:	009b      	lsls	r3, r3, #2
 8002cfa:	4403      	add	r3, r0
 8002cfc:	6019      	str	r1, [r3, #0]

                        #if ( configNUMBER_OF_CORES == 1 )
                        {
                            /* If the moved task has a priority higher than the current
                             * task then a yield must be performed. */
                            if( pxTCB->uxPriority > pxCurrentTCB->uxPriority )
 8002cfe:	69fb      	ldr	r3, [r7, #28]
 8002d00:	6ada      	ldr	r2, [r3, #44]	@ 0x2c
 8002d02:	4b2a      	ldr	r3, [pc, #168]	@ (8002dac <xTaskResumeAll+0x214>)
 8002d04:	681b      	ldr	r3, [r3, #0]
 8002d06:	6adb      	ldr	r3, [r3, #44]	@ 0x2c
 8002d08:	429a      	cmp	r2, r3
 8002d0a:	d904      	bls.n	8002d16 <xTaskResumeAll+0x17e>
                            {
                                xYieldPendings[ xCoreID ] = pdTRUE;
 8002d0c:	4a28      	ldr	r2, [pc, #160]	@ (8002db0 <xTaskResumeAll+0x218>)
 8002d0e:	693b      	ldr	r3, [r7, #16]
 8002d10:	2101      	movs	r1, #1
 8002d12:	f842 1023 	str.w	r1, [r2, r3, lsl #2]
                    while( listLIST_IS_EMPTY( &xPendingReadyList ) == pdFALSE )
 8002d16:	4b22      	ldr	r3, [pc, #136]	@ (8002da0 <xTaskResumeAll+0x208>)
 8002d18:	681b      	ldr	r3, [r3, #0]
 8002d1a:	2b00      	cmp	r3, #0
 8002d1c:	f47f af6a 	bne.w	8002bf4 <xTaskResumeAll+0x5c>
                             * which sets xYieldPendings for the current core to pdTRUE. */
                        }
                        #endif /* #if ( configNUMBER_OF_CORES == 1 ) */
                    }

                    if( pxTCB != NULL )
 8002d20:	69fb      	ldr	r3, [r7, #28]
 8002d22:	2b00      	cmp	r3, #0
 8002d24:	d001      	beq.n	8002d2a <xTaskResumeAll+0x192>
                         * which may have prevented the next unblock time from being
                         * re-calculated, in which case re-calculate it now.  Mainly
                         * important for low power tickless implementations, where
                         * this can prevent an unnecessary exit from low power
                         * state. */
                        prvResetNextTaskUnblockTime();
 8002d26:	f000 fa87 	bl	8003238 <prvResetNextTaskUnblockTime>
                     * It should be safe to call xTaskIncrementTick here from any core
                     * since we are in a critical section and xTaskIncrementTick itself
                     * protects itself within a critical section. Suspending the scheduler
                     * from any core causes xTaskIncrementTick to increment uxPendedCounts. */
                    {
                        TickType_t xPendedCounts = xPendedTicks; /* Non-volatile copy. */
 8002d2a:	4b22      	ldr	r3, [pc, #136]	@ (8002db4 <xTaskResumeAll+0x21c>)
 8002d2c:	681b      	ldr	r3, [r3, #0]
 8002d2e:	617b      	str	r3, [r7, #20]

                        if( xPendedCounts > ( TickType_t ) 0U )
 8002d30:	697b      	ldr	r3, [r7, #20]
 8002d32:	2b00      	cmp	r3, #0
 8002d34:	d012      	beq.n	8002d5c <xTaskResumeAll+0x1c4>
                        {
                            do
                            {
                                if( xTaskIncrementTick() != pdFALSE )
 8002d36:	f000 f859 	bl	8002dec <xTaskIncrementTick>
 8002d3a:	4603      	mov	r3, r0
 8002d3c:	2b00      	cmp	r3, #0
 8002d3e:	d004      	beq.n	8002d4a <xTaskResumeAll+0x1b2>
                                {
                                    /* Other cores are interrupted from
                                     * within xTaskIncrementTick(). */
                                    xYieldPendings[ xCoreID ] = pdTRUE;
 8002d40:	4a1b      	ldr	r2, [pc, #108]	@ (8002db0 <xTaskResumeAll+0x218>)
 8002d42:	693b      	ldr	r3, [r7, #16]
 8002d44:	2101      	movs	r1, #1
 8002d46:	f842 1023 	str.w	r1, [r2, r3, lsl #2]
                                else
                                {
                                    mtCOVERAGE_TEST_MARKER();
                                }

                                --xPendedCounts;
 8002d4a:	697b      	ldr	r3, [r7, #20]
 8002d4c:	3b01      	subs	r3, #1
 8002d4e:	617b      	str	r3, [r7, #20]
                            } while( xPendedCounts > ( TickType_t ) 0U );
 8002d50:	697b      	ldr	r3, [r7, #20]
 8002d52:	2b00      	cmp	r3, #0
 8002d54:	d1ef      	bne.n	8002d36 <xTaskResumeAll+0x19e>

                            xPendedTicks = 0;
 8002d56:	4b17      	ldr	r3, [pc, #92]	@ (8002db4 <xTaskResumeAll+0x21c>)
 8002d58:	2200      	movs	r2, #0
 8002d5a:	601a      	str	r2, [r3, #0]
                        {
                            mtCOVERAGE_TEST_MARKER();
                        }
                    }

                    if( xYieldPendings[ xCoreID ] != pdFALSE )
 8002d5c:	4a14      	ldr	r2, [pc, #80]	@ (8002db0 <xTaskResumeAll+0x218>)
 8002d5e:	693b      	ldr	r3, [r7, #16]
 8002d60:	f852 3023 	ldr.w	r3, [r2, r3, lsl #2]
 8002d64:	2b00      	cmp	r3, #0
 8002d66:	d00b      	beq.n	8002d80 <xTaskResumeAll+0x1e8>
                    {
                        #if ( configUSE_PREEMPTION != 0 )
                        {
                            xAlreadyYielded = pdTRUE;
 8002d68:	2301      	movs	r3, #1
 8002d6a:	61bb      	str	r3, [r7, #24]
                        }
                        #endif /* #if ( configUSE_PREEMPTION != 0 ) */

                        #if ( configNUMBER_OF_CORES == 1 )
                        {
                            taskYIELD_TASK_CORE_IF_USING_PREEMPTION( pxCurrentTCB );
 8002d6c:	4b0f      	ldr	r3, [pc, #60]	@ (8002dac <xTaskResumeAll+0x214>)
 8002d6e:	681b      	ldr	r3, [r3, #0]
 8002d70:	4b11      	ldr	r3, [pc, #68]	@ (8002db8 <xTaskResumeAll+0x220>)
 8002d72:	f04f 5280 	mov.w	r2, #268435456	@ 0x10000000
 8002d76:	601a      	str	r2, [r3, #0]
 8002d78:	f3bf 8f4f 	dsb	sy
 8002d7c:	f3bf 8f6f 	isb	sy
            else
            {
                mtCOVERAGE_TEST_MARKER();
            }
        }
        taskEXIT_CRITICAL();
 8002d80:	f000 ff1a 	bl	8003bb8 <vPortExitCritical>
    }

    traceRETURN_xTaskResumeAll( xAlreadyYielded );
 8002d84:	69bb      	ldr	r3, [r7, #24]
 8002d86:	4619      	mov	r1, r3
 8002d88:	20d0      	movs	r0, #208	@ 0xd0
 8002d8a:	f002 fec5 	bl	8005b18 <SEGGER_SYSVIEW_RecordEndCallU32>

    return xAlreadyYielded;
 8002d8e:	69bb      	ldr	r3, [r7, #24]
}
 8002d90:	4618      	mov	r0, r3
 8002d92:	3720      	adds	r7, #32
 8002d94:	46bd      	mov	sp, r7
 8002d96:	bd80      	pop	{r7, pc}
 8002d98:	2000018c 	.word	0x2000018c
 8002d9c:	20000164 	.word	0x20000164
 8002da0:	20000124 	.word	0x20000124
 8002da4:	2000016c 	.word	0x2000016c
 8002da8:	20000090 	.word	0x20000090
 8002dac:	2000008c 	.word	0x2000008c
 8002db0:	20000178 	.word	0x20000178
 8002db4:	20000174 	.word	0x20000174
 8002db8:	e000ed04 	.word	0xe000ed04

08002dbc <xTaskGetTickCountFromISR>:
    return xTicks;
}
/*-----------------------------------------------------------*/

TickType_t xTaskGetTickCountFromISR( void )
{
 8002dbc:	b580      	push	{r7, lr}
 8002dbe:	b082      	sub	sp, #8
 8002dc0:	af00      	add	r7, sp, #0
    TickType_t xReturn;
    UBaseType_t uxSavedInterruptStatus;

    traceENTER_xTaskGetTickCountFromISR();
 8002dc2:	20d2      	movs	r0, #210	@ 0xd2
 8002dc4:	f002 f8fe 	bl	8004fc4 <SEGGER_SYSVIEW_RecordVoid>
     * that have been assigned a priority at or (logically) below the maximum
     * system call  interrupt priority.  FreeRTOS maintains a separate interrupt
     * safe API to ensure interrupt entry is as fast and as simple as possible.
     * More information (albeit Cortex-M specific) is provided on the following
     * link: https://www.FreeRTOS.org/RTOS-Cortex-M3-M4.html */
    portASSERT_IF_INTERRUPT_PRIORITY_INVALID();
 8002dc8:	f000 ffb0 	bl	8003d2c <vPortValidateInterruptPriority>

    uxSavedInterruptStatus = portTICK_TYPE_SET_INTERRUPT_MASK_FROM_ISR();
 8002dcc:	2300      	movs	r3, #0
 8002dce:	607b      	str	r3, [r7, #4]
    {
        xReturn = xTickCount;
 8002dd0:	4b05      	ldr	r3, [pc, #20]	@ (8002de8 <xTaskGetTickCountFromISR+0x2c>)
 8002dd2:	681b      	ldr	r3, [r3, #0]
 8002dd4:	603b      	str	r3, [r7, #0]
    }
    portTICK_TYPE_CLEAR_INTERRUPT_MASK_FROM_ISR( uxSavedInterruptStatus );

    traceRETURN_xTaskGetTickCountFromISR( xReturn );
 8002dd6:	6839      	ldr	r1, [r7, #0]
 8002dd8:	20d2      	movs	r0, #210	@ 0xd2
 8002dda:	f002 fe9d 	bl	8005b18 <SEGGER_SYSVIEW_RecordEndCallU32>

    return xReturn;
 8002dde:	683b      	ldr	r3, [r7, #0]
}
 8002de0:	4618      	mov	r0, r3
 8002de2:	3708      	adds	r7, #8
 8002de4:	46bd      	mov	sp, r7
 8002de6:	bd80      	pop	{r7, pc}
 8002de8:	20000168 	.word	0x20000168

08002dec <xTaskIncrementTick>:

#endif /* INCLUDE_xTaskAbortDelay */
/*----------------------------------------------------------*/

BaseType_t xTaskIncrementTick( void )
{
 8002dec:	b580      	push	{r7, lr}
 8002dee:	b08a      	sub	sp, #40	@ 0x28
 8002df0:	af00      	add	r7, sp, #0
    TCB_t * pxTCB;
    TickType_t xItemValue;
    BaseType_t xSwitchRequired = pdFALSE;
 8002df2:	2300      	movs	r3, #0
 8002df4:	627b      	str	r3, [r7, #36]	@ 0x24

    #if ( configUSE_PREEMPTION == 1 ) && ( configNUMBER_OF_CORES > 1 )
    BaseType_t xYieldRequiredForCore[ configNUMBER_OF_CORES ] = { pdFALSE };
    #endif /* #if ( configUSE_PREEMPTION == 1 ) && ( configNUMBER_OF_CORES > 1 ) */

    traceENTER_xTaskIncrementTick();
 8002df6:	20db      	movs	r0, #219	@ 0xdb
 8002df8:	f002 f8e4 	bl	8004fc4 <SEGGER_SYSVIEW_RecordVoid>

    /* Tick increment should occur on every kernel timer event. Core 0 has the
     * responsibility to increment the tick, or increment the pended ticks if the
     * scheduler is suspended.  If pended ticks is greater than zero, the core that
     * calls xTaskResumeAll has the responsibility to increment the tick. */
    if( uxSchedulerSuspended == ( UBaseType_t ) 0U )
 8002dfc:	4b82      	ldr	r3, [pc, #520]	@ (8003008 <xTaskIncrementTick+0x21c>)
 8002dfe:	681b      	ldr	r3, [r3, #0]
 8002e00:	2b00      	cmp	r3, #0
 8002e02:	f040 80f1 	bne.w	8002fe8 <xTaskIncrementTick+0x1fc>
    {
        /* Minor optimisation.  The tick count cannot change in this
         * block. */
        const TickType_t xConstTickCount = xTickCount + ( TickType_t ) 1;
 8002e06:	4b81      	ldr	r3, [pc, #516]	@ (800300c <xTaskIncrementTick+0x220>)
 8002e08:	681b      	ldr	r3, [r3, #0]
 8002e0a:	3301      	adds	r3, #1
 8002e0c:	623b      	str	r3, [r7, #32]

        /* Increment the RTOS tick, switching the delayed and overflowed
         * delayed lists if it wraps to 0. */
        xTickCount = xConstTickCount;
 8002e0e:	4a7f      	ldr	r2, [pc, #508]	@ (800300c <xTaskIncrementTick+0x220>)
 8002e10:	6a3b      	ldr	r3, [r7, #32]
 8002e12:	6013      	str	r3, [r2, #0]

        if( xConstTickCount == ( TickType_t ) 0U )
 8002e14:	6a3b      	ldr	r3, [r7, #32]
 8002e16:	2b00      	cmp	r3, #0
 8002e18:	d121      	bne.n	8002e5e <xTaskIncrementTick+0x72>
        {
            taskSWITCH_DELAYED_LISTS();
 8002e1a:	4b7d      	ldr	r3, [pc, #500]	@ (8003010 <xTaskIncrementTick+0x224>)
 8002e1c:	681b      	ldr	r3, [r3, #0]
 8002e1e:	681b      	ldr	r3, [r3, #0]
 8002e20:	2b00      	cmp	r3, #0
 8002e22:	d00b      	beq.n	8002e3c <xTaskIncrementTick+0x50>
    __asm volatile
 8002e24:	f04f 0350 	mov.w	r3, #80	@ 0x50
 8002e28:	f383 8811 	msr	BASEPRI, r3
 8002e2c:	f3bf 8f6f 	isb	sy
 8002e30:	f3bf 8f4f 	dsb	sy
 8002e34:	607b      	str	r3, [r7, #4]
}
 8002e36:	bf00      	nop
 8002e38:	bf00      	nop
 8002e3a:	e7fd      	b.n	8002e38 <xTaskIncrementTick+0x4c>
 8002e3c:	4b74      	ldr	r3, [pc, #464]	@ (8003010 <xTaskIncrementTick+0x224>)
 8002e3e:	681b      	ldr	r3, [r3, #0]
 8002e40:	61fb      	str	r3, [r7, #28]
 8002e42:	4b74      	ldr	r3, [pc, #464]	@ (8003014 <xTaskIncrementTick+0x228>)
 8002e44:	681b      	ldr	r3, [r3, #0]
 8002e46:	4a72      	ldr	r2, [pc, #456]	@ (8003010 <xTaskIncrementTick+0x224>)
 8002e48:	6013      	str	r3, [r2, #0]
 8002e4a:	4a72      	ldr	r2, [pc, #456]	@ (8003014 <xTaskIncrementTick+0x228>)
 8002e4c:	69fb      	ldr	r3, [r7, #28]
 8002e4e:	6013      	str	r3, [r2, #0]
 8002e50:	4b71      	ldr	r3, [pc, #452]	@ (8003018 <xTaskIncrementTick+0x22c>)
 8002e52:	681b      	ldr	r3, [r3, #0]
 8002e54:	3301      	adds	r3, #1
 8002e56:	4a70      	ldr	r2, [pc, #448]	@ (8003018 <xTaskIncrementTick+0x22c>)
 8002e58:	6013      	str	r3, [r2, #0]
 8002e5a:	f000 f9ed 	bl	8003238 <prvResetNextTaskUnblockTime>

        /* See if this tick has made a timeout expire.  Tasks are stored in
         * the  queue in the order of their wake time - meaning once one task
         * has been found whose block time has not expired there is no need to
         * look any further down the list. */
        if( xConstTickCount >= xNextTaskUnblockTime )
 8002e5e:	4b6f      	ldr	r3, [pc, #444]	@ (800301c <xTaskIncrementTick+0x230>)
 8002e60:	681b      	ldr	r3, [r3, #0]
 8002e62:	6a3a      	ldr	r2, [r7, #32]
 8002e64:	429a      	cmp	r2, r3
 8002e66:	f0c0 80aa 	bcc.w	8002fbe <xTaskIncrementTick+0x1d2>
        {
            for( ; ; )
            {
                if( listLIST_IS_EMPTY( pxDelayedTaskList ) != pdFALSE )
 8002e6a:	4b69      	ldr	r3, [pc, #420]	@ (8003010 <xTaskIncrementTick+0x224>)
 8002e6c:	681b      	ldr	r3, [r3, #0]
 8002e6e:	681b      	ldr	r3, [r3, #0]
 8002e70:	2b00      	cmp	r3, #0
 8002e72:	d104      	bne.n	8002e7e <xTaskIncrementTick+0x92>
                    /* The delayed list is empty.  Set xNextTaskUnblockTime
                     * to the maximum possible value so it is extremely
                     * unlikely that the
                     * if( xTickCount >= xNextTaskUnblockTime ) test will pass
                     * next time through. */
                    xNextTaskUnblockTime = portMAX_DELAY;
 8002e74:	4b69      	ldr	r3, [pc, #420]	@ (800301c <xTaskIncrementTick+0x230>)
 8002e76:	f04f 32ff 	mov.w	r2, #4294967295	@ 0xffffffff
 8002e7a:	601a      	str	r2, [r3, #0]
                    break;
 8002e7c:	e09f      	b.n	8002fbe <xTaskIncrementTick+0x1d2>
                     * at which the task at the head of the delayed list must
                     * be removed from the Blocked state. */
                    /* MISRA Ref 11.5.3 [Void pointer assignment] */
                    /* More details at: https://github.com/FreeRTOS/FreeRTOS-Kernel/blob/main/MISRA.md#rule-115 */
                    /* coverity[misra_c_2012_rule_11_5_violation] */
                    pxTCB = listGET_OWNER_OF_HEAD_ENTRY( pxDelayedTaskList );
 8002e7e:	4b64      	ldr	r3, [pc, #400]	@ (8003010 <xTaskIncrementTick+0x224>)
 8002e80:	681b      	ldr	r3, [r3, #0]
 8002e82:	68db      	ldr	r3, [r3, #12]
 8002e84:	68db      	ldr	r3, [r3, #12]
 8002e86:	61bb      	str	r3, [r7, #24]
                    xItemValue = listGET_LIST_ITEM_VALUE( &( pxTCB->xStateListItem ) );
 8002e88:	69bb      	ldr	r3, [r7, #24]
 8002e8a:	685b      	ldr	r3, [r3, #4]
 8002e8c:	617b      	str	r3, [r7, #20]

                    if( xConstTickCount < xItemValue )
 8002e8e:	6a3a      	ldr	r2, [r7, #32]
 8002e90:	697b      	ldr	r3, [r7, #20]
 8002e92:	429a      	cmp	r2, r3
 8002e94:	d203      	bcs.n	8002e9e <xTaskIncrementTick+0xb2>
                        /* It is not time to unblock this item yet, but the
                         * item value is the time at which the task at the head
                         * of the blocked list must be removed from the Blocked
                         * state -  so record the item value in
                         * xNextTaskUnblockTime. */
                        xNextTaskUnblockTime = xItemValue;
 8002e96:	4a61      	ldr	r2, [pc, #388]	@ (800301c <xTaskIncrementTick+0x230>)
 8002e98:	697b      	ldr	r3, [r7, #20]
 8002e9a:	6013      	str	r3, [r2, #0]
                        break;
 8002e9c:	e08f      	b.n	8002fbe <xTaskIncrementTick+0x1d2>
                    {
                        mtCOVERAGE_TEST_MARKER();
                    }

                    /* It is time to remove the item from the Blocked state. */
                    listREMOVE_ITEM( &( pxTCB->xStateListItem ) );
 8002e9e:	69bb      	ldr	r3, [r7, #24]
 8002ea0:	695b      	ldr	r3, [r3, #20]
 8002ea2:	613b      	str	r3, [r7, #16]
 8002ea4:	69bb      	ldr	r3, [r7, #24]
 8002ea6:	689b      	ldr	r3, [r3, #8]
 8002ea8:	69ba      	ldr	r2, [r7, #24]
 8002eaa:	68d2      	ldr	r2, [r2, #12]
 8002eac:	609a      	str	r2, [r3, #8]
 8002eae:	69bb      	ldr	r3, [r7, #24]
 8002eb0:	68db      	ldr	r3, [r3, #12]
 8002eb2:	69ba      	ldr	r2, [r7, #24]
 8002eb4:	6892      	ldr	r2, [r2, #8]
 8002eb6:	605a      	str	r2, [r3, #4]
 8002eb8:	693b      	ldr	r3, [r7, #16]
 8002eba:	685a      	ldr	r2, [r3, #4]
 8002ebc:	69bb      	ldr	r3, [r7, #24]
 8002ebe:	3304      	adds	r3, #4
 8002ec0:	429a      	cmp	r2, r3
 8002ec2:	d103      	bne.n	8002ecc <xTaskIncrementTick+0xe0>
 8002ec4:	69bb      	ldr	r3, [r7, #24]
 8002ec6:	68da      	ldr	r2, [r3, #12]
 8002ec8:	693b      	ldr	r3, [r7, #16]
 8002eca:	605a      	str	r2, [r3, #4]
 8002ecc:	69bb      	ldr	r3, [r7, #24]
 8002ece:	2200      	movs	r2, #0
 8002ed0:	615a      	str	r2, [r3, #20]
 8002ed2:	693b      	ldr	r3, [r7, #16]
 8002ed4:	681b      	ldr	r3, [r3, #0]
 8002ed6:	1e5a      	subs	r2, r3, #1
 8002ed8:	693b      	ldr	r3, [r7, #16]
 8002eda:	601a      	str	r2, [r3, #0]

                    /* Is the task waiting on an event also?  If so remove
                     * it from the event list. */
                    if( listLIST_ITEM_CONTAINER( &( pxTCB->xEventListItem ) ) != NULL )
 8002edc:	69bb      	ldr	r3, [r7, #24]
 8002ede:	6a9b      	ldr	r3, [r3, #40]	@ 0x28
 8002ee0:	2b00      	cmp	r3, #0
 8002ee2:	d01e      	beq.n	8002f22 <xTaskIncrementTick+0x136>
                    {
                        listREMOVE_ITEM( &( pxTCB->xEventListItem ) );
 8002ee4:	69bb      	ldr	r3, [r7, #24]
 8002ee6:	6a9b      	ldr	r3, [r3, #40]	@ 0x28
 8002ee8:	60fb      	str	r3, [r7, #12]
 8002eea:	69bb      	ldr	r3, [r7, #24]
 8002eec:	69db      	ldr	r3, [r3, #28]
 8002eee:	69ba      	ldr	r2, [r7, #24]
 8002ef0:	6a12      	ldr	r2, [r2, #32]
 8002ef2:	609a      	str	r2, [r3, #8]
 8002ef4:	69bb      	ldr	r3, [r7, #24]
 8002ef6:	6a1b      	ldr	r3, [r3, #32]
 8002ef8:	69ba      	ldr	r2, [r7, #24]
 8002efa:	69d2      	ldr	r2, [r2, #28]
 8002efc:	605a      	str	r2, [r3, #4]
 8002efe:	68fb      	ldr	r3, [r7, #12]
 8002f00:	685a      	ldr	r2, [r3, #4]
 8002f02:	69bb      	ldr	r3, [r7, #24]
 8002f04:	3318      	adds	r3, #24
 8002f06:	429a      	cmp	r2, r3
 8002f08:	d103      	bne.n	8002f12 <xTaskIncrementTick+0x126>
 8002f0a:	69bb      	ldr	r3, [r7, #24]
 8002f0c:	6a1a      	ldr	r2, [r3, #32]
 8002f0e:	68fb      	ldr	r3, [r7, #12]
 8002f10:	605a      	str	r2, [r3, #4]
 8002f12:	69bb      	ldr	r3, [r7, #24]
 8002f14:	2200      	movs	r2, #0
 8002f16:	629a      	str	r2, [r3, #40]	@ 0x28
 8002f18:	68fb      	ldr	r3, [r7, #12]
 8002f1a:	681b      	ldr	r3, [r3, #0]
 8002f1c:	1e5a      	subs	r2, r3, #1
 8002f1e:	68fb      	ldr	r3, [r7, #12]
 8002f20:	601a      	str	r2, [r3, #0]
                        mtCOVERAGE_TEST_MARKER();
                    }

                    /* Place the unblocked task into the appropriate ready
                     * list. */
                    prvAddTaskToReadyList( pxTCB );
 8002f22:	69bb      	ldr	r3, [r7, #24]
 8002f24:	4618      	mov	r0, r3
 8002f26:	f002 feef 	bl	8005d08 <SEGGER_SYSVIEW_OnTaskStartReady>
 8002f2a:	69bb      	ldr	r3, [r7, #24]
 8002f2c:	6adb      	ldr	r3, [r3, #44]	@ 0x2c
 8002f2e:	2201      	movs	r2, #1
 8002f30:	409a      	lsls	r2, r3
 8002f32:	4b3b      	ldr	r3, [pc, #236]	@ (8003020 <xTaskIncrementTick+0x234>)
 8002f34:	681b      	ldr	r3, [r3, #0]
 8002f36:	4313      	orrs	r3, r2
 8002f38:	4a39      	ldr	r2, [pc, #228]	@ (8003020 <xTaskIncrementTick+0x234>)
 8002f3a:	6013      	str	r3, [r2, #0]
 8002f3c:	69bb      	ldr	r3, [r7, #24]
 8002f3e:	6ada      	ldr	r2, [r3, #44]	@ 0x2c
 8002f40:	4938      	ldr	r1, [pc, #224]	@ (8003024 <xTaskIncrementTick+0x238>)
 8002f42:	4613      	mov	r3, r2
 8002f44:	009b      	lsls	r3, r3, #2
 8002f46:	4413      	add	r3, r2
 8002f48:	009b      	lsls	r3, r3, #2
 8002f4a:	440b      	add	r3, r1
 8002f4c:	3304      	adds	r3, #4
 8002f4e:	681b      	ldr	r3, [r3, #0]
 8002f50:	60bb      	str	r3, [r7, #8]
 8002f52:	69bb      	ldr	r3, [r7, #24]
 8002f54:	68ba      	ldr	r2, [r7, #8]
 8002f56:	609a      	str	r2, [r3, #8]
 8002f58:	68bb      	ldr	r3, [r7, #8]
 8002f5a:	689a      	ldr	r2, [r3, #8]
 8002f5c:	69bb      	ldr	r3, [r7, #24]
 8002f5e:	60da      	str	r2, [r3, #12]
 8002f60:	68bb      	ldr	r3, [r7, #8]
 8002f62:	689b      	ldr	r3, [r3, #8]
 8002f64:	69ba      	ldr	r2, [r7, #24]
 8002f66:	3204      	adds	r2, #4
 8002f68:	605a      	str	r2, [r3, #4]
 8002f6a:	69bb      	ldr	r3, [r7, #24]
 8002f6c:	1d1a      	adds	r2, r3, #4
 8002f6e:	68bb      	ldr	r3, [r7, #8]
 8002f70:	609a      	str	r2, [r3, #8]
 8002f72:	69bb      	ldr	r3, [r7, #24]
 8002f74:	6ada      	ldr	r2, [r3, #44]	@ 0x2c
 8002f76:	4613      	mov	r3, r2
 8002f78:	009b      	lsls	r3, r3, #2
 8002f7a:	4413      	add	r3, r2
 8002f7c:	009b      	lsls	r3, r3, #2
 8002f7e:	4a29      	ldr	r2, [pc, #164]	@ (8003024 <xTaskIncrementTick+0x238>)
 8002f80:	441a      	add	r2, r3
 8002f82:	69bb      	ldr	r3, [r7, #24]
 8002f84:	615a      	str	r2, [r3, #20]
 8002f86:	69bb      	ldr	r3, [r7, #24]
 8002f88:	6ada      	ldr	r2, [r3, #44]	@ 0x2c
 8002f8a:	4926      	ldr	r1, [pc, #152]	@ (8003024 <xTaskIncrementTick+0x238>)
 8002f8c:	4613      	mov	r3, r2
 8002f8e:	009b      	lsls	r3, r3, #2
 8002f90:	4413      	add	r3, r2
 8002f92:	009b      	lsls	r3, r3, #2
 8002f94:	440b      	add	r3, r1
 8002f96:	681b      	ldr	r3, [r3, #0]
 8002f98:	1c59      	adds	r1, r3, #1
 8002f9a:	4822      	ldr	r0, [pc, #136]	@ (8003024 <xTaskIncrementTick+0x238>)
 8002f9c:	4613      	mov	r3, r2
 8002f9e:	009b      	lsls	r3, r3, #2
 8002fa0:	4413      	add	r3, r2
 8002fa2:	009b      	lsls	r3, r3, #2
 8002fa4:	4403      	add	r3, r0
 8002fa6:	6019      	str	r1, [r3, #0]
                             * task.
                             * The case of equal priority tasks sharing
                             * processing time (which happens when both
                             * preemption and time slicing are on) is
                             * handled below.*/
                            if( pxTCB->uxPriority > pxCurrentTCB->uxPriority )
 8002fa8:	69bb      	ldr	r3, [r7, #24]
 8002faa:	6ada      	ldr	r2, [r3, #44]	@ 0x2c
 8002fac:	4b1e      	ldr	r3, [pc, #120]	@ (8003028 <xTaskIncrementTick+0x23c>)
 8002fae:	681b      	ldr	r3, [r3, #0]
 8002fb0:	6adb      	ldr	r3, [r3, #44]	@ 0x2c
 8002fb2:	429a      	cmp	r2, r3
 8002fb4:	f67f af59 	bls.w	8002e6a <xTaskIncrementTick+0x7e>
                            {
                                xSwitchRequired = pdTRUE;
 8002fb8:	2301      	movs	r3, #1
 8002fba:	627b      	str	r3, [r7, #36]	@ 0x24
                if( listLIST_IS_EMPTY( pxDelayedTaskList ) != pdFALSE )
 8002fbc:	e755      	b.n	8002e6a <xTaskIncrementTick+0x7e>
         * writer has not explicitly turned time slicing off. */
        #if ( ( configUSE_PREEMPTION == 1 ) && ( configUSE_TIME_SLICING == 1 ) )
        {
            #if ( configNUMBER_OF_CORES == 1 )
            {
                if( listCURRENT_LIST_LENGTH( &( pxReadyTasksLists[ pxCurrentTCB->uxPriority ] ) ) > 1U )
 8002fbe:	4b1a      	ldr	r3, [pc, #104]	@ (8003028 <xTaskIncrementTick+0x23c>)
 8002fc0:	681b      	ldr	r3, [r3, #0]
 8002fc2:	6ada      	ldr	r2, [r3, #44]	@ 0x2c
 8002fc4:	4917      	ldr	r1, [pc, #92]	@ (8003024 <xTaskIncrementTick+0x238>)
 8002fc6:	4613      	mov	r3, r2
 8002fc8:	009b      	lsls	r3, r3, #2
 8002fca:	4413      	add	r3, r2
 8002fcc:	009b      	lsls	r3, r3, #2
 8002fce:	440b      	add	r3, r1
 8002fd0:	681b      	ldr	r3, [r3, #0]
 8002fd2:	2b01      	cmp	r3, #1
 8002fd4:	d901      	bls.n	8002fda <xTaskIncrementTick+0x1ee>
                {
                    xSwitchRequired = pdTRUE;
 8002fd6:	2301      	movs	r3, #1
 8002fd8:	627b      	str	r3, [r7, #36]	@ 0x24
        #if ( configUSE_PREEMPTION == 1 )
        {
            #if ( configNUMBER_OF_CORES == 1 )
            {
                /* For single core the core ID is always 0. */
                if( xYieldPendings[ 0 ] != pdFALSE )
 8002fda:	4b14      	ldr	r3, [pc, #80]	@ (800302c <xTaskIncrementTick+0x240>)
 8002fdc:	681b      	ldr	r3, [r3, #0]
 8002fde:	2b00      	cmp	r3, #0
 8002fe0:	d007      	beq.n	8002ff2 <xTaskIncrementTick+0x206>
                {
                    xSwitchRequired = pdTRUE;
 8002fe2:	2301      	movs	r3, #1
 8002fe4:	627b      	str	r3, [r7, #36]	@ 0x24
 8002fe6:	e004      	b.n	8002ff2 <xTaskIncrementTick+0x206>
        }
        #endif /* #if ( configUSE_PREEMPTION == 1 ) */
    }
    else
    {
        ++xPendedTicks;
 8002fe8:	4b11      	ldr	r3, [pc, #68]	@ (8003030 <xTaskIncrementTick+0x244>)
 8002fea:	681b      	ldr	r3, [r3, #0]
 8002fec:	3301      	adds	r3, #1
 8002fee:	4a10      	ldr	r2, [pc, #64]	@ (8003030 <xTaskIncrementTick+0x244>)
 8002ff0:	6013      	str	r3, [r2, #0]
            vApplicationTickHook();
        }
        #endif
    }

    traceRETURN_xTaskIncrementTick( xSwitchRequired );
 8002ff2:	6a7b      	ldr	r3, [r7, #36]	@ 0x24
 8002ff4:	4619      	mov	r1, r3
 8002ff6:	20db      	movs	r0, #219	@ 0xdb
 8002ff8:	f002 fd8e 	bl	8005b18 <SEGGER_SYSVIEW_RecordEndCallU32>

    return xSwitchRequired;
 8002ffc:	6a7b      	ldr	r3, [r7, #36]	@ 0x24
}
 8002ffe:	4618      	mov	r0, r3
 8003000:	3728      	adds	r7, #40	@ 0x28
 8003002:	46bd      	mov	sp, r7
 8003004:	bd80      	pop	{r7, pc}
 8003006:	bf00      	nop
 8003008:	2000018c 	.word	0x2000018c
 800300c:	20000168 	.word	0x20000168
 8003010:	2000011c 	.word	0x2000011c
 8003014:	20000120 	.word	0x20000120
 8003018:	2000017c 	.word	0x2000017c
 800301c:	20000184 	.word	0x20000184
 8003020:	2000016c 	.word	0x2000016c
 8003024:	20000090 	.word	0x20000090
 8003028:	2000008c 	.word	0x2000008c
 800302c:	20000178 	.word	0x20000178
 8003030:	20000174 	.word	0x20000174

08003034 <vTaskSwitchContext>:
#endif /* configUSE_APPLICATION_TASK_TAG */
/*-----------------------------------------------------------*/

#if ( configNUMBER_OF_CORES == 1 )
    void vTaskSwitchContext( void )
    {
 8003034:	b580      	push	{r7, lr}
 8003036:	b086      	sub	sp, #24
 8003038:	af00      	add	r7, sp, #0
        traceENTER_vTaskSwitchContext();

        if( uxSchedulerSuspended != ( UBaseType_t ) 0U )
 800303a:	4b2e      	ldr	r3, [pc, #184]	@ (80030f4 <vTaskSwitchContext+0xc0>)
 800303c:	681b      	ldr	r3, [r3, #0]
 800303e:	2b00      	cmp	r3, #0
 8003040:	d003      	beq.n	800304a <vTaskSwitchContext+0x16>
        {
            /* The scheduler is currently suspended - do not allow a context
             * switch. */
            xYieldPendings[ 0 ] = pdTRUE;
 8003042:	4b2d      	ldr	r3, [pc, #180]	@ (80030f8 <vTaskSwitchContext+0xc4>)
 8003044:	2201      	movs	r2, #1
 8003046:	601a      	str	r2, [r3, #0]
            }
            #endif
        }

        traceRETURN_vTaskSwitchContext();
    }
 8003048:	e04f      	b.n	80030ea <vTaskSwitchContext+0xb6>
            xYieldPendings[ 0 ] = pdFALSE;
 800304a:	4b2b      	ldr	r3, [pc, #172]	@ (80030f8 <vTaskSwitchContext+0xc4>)
 800304c:	2200      	movs	r2, #0
 800304e:	601a      	str	r2, [r3, #0]
            taskSELECT_HIGHEST_PRIORITY_TASK();
 8003050:	4b2a      	ldr	r3, [pc, #168]	@ (80030fc <vTaskSwitchContext+0xc8>)
 8003052:	681b      	ldr	r3, [r3, #0]
 8003054:	60fb      	str	r3, [r7, #12]
        __asm volatile ( "clz %0, %1" : "=r" ( ucReturn ) : "r" ( ulBitmap ) : "memory" );
 8003056:	68fb      	ldr	r3, [r7, #12]
 8003058:	fab3 f383 	clz	r3, r3
 800305c:	72fb      	strb	r3, [r7, #11]
        return ucReturn;
 800305e:	7afb      	ldrb	r3, [r7, #11]
 8003060:	f1c3 031f 	rsb	r3, r3, #31
 8003064:	617b      	str	r3, [r7, #20]
 8003066:	4926      	ldr	r1, [pc, #152]	@ (8003100 <vTaskSwitchContext+0xcc>)
 8003068:	697a      	ldr	r2, [r7, #20]
 800306a:	4613      	mov	r3, r2
 800306c:	009b      	lsls	r3, r3, #2
 800306e:	4413      	add	r3, r2
 8003070:	009b      	lsls	r3, r3, #2
 8003072:	440b      	add	r3, r1
 8003074:	681b      	ldr	r3, [r3, #0]
 8003076:	2b00      	cmp	r3, #0
 8003078:	d10b      	bne.n	8003092 <vTaskSwitchContext+0x5e>
    __asm volatile
 800307a:	f04f 0350 	mov.w	r3, #80	@ 0x50
 800307e:	f383 8811 	msr	BASEPRI, r3
 8003082:	f3bf 8f6f 	isb	sy
 8003086:	f3bf 8f4f 	dsb	sy
 800308a:	607b      	str	r3, [r7, #4]
}
 800308c:	bf00      	nop
 800308e:	bf00      	nop
 8003090:	e7fd      	b.n	800308e <vTaskSwitchContext+0x5a>
 8003092:	697a      	ldr	r2, [r7, #20]
 8003094:	4613      	mov	r3, r2
 8003096:	009b      	lsls	r3, r3, #2
 8003098:	4413      	add	r3, r2
 800309a:	009b      	lsls	r3, r3, #2
 800309c:	4a18      	ldr	r2, [pc, #96]	@ (8003100 <vTaskSwitchContext+0xcc>)
 800309e:	4413      	add	r3, r2
 80030a0:	613b      	str	r3, [r7, #16]
 80030a2:	693b      	ldr	r3, [r7, #16]
 80030a4:	685b      	ldr	r3, [r3, #4]
 80030a6:	685a      	ldr	r2, [r3, #4]
 80030a8:	693b      	ldr	r3, [r7, #16]
 80030aa:	605a      	str	r2, [r3, #4]
 80030ac:	693b      	ldr	r3, [r7, #16]
 80030ae:	685a      	ldr	r2, [r3, #4]
 80030b0:	693b      	ldr	r3, [r7, #16]
 80030b2:	3308      	adds	r3, #8
 80030b4:	429a      	cmp	r2, r3
 80030b6:	d103      	bne.n	80030c0 <vTaskSwitchContext+0x8c>
 80030b8:	693b      	ldr	r3, [r7, #16]
 80030ba:	68da      	ldr	r2, [r3, #12]
 80030bc:	693b      	ldr	r3, [r7, #16]
 80030be:	605a      	str	r2, [r3, #4]
 80030c0:	693b      	ldr	r3, [r7, #16]
 80030c2:	685b      	ldr	r3, [r3, #4]
 80030c4:	68db      	ldr	r3, [r3, #12]
 80030c6:	4a0f      	ldr	r2, [pc, #60]	@ (8003104 <vTaskSwitchContext+0xd0>)
 80030c8:	6013      	str	r3, [r2, #0]
            traceTASK_SWITCHED_IN();
 80030ca:	4b0f      	ldr	r3, [pc, #60]	@ (8003108 <vTaskSwitchContext+0xd4>)
 80030cc:	681a      	ldr	r2, [r3, #0]
 80030ce:	4b0d      	ldr	r3, [pc, #52]	@ (8003104 <vTaskSwitchContext+0xd0>)
 80030d0:	681b      	ldr	r3, [r3, #0]
 80030d2:	429a      	cmp	r2, r3
 80030d4:	d102      	bne.n	80030dc <vTaskSwitchContext+0xa8>
 80030d6:	f002 fd77 	bl	8005bc8 <SEGGER_SYSVIEW_OnIdle>
 80030da:	e004      	b.n	80030e6 <vTaskSwitchContext+0xb2>
 80030dc:	4b09      	ldr	r3, [pc, #36]	@ (8003104 <vTaskSwitchContext+0xd0>)
 80030de:	681b      	ldr	r3, [r3, #0]
 80030e0:	4618      	mov	r0, r3
 80030e2:	f002 fdcf 	bl	8005c84 <SEGGER_SYSVIEW_OnTaskStartExec>
            portTASK_SWITCH_HOOK( pxCurrentTCB );
 80030e6:	4b07      	ldr	r3, [pc, #28]	@ (8003104 <vTaskSwitchContext+0xd0>)
 80030e8:	681b      	ldr	r3, [r3, #0]
    }
 80030ea:	bf00      	nop
 80030ec:	3718      	adds	r7, #24
 80030ee:	46bd      	mov	sp, r7
 80030f0:	bd80      	pop	{r7, pc}
 80030f2:	bf00      	nop
 80030f4:	2000018c 	.word	0x2000018c
 80030f8:	20000178 	.word	0x20000178
 80030fc:	2000016c 	.word	0x2000016c
 8003100:	20000090 	.word	0x20000090
 8003104:	2000008c 	.word	0x2000008c
 8003108:	20000188 	.word	0x20000188

0800310c <prvIdleTask>:
 * void prvIdleTask( void *pvParameters );
 *
 */

static portTASK_FUNCTION( prvIdleTask, pvParameters )
{
 800310c:	b580      	push	{r7, lr}
 800310e:	b082      	sub	sp, #8
 8003110:	af00      	add	r7, sp, #0
 8003112:	6078      	str	r0, [r7, #4]

    for( ; configCONTROL_INFINITE_LOOP(); )
    {
        /* See if any tasks have deleted themselves - if so then the idle task
         * is responsible for freeing the deleted task's TCB and stack. */
        prvCheckTasksWaitingTermination();
 8003114:	f000 f852 	bl	80031bc <prvCheckTasksWaitingTermination>
             * A critical region is not required here as we are just reading from
             * the list, and an occasional incorrect value will not matter.  If
             * the ready list at the idle priority contains one more task than the
             * number of idle tasks, which is equal to the configured numbers of cores
             * then a task other than the idle task is ready to execute. */
            if( listCURRENT_LIST_LENGTH( &( pxReadyTasksLists[ tskIDLE_PRIORITY ] ) ) > ( UBaseType_t ) configNUMBER_OF_CORES )
 8003118:	4b06      	ldr	r3, [pc, #24]	@ (8003134 <prvIdleTask+0x28>)
 800311a:	681b      	ldr	r3, [r3, #0]
 800311c:	2b01      	cmp	r3, #1
 800311e:	d9f9      	bls.n	8003114 <prvIdleTask+0x8>
            {
                taskYIELD();
 8003120:	4b05      	ldr	r3, [pc, #20]	@ (8003138 <prvIdleTask+0x2c>)
 8003122:	f04f 5280 	mov.w	r2, #268435456	@ 0x10000000
 8003126:	601a      	str	r2, [r3, #0]
 8003128:	f3bf 8f4f 	dsb	sy
 800312c:	f3bf 8f6f 	isb	sy
        prvCheckTasksWaitingTermination();
 8003130:	e7f0      	b.n	8003114 <prvIdleTask+0x8>
 8003132:	bf00      	nop
 8003134:	20000090 	.word	0x20000090
 8003138:	e000ed04 	.word	0xe000ed04

0800313c <prvInitialiseTaskLists>:

#endif /* portUSING_MPU_WRAPPERS */
/*-----------------------------------------------------------*/

static void prvInitialiseTaskLists( void )
{
 800313c:	b580      	push	{r7, lr}
 800313e:	b082      	sub	sp, #8
 8003140:	af00      	add	r7, sp, #0
    UBaseType_t uxPriority;

    for( uxPriority = ( UBaseType_t ) 0U; uxPriority < ( UBaseType_t ) configMAX_PRIORITIES; uxPriority++ )
 8003142:	2300      	movs	r3, #0
 8003144:	607b      	str	r3, [r7, #4]
 8003146:	e00c      	b.n	8003162 <prvInitialiseTaskLists+0x26>
    {
        vListInitialise( &( pxReadyTasksLists[ uxPriority ] ) );
 8003148:	687a      	ldr	r2, [r7, #4]
 800314a:	4613      	mov	r3, r2
 800314c:	009b      	lsls	r3, r3, #2
 800314e:	4413      	add	r3, r2
 8003150:	009b      	lsls	r3, r3, #2
 8003152:	4a12      	ldr	r2, [pc, #72]	@ (800319c <prvInitialiseTaskLists+0x60>)
 8003154:	4413      	add	r3, r2
 8003156:	4618      	mov	r0, r3
 8003158:	f7ff f8ae 	bl	80022b8 <vListInitialise>
    for( uxPriority = ( UBaseType_t ) 0U; uxPriority < ( UBaseType_t ) configMAX_PRIORITIES; uxPriority++ )
 800315c:	687b      	ldr	r3, [r7, #4]
 800315e:	3301      	adds	r3, #1
 8003160:	607b      	str	r3, [r7, #4]
 8003162:	687b      	ldr	r3, [r7, #4]
 8003164:	2b04      	cmp	r3, #4
 8003166:	d9ef      	bls.n	8003148 <prvInitialiseTaskLists+0xc>
    }

    vListInitialise( &xDelayedTaskList1 );
 8003168:	480d      	ldr	r0, [pc, #52]	@ (80031a0 <prvInitialiseTaskLists+0x64>)
 800316a:	f7ff f8a5 	bl	80022b8 <vListInitialise>
    vListInitialise( &xDelayedTaskList2 );
 800316e:	480d      	ldr	r0, [pc, #52]	@ (80031a4 <prvInitialiseTaskLists+0x68>)
 8003170:	f7ff f8a2 	bl	80022b8 <vListInitialise>
    vListInitialise( &xPendingReadyList );
 8003174:	480c      	ldr	r0, [pc, #48]	@ (80031a8 <prvInitialiseTaskLists+0x6c>)
 8003176:	f7ff f89f 	bl	80022b8 <vListInitialise>

    #if ( INCLUDE_vTaskDelete == 1 )
    {
        vListInitialise( &xTasksWaitingTermination );
 800317a:	480c      	ldr	r0, [pc, #48]	@ (80031ac <prvInitialiseTaskLists+0x70>)
 800317c:	f7ff f89c 	bl	80022b8 <vListInitialise>
    }
    #endif /* INCLUDE_vTaskDelete */

    #if ( INCLUDE_vTaskSuspend == 1 )
    {
        vListInitialise( &xSuspendedTaskList );
 8003180:	480b      	ldr	r0, [pc, #44]	@ (80031b0 <prvInitialiseTaskLists+0x74>)
 8003182:	f7ff f899 	bl	80022b8 <vListInitialise>
    }
    #endif /* INCLUDE_vTaskSuspend */

    /* Start with pxDelayedTaskList using list1 and the pxOverflowDelayedTaskList
     * using list2. */
    pxDelayedTaskList = &xDelayedTaskList1;
 8003186:	4b0b      	ldr	r3, [pc, #44]	@ (80031b4 <prvInitialiseTaskLists+0x78>)
 8003188:	4a05      	ldr	r2, [pc, #20]	@ (80031a0 <prvInitialiseTaskLists+0x64>)
 800318a:	601a      	str	r2, [r3, #0]
    pxOverflowDelayedTaskList = &xDelayedTaskList2;
 800318c:	4b0a      	ldr	r3, [pc, #40]	@ (80031b8 <prvInitialiseTaskLists+0x7c>)
 800318e:	4a05      	ldr	r2, [pc, #20]	@ (80031a4 <prvInitialiseTaskLists+0x68>)
 8003190:	601a      	str	r2, [r3, #0]
}
 8003192:	bf00      	nop
 8003194:	3708      	adds	r7, #8
 8003196:	46bd      	mov	sp, r7
 8003198:	bd80      	pop	{r7, pc}
 800319a:	bf00      	nop
 800319c:	20000090 	.word	0x20000090
 80031a0:	200000f4 	.word	0x200000f4
 80031a4:	20000108 	.word	0x20000108
 80031a8:	20000124 	.word	0x20000124
 80031ac:	20000138 	.word	0x20000138
 80031b0:	20000150 	.word	0x20000150
 80031b4:	2000011c 	.word	0x2000011c
 80031b8:	20000120 	.word	0x20000120

080031bc <prvCheckTasksWaitingTermination>:
/*-----------------------------------------------------------*/

static void prvCheckTasksWaitingTermination( void )
{
 80031bc:	b580      	push	{r7, lr}
 80031be:	b082      	sub	sp, #8
 80031c0:	af00      	add	r7, sp, #0
    {
        TCB_t * pxTCB;

        /* uxDeletedTasksWaitingCleanUp is used to prevent taskENTER_CRITICAL()
         * being called too often in the idle task. */
        while( uxDeletedTasksWaitingCleanUp > ( UBaseType_t ) 0U )
 80031c2:	e019      	b.n	80031f8 <prvCheckTasksWaitingTermination+0x3c>
        {
            #if ( configNUMBER_OF_CORES == 1 )
            {
                taskENTER_CRITICAL();
 80031c4:	f000 fcc6 	bl	8003b54 <vPortEnterCritical>
                {
                    {
                        /* MISRA Ref 11.5.3 [Void pointer assignment] */
                        /* More details at: https://github.com/FreeRTOS/FreeRTOS-Kernel/blob/main/MISRA.md#rule-115 */
                        /* coverity[misra_c_2012_rule_11_5_violation] */
                        pxTCB = listGET_OWNER_OF_HEAD_ENTRY( ( &xTasksWaitingTermination ) );
 80031c8:	4b10      	ldr	r3, [pc, #64]	@ (800320c <prvCheckTasksWaitingTermination+0x50>)
 80031ca:	68db      	ldr	r3, [r3, #12]
 80031cc:	68db      	ldr	r3, [r3, #12]
 80031ce:	607b      	str	r3, [r7, #4]
                        ( void ) uxListRemove( &( pxTCB->xStateListItem ) );
 80031d0:	687b      	ldr	r3, [r7, #4]
 80031d2:	3304      	adds	r3, #4
 80031d4:	4618      	mov	r0, r3
 80031d6:	f7ff f935 	bl	8002444 <uxListRemove>
                        --uxCurrentNumberOfTasks;
 80031da:	4b0d      	ldr	r3, [pc, #52]	@ (8003210 <prvCheckTasksWaitingTermination+0x54>)
 80031dc:	681b      	ldr	r3, [r3, #0]
 80031de:	3b01      	subs	r3, #1
 80031e0:	4a0b      	ldr	r2, [pc, #44]	@ (8003210 <prvCheckTasksWaitingTermination+0x54>)
 80031e2:	6013      	str	r3, [r2, #0]
                        --uxDeletedTasksWaitingCleanUp;
 80031e4:	4b0b      	ldr	r3, [pc, #44]	@ (8003214 <prvCheckTasksWaitingTermination+0x58>)
 80031e6:	681b      	ldr	r3, [r3, #0]
 80031e8:	3b01      	subs	r3, #1
 80031ea:	4a0a      	ldr	r2, [pc, #40]	@ (8003214 <prvCheckTasksWaitingTermination+0x58>)
 80031ec:	6013      	str	r3, [r2, #0]
                    }
                }
                taskEXIT_CRITICAL();
 80031ee:	f000 fce3 	bl	8003bb8 <vPortExitCritical>

                prvDeleteTCB( pxTCB );
 80031f2:	6878      	ldr	r0, [r7, #4]
 80031f4:	f000 f810 	bl	8003218 <prvDeleteTCB>
        while( uxDeletedTasksWaitingCleanUp > ( UBaseType_t ) 0U )
 80031f8:	4b06      	ldr	r3, [pc, #24]	@ (8003214 <prvCheckTasksWaitingTermination+0x58>)
 80031fa:	681b      	ldr	r3, [r3, #0]
 80031fc:	2b00      	cmp	r3, #0
 80031fe:	d1e1      	bne.n	80031c4 <prvCheckTasksWaitingTermination+0x8>
            }
            #endif /* #if( configNUMBER_OF_CORES == 1 ) */
        }
    }
    #endif /* INCLUDE_vTaskDelete */
}
 8003200:	bf00      	nop
 8003202:	bf00      	nop
 8003204:	3708      	adds	r7, #8
 8003206:	46bd      	mov	sp, r7
 8003208:	bd80      	pop	{r7, pc}
 800320a:	bf00      	nop
 800320c:	20000138 	.word	0x20000138
 8003210:	20000164 	.word	0x20000164
 8003214:	2000014c 	.word	0x2000014c

08003218 <prvDeleteTCB>:
/*-----------------------------------------------------------*/

#if ( INCLUDE_vTaskDelete == 1 )

    static void prvDeleteTCB( TCB_t * pxTCB )
    {
 8003218:	b580      	push	{r7, lr}
 800321a:	b082      	sub	sp, #8
 800321c:	af00      	add	r7, sp, #0
 800321e:	6078      	str	r0, [r7, #4]

        #if ( ( configSUPPORT_DYNAMIC_ALLOCATION == 1 ) && ( configSUPPORT_STATIC_ALLOCATION == 0 ) && ( portUSING_MPU_WRAPPERS == 0 ) )
        {
            /* The task can only have been allocated dynamically - free both
             * the stack and TCB. */
            vPortFreeStack( pxTCB->pxStack );
 8003220:	687b      	ldr	r3, [r7, #4]
 8003222:	6b1b      	ldr	r3, [r3, #48]	@ 0x30
 8003224:	4618      	mov	r0, r3
 8003226:	f000 fef5 	bl	8004014 <vPortFree>
            vPortFree( pxTCB );
 800322a:	6878      	ldr	r0, [r7, #4]
 800322c:	f000 fef2 	bl	8004014 <vPortFree>
                configASSERT( pxTCB->ucStaticallyAllocated == tskSTATICALLY_ALLOCATED_STACK_AND_TCB );
                mtCOVERAGE_TEST_MARKER();
            }
        }
        #endif /* configSUPPORT_DYNAMIC_ALLOCATION */
    }
 8003230:	bf00      	nop
 8003232:	3708      	adds	r7, #8
 8003234:	46bd      	mov	sp, r7
 8003236:	bd80      	pop	{r7, pc}

08003238 <prvResetNextTaskUnblockTime>:

#endif /* INCLUDE_vTaskDelete */
/*-----------------------------------------------------------*/

static void prvResetNextTaskUnblockTime( void )
{
 8003238:	b480      	push	{r7}
 800323a:	af00      	add	r7, sp, #0
    if( listLIST_IS_EMPTY( pxDelayedTaskList ) != pdFALSE )
 800323c:	4b0a      	ldr	r3, [pc, #40]	@ (8003268 <prvResetNextTaskUnblockTime+0x30>)
 800323e:	681b      	ldr	r3, [r3, #0]
 8003240:	681b      	ldr	r3, [r3, #0]
 8003242:	2b00      	cmp	r3, #0
 8003244:	d104      	bne.n	8003250 <prvResetNextTaskUnblockTime+0x18>
    {
        /* The new current delayed list is empty.  Set xNextTaskUnblockTime to
         * the maximum possible value so it is  extremely unlikely that the
         * if( xTickCount >= xNextTaskUnblockTime ) test will pass until
         * there is an item in the delayed list. */
        xNextTaskUnblockTime = portMAX_DELAY;
 8003246:	4b09      	ldr	r3, [pc, #36]	@ (800326c <prvResetNextTaskUnblockTime+0x34>)
 8003248:	f04f 32ff 	mov.w	r2, #4294967295	@ 0xffffffff
 800324c:	601a      	str	r2, [r3, #0]
         * the item at the head of the delayed list.  This is the time at
         * which the task at the head of the delayed list should be removed
         * from the Blocked state. */
        xNextTaskUnblockTime = listGET_ITEM_VALUE_OF_HEAD_ENTRY( pxDelayedTaskList );
    }
}
 800324e:	e005      	b.n	800325c <prvResetNextTaskUnblockTime+0x24>
        xNextTaskUnblockTime = listGET_ITEM_VALUE_OF_HEAD_ENTRY( pxDelayedTaskList );
 8003250:	4b05      	ldr	r3, [pc, #20]	@ (8003268 <prvResetNextTaskUnblockTime+0x30>)
 8003252:	681b      	ldr	r3, [r3, #0]
 8003254:	68db      	ldr	r3, [r3, #12]
 8003256:	681b      	ldr	r3, [r3, #0]
 8003258:	4a04      	ldr	r2, [pc, #16]	@ (800326c <prvResetNextTaskUnblockTime+0x34>)
 800325a:	6013      	str	r3, [r2, #0]
}
 800325c:	bf00      	nop
 800325e:	46bd      	mov	sp, r7
 8003260:	f85d 7b04 	ldr.w	r7, [sp], #4
 8003264:	4770      	bx	lr
 8003266:	bf00      	nop
 8003268:	2000011c 	.word	0x2000011c
 800326c:	20000184 	.word	0x20000184

08003270 <xTaskGenericNotifyWait>:
    BaseType_t xTaskGenericNotifyWait( UBaseType_t uxIndexToWaitOn,
                                       uint32_t ulBitsToClearOnEntry,
                                       uint32_t ulBitsToClearOnExit,
                                       uint32_t * pulNotificationValue,
                                       TickType_t xTicksToWait )
    {
 8003270:	b580      	push	{r7, lr}
 8003272:	b08a      	sub	sp, #40	@ 0x28
 8003274:	af02      	add	r7, sp, #8
 8003276:	60f8      	str	r0, [r7, #12]
 8003278:	60b9      	str	r1, [r7, #8]
 800327a:	607a      	str	r2, [r7, #4]
 800327c:	603b      	str	r3, [r7, #0]
        BaseType_t xReturn, xAlreadyYielded;

        traceENTER_xTaskGenericNotifyWait( uxIndexToWaitOn, ulBitsToClearOnEntry, ulBitsToClearOnExit, pulNotificationValue, xTicksToWait );
 800327e:	683b      	ldr	r3, [r7, #0]
 8003280:	6aba      	ldr	r2, [r7, #40]	@ 0x28
 8003282:	9201      	str	r2, [sp, #4]
 8003284:	9300      	str	r3, [sp, #0]
 8003286:	687b      	ldr	r3, [r7, #4]
 8003288:	68ba      	ldr	r2, [r7, #8]
 800328a:	68f9      	ldr	r1, [r7, #12]
 800328c:	f44f 7080 	mov.w	r0, #256	@ 0x100
 8003290:	f001 ff4c 	bl	800512c <SEGGER_SYSVIEW_RecordU32x5>

        configASSERT( uxIndexToWaitOn < configTASK_NOTIFICATION_ARRAY_ENTRIES );
 8003294:	68fb      	ldr	r3, [r7, #12]
 8003296:	2b00      	cmp	r3, #0
 8003298:	d00b      	beq.n	80032b2 <xTaskGenericNotifyWait+0x42>
    __asm volatile
 800329a:	f04f 0350 	mov.w	r3, #80	@ 0x50
 800329e:	f383 8811 	msr	BASEPRI, r3
 80032a2:	f3bf 8f6f 	isb	sy
 80032a6:	f3bf 8f4f 	dsb	sy
 80032aa:	617b      	str	r3, [r7, #20]
}
 80032ac:	bf00      	nop
 80032ae:	bf00      	nop
 80032b0:	e7fd      	b.n	80032ae <xTaskGenericNotifyWait+0x3e>

        taskENTER_CRITICAL();
 80032b2:	f000 fc4f 	bl	8003b54 <vPortEnterCritical>

        /* Only block if a notification is not already pending. */
        if( pxCurrentTCB->ucNotifyState[ uxIndexToWaitOn ] != taskNOTIFICATION_RECEIVED )
 80032b6:	4b3c      	ldr	r3, [pc, #240]	@ (80033a8 <xTaskGenericNotifyWait+0x138>)
 80032b8:	681a      	ldr	r2, [r3, #0]
 80032ba:	68fb      	ldr	r3, [r7, #12]
 80032bc:	4413      	add	r3, r2
 80032be:	3354      	adds	r3, #84	@ 0x54
 80032c0:	781b      	ldrb	r3, [r3, #0]
 80032c2:	b2db      	uxtb	r3, r3
 80032c4:	2b02      	cmp	r3, #2
 80032c6:	d030      	beq.n	800332a <xTaskGenericNotifyWait+0xba>
        {
            /* Clear bits in the task's notification value as bits may get
             * set  by the notifying task or interrupt.  This can be used to
             * clear the value to zero. */
            pxCurrentTCB->ulNotifiedValue[ uxIndexToWaitOn ] &= ~ulBitsToClearOnEntry;
 80032c8:	4b37      	ldr	r3, [pc, #220]	@ (80033a8 <xTaskGenericNotifyWait+0x138>)
 80032ca:	681b      	ldr	r3, [r3, #0]
 80032cc:	68fa      	ldr	r2, [r7, #12]
 80032ce:	3214      	adds	r2, #20
 80032d0:	f853 1022 	ldr.w	r1, [r3, r2, lsl #2]
 80032d4:	68ba      	ldr	r2, [r7, #8]
 80032d6:	43d2      	mvns	r2, r2
 80032d8:	4011      	ands	r1, r2
 80032da:	68fa      	ldr	r2, [r7, #12]
 80032dc:	3214      	adds	r2, #20
 80032de:	f843 1022 	str.w	r1, [r3, r2, lsl #2]

            /* Mark this task as waiting for a notification. */
            pxCurrentTCB->ucNotifyState[ uxIndexToWaitOn ] = taskWAITING_NOTIFICATION;
 80032e2:	4b31      	ldr	r3, [pc, #196]	@ (80033a8 <xTaskGenericNotifyWait+0x138>)
 80032e4:	681a      	ldr	r2, [r3, #0]
 80032e6:	68fb      	ldr	r3, [r7, #12]
 80032e8:	4413      	add	r3, r2
 80032ea:	3354      	adds	r3, #84	@ 0x54
 80032ec:	2201      	movs	r2, #1
 80032ee:	701a      	strb	r2, [r3, #0]

            if( xTicksToWait > ( TickType_t ) 0 )
 80032f0:	6abb      	ldr	r3, [r7, #40]	@ 0x28
 80032f2:	2b00      	cmp	r3, #0
 80032f4:	d016      	beq.n	8003324 <xTaskGenericNotifyWait+0xb4>
                 *    adding the task to the pendingReady list. In other words,
                 *    the task still remains on the pendingReady list.
                 * 5. Resume scheduler moves the task from pendingReady list to
                 *    the Ready list.
                 */
                vTaskSuspendAll();
 80032f6:	f7ff fc3d 	bl	8002b74 <vTaskSuspendAll>
                {
                    taskEXIT_CRITICAL();
 80032fa:	f000 fc5d 	bl	8003bb8 <vPortExitCritical>

                    prvAddCurrentTaskToDelayedList( xTicksToWait, pdTRUE );
 80032fe:	2101      	movs	r1, #1
 8003300:	6ab8      	ldr	r0, [r7, #40]	@ 0x28
 8003302:	f000 f997 	bl	8003634 <prvAddCurrentTaskToDelayedList>
                }
                xAlreadyYielded = xTaskResumeAll();
 8003306:	f7ff fc47 	bl	8002b98 <xTaskResumeAll>
 800330a:	61b8      	str	r0, [r7, #24]

                if( xAlreadyYielded == pdFALSE )
 800330c:	69bb      	ldr	r3, [r7, #24]
 800330e:	2b00      	cmp	r3, #0
 8003310:	d10d      	bne.n	800332e <xTaskGenericNotifyWait+0xbe>
                {
                    taskYIELD_WITHIN_API();
 8003312:	4b26      	ldr	r3, [pc, #152]	@ (80033ac <xTaskGenericNotifyWait+0x13c>)
 8003314:	f04f 5280 	mov.w	r2, #268435456	@ 0x10000000
 8003318:	601a      	str	r2, [r3, #0]
 800331a:	f3bf 8f4f 	dsb	sy
 800331e:	f3bf 8f6f 	isb	sy
 8003322:	e004      	b.n	800332e <xTaskGenericNotifyWait+0xbe>
                    mtCOVERAGE_TEST_MARKER();
                }
            }
            else
            {
                taskEXIT_CRITICAL();
 8003324:	f000 fc48 	bl	8003bb8 <vPortExitCritical>
 8003328:	e001      	b.n	800332e <xTaskGenericNotifyWait+0xbe>
            }
        }
        else
        {
            taskEXIT_CRITICAL();
 800332a:	f000 fc45 	bl	8003bb8 <vPortExitCritical>
        }

        taskENTER_CRITICAL();
 800332e:	f000 fc11 	bl	8003b54 <vPortEnterCritical>
        {
            traceTASK_NOTIFY_WAIT( uxIndexToWaitOn );

            if( pulNotificationValue != NULL )
 8003332:	683b      	ldr	r3, [r7, #0]
 8003334:	2b00      	cmp	r3, #0
 8003336:	d007      	beq.n	8003348 <xTaskGenericNotifyWait+0xd8>
            {
                /* Output the current notification value, which may or may not
                 * have changed. */
                *pulNotificationValue = pxCurrentTCB->ulNotifiedValue[ uxIndexToWaitOn ];
 8003338:	4b1b      	ldr	r3, [pc, #108]	@ (80033a8 <xTaskGenericNotifyWait+0x138>)
 800333a:	681b      	ldr	r3, [r3, #0]
 800333c:	68fa      	ldr	r2, [r7, #12]
 800333e:	3214      	adds	r2, #20
 8003340:	f853 2022 	ldr.w	r2, [r3, r2, lsl #2]
 8003344:	683b      	ldr	r3, [r7, #0]
 8003346:	601a      	str	r2, [r3, #0]

            /* If ucNotifyValue is set then either the task never entered the
             * blocked state (because a notification was already pending) or the
             * task unblocked because of a notification.  Otherwise the task
             * unblocked because of a timeout. */
            if( pxCurrentTCB->ucNotifyState[ uxIndexToWaitOn ] != taskNOTIFICATION_RECEIVED )
 8003348:	4b17      	ldr	r3, [pc, #92]	@ (80033a8 <xTaskGenericNotifyWait+0x138>)
 800334a:	681a      	ldr	r2, [r3, #0]
 800334c:	68fb      	ldr	r3, [r7, #12]
 800334e:	4413      	add	r3, r2
 8003350:	3354      	adds	r3, #84	@ 0x54
 8003352:	781b      	ldrb	r3, [r3, #0]
 8003354:	b2db      	uxtb	r3, r3
 8003356:	2b02      	cmp	r3, #2
 8003358:	d002      	beq.n	8003360 <xTaskGenericNotifyWait+0xf0>
            {
                /* A notification was not received. */
                xReturn = pdFALSE;
 800335a:	2300      	movs	r3, #0
 800335c:	61fb      	str	r3, [r7, #28]
 800335e:	e00e      	b.n	800337e <xTaskGenericNotifyWait+0x10e>
            }
            else
            {
                /* A notification was already pending or a notification was
                 * received while the task was waiting. */
                pxCurrentTCB->ulNotifiedValue[ uxIndexToWaitOn ] &= ~ulBitsToClearOnExit;
 8003360:	4b11      	ldr	r3, [pc, #68]	@ (80033a8 <xTaskGenericNotifyWait+0x138>)
 8003362:	681b      	ldr	r3, [r3, #0]
 8003364:	68fa      	ldr	r2, [r7, #12]
 8003366:	3214      	adds	r2, #20
 8003368:	f853 1022 	ldr.w	r1, [r3, r2, lsl #2]
 800336c:	687a      	ldr	r2, [r7, #4]
 800336e:	43d2      	mvns	r2, r2
 8003370:	4011      	ands	r1, r2
 8003372:	68fa      	ldr	r2, [r7, #12]
 8003374:	3214      	adds	r2, #20
 8003376:	f843 1022 	str.w	r1, [r3, r2, lsl #2]
                xReturn = pdTRUE;
 800337a:	2301      	movs	r3, #1
 800337c:	61fb      	str	r3, [r7, #28]
            }

            pxCurrentTCB->ucNotifyState[ uxIndexToWaitOn ] = taskNOT_WAITING_NOTIFICATION;
 800337e:	4b0a      	ldr	r3, [pc, #40]	@ (80033a8 <xTaskGenericNotifyWait+0x138>)
 8003380:	681a      	ldr	r2, [r3, #0]
 8003382:	68fb      	ldr	r3, [r7, #12]
 8003384:	4413      	add	r3, r2
 8003386:	3354      	adds	r3, #84	@ 0x54
 8003388:	2200      	movs	r2, #0
 800338a:	701a      	strb	r2, [r3, #0]
        }
        taskEXIT_CRITICAL();
 800338c:	f000 fc14 	bl	8003bb8 <vPortExitCritical>

        traceRETURN_xTaskGenericNotifyWait( xReturn );
 8003390:	69fb      	ldr	r3, [r7, #28]
 8003392:	4619      	mov	r1, r3
 8003394:	f44f 7080 	mov.w	r0, #256	@ 0x100
 8003398:	f002 fbbe 	bl	8005b18 <SEGGER_SYSVIEW_RecordEndCallU32>

        return xReturn;
 800339c:	69fb      	ldr	r3, [r7, #28]
    }
 800339e:	4618      	mov	r0, r3
 80033a0:	3720      	adds	r7, #32
 80033a2:	46bd      	mov	sp, r7
 80033a4:	bd80      	pop	{r7, pc}
 80033a6:	bf00      	nop
 80033a8:	2000008c 	.word	0x2000008c
 80033ac:	e000ed04 	.word	0xe000ed04

080033b0 <xTaskGenericNotify>:
    BaseType_t xTaskGenericNotify( TaskHandle_t xTaskToNotify,
                                   UBaseType_t uxIndexToNotify,
                                   uint32_t ulValue,
                                   eNotifyAction eAction,
                                   uint32_t * pulPreviousNotificationValue )
    {
 80033b0:	b580      	push	{r7, lr}
 80033b2:	b090      	sub	sp, #64	@ 0x40
 80033b4:	af02      	add	r7, sp, #8
 80033b6:	60f8      	str	r0, [r7, #12]
 80033b8:	60b9      	str	r1, [r7, #8]
 80033ba:	607a      	str	r2, [r7, #4]
 80033bc:	70fb      	strb	r3, [r7, #3]
        TCB_t * pxTCB;
        BaseType_t xReturn = pdPASS;
 80033be:	2301      	movs	r3, #1
 80033c0:	637b      	str	r3, [r7, #52]	@ 0x34
        uint8_t ucOriginalNotifyState;

        traceENTER_xTaskGenericNotify( xTaskToNotify, uxIndexToNotify, ulValue, eAction, pulPreviousNotificationValue );
 80033c2:	68fb      	ldr	r3, [r7, #12]
 80033c4:	4618      	mov	r0, r3
 80033c6:	f002 fd41 	bl	8005e4c <SEGGER_SYSVIEW_ShrinkId>
 80033ca:	4601      	mov	r1, r0
 80033cc:	78fb      	ldrb	r3, [r7, #3]
 80033ce:	6c3a      	ldr	r2, [r7, #64]	@ 0x40
 80033d0:	9201      	str	r2, [sp, #4]
 80033d2:	9300      	str	r3, [sp, #0]
 80033d4:	687b      	ldr	r3, [r7, #4]
 80033d6:	68ba      	ldr	r2, [r7, #8]
 80033d8:	f240 1001 	movw	r0, #257	@ 0x101
 80033dc:	f001 fea6 	bl	800512c <SEGGER_SYSVIEW_RecordU32x5>

        configASSERT( uxIndexToNotify < configTASK_NOTIFICATION_ARRAY_ENTRIES );
 80033e0:	68bb      	ldr	r3, [r7, #8]
 80033e2:	2b00      	cmp	r3, #0
 80033e4:	d00b      	beq.n	80033fe <xTaskGenericNotify+0x4e>
    __asm volatile
 80033e6:	f04f 0350 	mov.w	r3, #80	@ 0x50
 80033ea:	f383 8811 	msr	BASEPRI, r3
 80033ee:	f3bf 8f6f 	isb	sy
 80033f2:	f3bf 8f4f 	dsb	sy
 80033f6:	623b      	str	r3, [r7, #32]
}
 80033f8:	bf00      	nop
 80033fa:	bf00      	nop
 80033fc:	e7fd      	b.n	80033fa <xTaskGenericNotify+0x4a>
        configASSERT( xTaskToNotify );
 80033fe:	68fb      	ldr	r3, [r7, #12]
 8003400:	2b00      	cmp	r3, #0
 8003402:	d10b      	bne.n	800341c <xTaskGenericNotify+0x6c>
    __asm volatile
 8003404:	f04f 0350 	mov.w	r3, #80	@ 0x50
 8003408:	f383 8811 	msr	BASEPRI, r3
 800340c:	f3bf 8f6f 	isb	sy
 8003410:	f3bf 8f4f 	dsb	sy
 8003414:	61fb      	str	r3, [r7, #28]
}
 8003416:	bf00      	nop
 8003418:	bf00      	nop
 800341a:	e7fd      	b.n	8003418 <xTaskGenericNotify+0x68>
        pxTCB = xTaskToNotify;
 800341c:	68fb      	ldr	r3, [r7, #12]
 800341e:	633b      	str	r3, [r7, #48]	@ 0x30

        taskENTER_CRITICAL();
 8003420:	f000 fb98 	bl	8003b54 <vPortEnterCritical>
        {
            if( pulPreviousNotificationValue != NULL )
 8003424:	6c3b      	ldr	r3, [r7, #64]	@ 0x40
 8003426:	2b00      	cmp	r3, #0
 8003428:	d006      	beq.n	8003438 <xTaskGenericNotify+0x88>
            {
                *pulPreviousNotificationValue = pxTCB->ulNotifiedValue[ uxIndexToNotify ];
 800342a:	6b3b      	ldr	r3, [r7, #48]	@ 0x30
 800342c:	68ba      	ldr	r2, [r7, #8]
 800342e:	3214      	adds	r2, #20
 8003430:	f853 2022 	ldr.w	r2, [r3, r2, lsl #2]
 8003434:	6c3b      	ldr	r3, [r7, #64]	@ 0x40
 8003436:	601a      	str	r2, [r3, #0]
            }

            ucOriginalNotifyState = pxTCB->ucNotifyState[ uxIndexToNotify ];
 8003438:	6b3a      	ldr	r2, [r7, #48]	@ 0x30
 800343a:	68bb      	ldr	r3, [r7, #8]
 800343c:	4413      	add	r3, r2
 800343e:	3354      	adds	r3, #84	@ 0x54
 8003440:	781b      	ldrb	r3, [r3, #0]
 8003442:	f887 302f 	strb.w	r3, [r7, #47]	@ 0x2f

            pxTCB->ucNotifyState[ uxIndexToNotify ] = taskNOTIFICATION_RECEIVED;
 8003446:	6b3a      	ldr	r2, [r7, #48]	@ 0x30
 8003448:	68bb      	ldr	r3, [r7, #8]
 800344a:	4413      	add	r3, r2
 800344c:	3354      	adds	r3, #84	@ 0x54
 800344e:	2202      	movs	r2, #2
 8003450:	701a      	strb	r2, [r3, #0]

            switch( eAction )
 8003452:	78fb      	ldrb	r3, [r7, #3]
 8003454:	2b04      	cmp	r3, #4
 8003456:	d83c      	bhi.n	80034d2 <xTaskGenericNotify+0x122>
 8003458:	a201      	add	r2, pc, #4	@ (adr r2, 8003460 <xTaskGenericNotify+0xb0>)
 800345a:	f852 f023 	ldr.w	pc, [r2, r3, lsl #2]
 800345e:	bf00      	nop
 8003460:	080034f3 	.word	0x080034f3
 8003464:	08003475 	.word	0x08003475
 8003468:	08003491 	.word	0x08003491
 800346c:	080034a9 	.word	0x080034a9
 8003470:	080034b7 	.word	0x080034b7
            {
                case eSetBits:
                    pxTCB->ulNotifiedValue[ uxIndexToNotify ] |= ulValue;
 8003474:	6b3b      	ldr	r3, [r7, #48]	@ 0x30
 8003476:	68ba      	ldr	r2, [r7, #8]
 8003478:	3214      	adds	r2, #20
 800347a:	f853 2022 	ldr.w	r2, [r3, r2, lsl #2]
 800347e:	687b      	ldr	r3, [r7, #4]
 8003480:	ea42 0103 	orr.w	r1, r2, r3
 8003484:	6b3b      	ldr	r3, [r7, #48]	@ 0x30
 8003486:	68ba      	ldr	r2, [r7, #8]
 8003488:	3214      	adds	r2, #20
 800348a:	f843 1022 	str.w	r1, [r3, r2, lsl #2]
                    break;
 800348e:	e033      	b.n	80034f8 <xTaskGenericNotify+0x148>

                case eIncrement:
                    ( pxTCB->ulNotifiedValue[ uxIndexToNotify ] )++;
 8003490:	6b3b      	ldr	r3, [r7, #48]	@ 0x30
 8003492:	68ba      	ldr	r2, [r7, #8]
 8003494:	3214      	adds	r2, #20
 8003496:	f853 3022 	ldr.w	r3, [r3, r2, lsl #2]
 800349a:	1c59      	adds	r1, r3, #1
 800349c:	6b3b      	ldr	r3, [r7, #48]	@ 0x30
 800349e:	68ba      	ldr	r2, [r7, #8]
 80034a0:	3214      	adds	r2, #20
 80034a2:	f843 1022 	str.w	r1, [r3, r2, lsl #2]
                    break;
 80034a6:	e027      	b.n	80034f8 <xTaskGenericNotify+0x148>

                case eSetValueWithOverwrite:
                    pxTCB->ulNotifiedValue[ uxIndexToNotify ] = ulValue;
 80034a8:	6b3b      	ldr	r3, [r7, #48]	@ 0x30
 80034aa:	68ba      	ldr	r2, [r7, #8]
 80034ac:	3214      	adds	r2, #20
 80034ae:	6879      	ldr	r1, [r7, #4]
 80034b0:	f843 1022 	str.w	r1, [r3, r2, lsl #2]
                    break;
 80034b4:	e020      	b.n	80034f8 <xTaskGenericNotify+0x148>

                case eSetValueWithoutOverwrite:

                    if( ucOriginalNotifyState != taskNOTIFICATION_RECEIVED )
 80034b6:	f897 302f 	ldrb.w	r3, [r7, #47]	@ 0x2f
 80034ba:	2b02      	cmp	r3, #2
 80034bc:	d006      	beq.n	80034cc <xTaskGenericNotify+0x11c>
                    {
                        pxTCB->ulNotifiedValue[ uxIndexToNotify ] = ulValue;
 80034be:	6b3b      	ldr	r3, [r7, #48]	@ 0x30
 80034c0:	68ba      	ldr	r2, [r7, #8]
 80034c2:	3214      	adds	r2, #20
 80034c4:	6879      	ldr	r1, [r7, #4]
 80034c6:	f843 1022 	str.w	r1, [r3, r2, lsl #2]
                    {
                        /* The value could not be written to the task. */
                        xReturn = pdFAIL;
                    }

                    break;
 80034ca:	e015      	b.n	80034f8 <xTaskGenericNotify+0x148>
                        xReturn = pdFAIL;
 80034cc:	2300      	movs	r3, #0
 80034ce:	637b      	str	r3, [r7, #52]	@ 0x34
                    break;
 80034d0:	e012      	b.n	80034f8 <xTaskGenericNotify+0x148>
                default:

                    /* Should not get here if all enums are handled.
                     * Artificially force an assert by testing a value the
                     * compiler can't assume is const. */
                    configASSERT( xTickCount == ( TickType_t ) 0 );
 80034d2:	4b53      	ldr	r3, [pc, #332]	@ (8003620 <xTaskGenericNotify+0x270>)
 80034d4:	681b      	ldr	r3, [r3, #0]
 80034d6:	2b00      	cmp	r3, #0
 80034d8:	d00d      	beq.n	80034f6 <xTaskGenericNotify+0x146>
    __asm volatile
 80034da:	f04f 0350 	mov.w	r3, #80	@ 0x50
 80034de:	f383 8811 	msr	BASEPRI, r3
 80034e2:	f3bf 8f6f 	isb	sy
 80034e6:	f3bf 8f4f 	dsb	sy
 80034ea:	61bb      	str	r3, [r7, #24]
}
 80034ec:	bf00      	nop
 80034ee:	bf00      	nop
 80034f0:	e7fd      	b.n	80034ee <xTaskGenericNotify+0x13e>
                    break;
 80034f2:	bf00      	nop
 80034f4:	e000      	b.n	80034f8 <xTaskGenericNotify+0x148>

                    break;
 80034f6:	bf00      	nop

            traceTASK_NOTIFY( uxIndexToNotify );

            /* If the task is in the blocked state specifically to wait for a
             * notification then unblock it now. */
            if( ucOriginalNotifyState == taskWAITING_NOTIFICATION )
 80034f8:	f897 302f 	ldrb.w	r3, [r7, #47]	@ 0x2f
 80034fc:	2b01      	cmp	r3, #1
 80034fe:	f040 8081 	bne.w	8003604 <xTaskGenericNotify+0x254>
            {
                listREMOVE_ITEM( &( pxTCB->xStateListItem ) );
 8003502:	6b3b      	ldr	r3, [r7, #48]	@ 0x30
 8003504:	695b      	ldr	r3, [r3, #20]
 8003506:	62bb      	str	r3, [r7, #40]	@ 0x28
 8003508:	6b3b      	ldr	r3, [r7, #48]	@ 0x30
 800350a:	689b      	ldr	r3, [r3, #8]
 800350c:	6b3a      	ldr	r2, [r7, #48]	@ 0x30
 800350e:	68d2      	ldr	r2, [r2, #12]
 8003510:	609a      	str	r2, [r3, #8]
 8003512:	6b3b      	ldr	r3, [r7, #48]	@ 0x30
 8003514:	68db      	ldr	r3, [r3, #12]
 8003516:	6b3a      	ldr	r2, [r7, #48]	@ 0x30
 8003518:	6892      	ldr	r2, [r2, #8]
 800351a:	605a      	str	r2, [r3, #4]
 800351c:	6abb      	ldr	r3, [r7, #40]	@ 0x28
 800351e:	685a      	ldr	r2, [r3, #4]
 8003520:	6b3b      	ldr	r3, [r7, #48]	@ 0x30
 8003522:	3304      	adds	r3, #4
 8003524:	429a      	cmp	r2, r3
 8003526:	d103      	bne.n	8003530 <xTaskGenericNotify+0x180>
 8003528:	6b3b      	ldr	r3, [r7, #48]	@ 0x30
 800352a:	68da      	ldr	r2, [r3, #12]
 800352c:	6abb      	ldr	r3, [r7, #40]	@ 0x28
 800352e:	605a      	str	r2, [r3, #4]
 8003530:	6b3b      	ldr	r3, [r7, #48]	@ 0x30
 8003532:	2200      	movs	r2, #0
 8003534:	615a      	str	r2, [r3, #20]
 8003536:	6abb      	ldr	r3, [r7, #40]	@ 0x28
 8003538:	681b      	ldr	r3, [r3, #0]
 800353a:	1e5a      	subs	r2, r3, #1
 800353c:	6abb      	ldr	r3, [r7, #40]	@ 0x28
 800353e:	601a      	str	r2, [r3, #0]
                prvAddTaskToReadyList( pxTCB );
 8003540:	6b3b      	ldr	r3, [r7, #48]	@ 0x30
 8003542:	4618      	mov	r0, r3
 8003544:	f002 fbe0 	bl	8005d08 <SEGGER_SYSVIEW_OnTaskStartReady>
 8003548:	6b3b      	ldr	r3, [r7, #48]	@ 0x30
 800354a:	6adb      	ldr	r3, [r3, #44]	@ 0x2c
 800354c:	2201      	movs	r2, #1
 800354e:	409a      	lsls	r2, r3
 8003550:	4b34      	ldr	r3, [pc, #208]	@ (8003624 <xTaskGenericNotify+0x274>)
 8003552:	681b      	ldr	r3, [r3, #0]
 8003554:	4313      	orrs	r3, r2
 8003556:	4a33      	ldr	r2, [pc, #204]	@ (8003624 <xTaskGenericNotify+0x274>)
 8003558:	6013      	str	r3, [r2, #0]
 800355a:	6b3b      	ldr	r3, [r7, #48]	@ 0x30
 800355c:	6ada      	ldr	r2, [r3, #44]	@ 0x2c
 800355e:	4932      	ldr	r1, [pc, #200]	@ (8003628 <xTaskGenericNotify+0x278>)
 8003560:	4613      	mov	r3, r2
 8003562:	009b      	lsls	r3, r3, #2
 8003564:	4413      	add	r3, r2
 8003566:	009b      	lsls	r3, r3, #2
 8003568:	440b      	add	r3, r1
 800356a:	3304      	adds	r3, #4
 800356c:	681b      	ldr	r3, [r3, #0]
 800356e:	627b      	str	r3, [r7, #36]	@ 0x24
 8003570:	6b3b      	ldr	r3, [r7, #48]	@ 0x30
 8003572:	6a7a      	ldr	r2, [r7, #36]	@ 0x24
 8003574:	609a      	str	r2, [r3, #8]
 8003576:	6a7b      	ldr	r3, [r7, #36]	@ 0x24
 8003578:	689a      	ldr	r2, [r3, #8]
 800357a:	6b3b      	ldr	r3, [r7, #48]	@ 0x30
 800357c:	60da      	str	r2, [r3, #12]
 800357e:	6a7b      	ldr	r3, [r7, #36]	@ 0x24
 8003580:	689b      	ldr	r3, [r3, #8]
 8003582:	6b3a      	ldr	r2, [r7, #48]	@ 0x30
 8003584:	3204      	adds	r2, #4
 8003586:	605a      	str	r2, [r3, #4]
 8003588:	6b3b      	ldr	r3, [r7, #48]	@ 0x30
 800358a:	1d1a      	adds	r2, r3, #4
 800358c:	6a7b      	ldr	r3, [r7, #36]	@ 0x24
 800358e:	609a      	str	r2, [r3, #8]
 8003590:	6b3b      	ldr	r3, [r7, #48]	@ 0x30
 8003592:	6ada      	ldr	r2, [r3, #44]	@ 0x2c
 8003594:	4613      	mov	r3, r2
 8003596:	009b      	lsls	r3, r3, #2
 8003598:	4413      	add	r3, r2
 800359a:	009b      	lsls	r3, r3, #2
 800359c:	4a22      	ldr	r2, [pc, #136]	@ (8003628 <xTaskGenericNotify+0x278>)
 800359e:	441a      	add	r2, r3
 80035a0:	6b3b      	ldr	r3, [r7, #48]	@ 0x30
 80035a2:	615a      	str	r2, [r3, #20]
 80035a4:	6b3b      	ldr	r3, [r7, #48]	@ 0x30
 80035a6:	6ada      	ldr	r2, [r3, #44]	@ 0x2c
 80035a8:	491f      	ldr	r1, [pc, #124]	@ (8003628 <xTaskGenericNotify+0x278>)
 80035aa:	4613      	mov	r3, r2
 80035ac:	009b      	lsls	r3, r3, #2
 80035ae:	4413      	add	r3, r2
 80035b0:	009b      	lsls	r3, r3, #2
 80035b2:	440b      	add	r3, r1
 80035b4:	681b      	ldr	r3, [r3, #0]
 80035b6:	1c59      	adds	r1, r3, #1
 80035b8:	481b      	ldr	r0, [pc, #108]	@ (8003628 <xTaskGenericNotify+0x278>)
 80035ba:	4613      	mov	r3, r2
 80035bc:	009b      	lsls	r3, r3, #2
 80035be:	4413      	add	r3, r2
 80035c0:	009b      	lsls	r3, r3, #2
 80035c2:	4403      	add	r3, r0
 80035c4:	6019      	str	r1, [r3, #0]

                /* The task should not have been on an event list. */
                configASSERT( listLIST_ITEM_CONTAINER( &( pxTCB->xEventListItem ) ) == NULL );
 80035c6:	6b3b      	ldr	r3, [r7, #48]	@ 0x30
 80035c8:	6a9b      	ldr	r3, [r3, #40]	@ 0x28
 80035ca:	2b00      	cmp	r3, #0
 80035cc:	d00b      	beq.n	80035e6 <xTaskGenericNotify+0x236>
    __asm volatile
 80035ce:	f04f 0350 	mov.w	r3, #80	@ 0x50
 80035d2:	f383 8811 	msr	BASEPRI, r3
 80035d6:	f3bf 8f6f 	isb	sy
 80035da:	f3bf 8f4f 	dsb	sy
 80035de:	617b      	str	r3, [r7, #20]
}
 80035e0:	bf00      	nop
 80035e2:	bf00      	nop
 80035e4:	e7fd      	b.n	80035e2 <xTaskGenericNotify+0x232>
                }
                #endif

                /* Check if the notified task has a priority above the currently
                 * executing task. */
                taskYIELD_ANY_CORE_IF_USING_PREEMPTION( pxTCB );
 80035e6:	4b11      	ldr	r3, [pc, #68]	@ (800362c <xTaskGenericNotify+0x27c>)
 80035e8:	681b      	ldr	r3, [r3, #0]
 80035ea:	6ada      	ldr	r2, [r3, #44]	@ 0x2c
 80035ec:	6b3b      	ldr	r3, [r7, #48]	@ 0x30
 80035ee:	6adb      	ldr	r3, [r3, #44]	@ 0x2c
 80035f0:	429a      	cmp	r2, r3
 80035f2:	d207      	bcs.n	8003604 <xTaskGenericNotify+0x254>
 80035f4:	4b0e      	ldr	r3, [pc, #56]	@ (8003630 <xTaskGenericNotify+0x280>)
 80035f6:	f04f 5280 	mov.w	r2, #268435456	@ 0x10000000
 80035fa:	601a      	str	r2, [r3, #0]
 80035fc:	f3bf 8f4f 	dsb	sy
 8003600:	f3bf 8f6f 	isb	sy
            else
            {
                mtCOVERAGE_TEST_MARKER();
            }
        }
        taskEXIT_CRITICAL();
 8003604:	f000 fad8 	bl	8003bb8 <vPortExitCritical>

        traceRETURN_xTaskGenericNotify( xReturn );
 8003608:	6b7b      	ldr	r3, [r7, #52]	@ 0x34
 800360a:	4619      	mov	r1, r3
 800360c:	f240 1001 	movw	r0, #257	@ 0x101
 8003610:	f002 fa82 	bl	8005b18 <SEGGER_SYSVIEW_RecordEndCallU32>

        return xReturn;
 8003614:	6b7b      	ldr	r3, [r7, #52]	@ 0x34
    }
 8003616:	4618      	mov	r0, r3
 8003618:	3738      	adds	r7, #56	@ 0x38
 800361a:	46bd      	mov	sp, r7
 800361c:	bd80      	pop	{r7, pc}
 800361e:	bf00      	nop
 8003620:	20000168 	.word	0x20000168
 8003624:	2000016c 	.word	0x2000016c
 8003628:	20000090 	.word	0x20000090
 800362c:	2000008c 	.word	0x2000008c
 8003630:	e000ed04 	.word	0xe000ed04

08003634 <prvAddCurrentTaskToDelayedList>:
#endif /* if ( ( configGENERATE_RUN_TIME_STATS == 1 ) && ( INCLUDE_xTaskGetIdleTaskHandle == 1 ) ) */
/*-----------------------------------------------------------*/

static void prvAddCurrentTaskToDelayedList( TickType_t xTicksToWait,
                                            const BaseType_t xCanBlockIndefinitely )
{
 8003634:	b580      	push	{r7, lr}
 8003636:	b088      	sub	sp, #32
 8003638:	af00      	add	r7, sp, #0
 800363a:	6078      	str	r0, [r7, #4]
 800363c:	6039      	str	r1, [r7, #0]
    TickType_t xTimeToWake;
    const TickType_t xConstTickCount = xTickCount;
 800363e:	4b3d      	ldr	r3, [pc, #244]	@ (8003734 <prvAddCurrentTaskToDelayedList+0x100>)
 8003640:	681b      	ldr	r3, [r3, #0]
 8003642:	61fb      	str	r3, [r7, #28]
    List_t * const pxDelayedList = pxDelayedTaskList;
 8003644:	4b3c      	ldr	r3, [pc, #240]	@ (8003738 <prvAddCurrentTaskToDelayedList+0x104>)
 8003646:	681b      	ldr	r3, [r3, #0]
 8003648:	61bb      	str	r3, [r7, #24]
    List_t * const pxOverflowDelayedList = pxOverflowDelayedTaskList;
 800364a:	4b3c      	ldr	r3, [pc, #240]	@ (800373c <prvAddCurrentTaskToDelayedList+0x108>)
 800364c:	681b      	ldr	r3, [r3, #0]
 800364e:	617b      	str	r3, [r7, #20]
    }
    #endif

    /* Remove the task from the ready list before adding it to the blocked list
     * as the same list item is used for both lists. */
    if( uxListRemove( &( pxCurrentTCB->xStateListItem ) ) == ( UBaseType_t ) 0 )
 8003650:	4b3b      	ldr	r3, [pc, #236]	@ (8003740 <prvAddCurrentTaskToDelayedList+0x10c>)
 8003652:	681b      	ldr	r3, [r3, #0]
 8003654:	3304      	adds	r3, #4
 8003656:	4618      	mov	r0, r3
 8003658:	f7fe fef4 	bl	8002444 <uxListRemove>
 800365c:	4603      	mov	r3, r0
 800365e:	2b00      	cmp	r3, #0
 8003660:	d10b      	bne.n	800367a <prvAddCurrentTaskToDelayedList+0x46>
    {
        /* The current task must be in a ready list, so there is no need to
         * check, and the port reset macro can be called directly. */
        portRESET_READY_PRIORITY( pxCurrentTCB->uxPriority, uxTopReadyPriority );
 8003662:	4b37      	ldr	r3, [pc, #220]	@ (8003740 <prvAddCurrentTaskToDelayedList+0x10c>)
 8003664:	681b      	ldr	r3, [r3, #0]
 8003666:	6adb      	ldr	r3, [r3, #44]	@ 0x2c
 8003668:	2201      	movs	r2, #1
 800366a:	fa02 f303 	lsl.w	r3, r2, r3
 800366e:	43da      	mvns	r2, r3
 8003670:	4b34      	ldr	r3, [pc, #208]	@ (8003744 <prvAddCurrentTaskToDelayedList+0x110>)
 8003672:	681b      	ldr	r3, [r3, #0]
 8003674:	4013      	ands	r3, r2
 8003676:	4a33      	ldr	r2, [pc, #204]	@ (8003744 <prvAddCurrentTaskToDelayedList+0x110>)
 8003678:	6013      	str	r3, [r2, #0]
        mtCOVERAGE_TEST_MARKER();
    }

    #if ( INCLUDE_vTaskSuspend == 1 )
    {
        if( ( xTicksToWait == portMAX_DELAY ) && ( xCanBlockIndefinitely != pdFALSE ) )
 800367a:	687b      	ldr	r3, [r7, #4]
 800367c:	f1b3 3fff 	cmp.w	r3, #4294967295	@ 0xffffffff
 8003680:	d124      	bne.n	80036cc <prvAddCurrentTaskToDelayedList+0x98>
 8003682:	683b      	ldr	r3, [r7, #0]
 8003684:	2b00      	cmp	r3, #0
 8003686:	d021      	beq.n	80036cc <prvAddCurrentTaskToDelayedList+0x98>
        {
            /* Add the task to the suspended task list instead of a delayed task
             * list to ensure it is not woken by a timing event.  It will block
             * indefinitely. */
            listINSERT_END( &xSuspendedTaskList, &( pxCurrentTCB->xStateListItem ) );
 8003688:	4b2f      	ldr	r3, [pc, #188]	@ (8003748 <prvAddCurrentTaskToDelayedList+0x114>)
 800368a:	685b      	ldr	r3, [r3, #4]
 800368c:	613b      	str	r3, [r7, #16]
 800368e:	4b2c      	ldr	r3, [pc, #176]	@ (8003740 <prvAddCurrentTaskToDelayedList+0x10c>)
 8003690:	681b      	ldr	r3, [r3, #0]
 8003692:	693a      	ldr	r2, [r7, #16]
 8003694:	609a      	str	r2, [r3, #8]
 8003696:	4b2a      	ldr	r3, [pc, #168]	@ (8003740 <prvAddCurrentTaskToDelayedList+0x10c>)
 8003698:	681b      	ldr	r3, [r3, #0]
 800369a:	693a      	ldr	r2, [r7, #16]
 800369c:	6892      	ldr	r2, [r2, #8]
 800369e:	60da      	str	r2, [r3, #12]
 80036a0:	4b27      	ldr	r3, [pc, #156]	@ (8003740 <prvAddCurrentTaskToDelayedList+0x10c>)
 80036a2:	681a      	ldr	r2, [r3, #0]
 80036a4:	693b      	ldr	r3, [r7, #16]
 80036a6:	689b      	ldr	r3, [r3, #8]
 80036a8:	3204      	adds	r2, #4
 80036aa:	605a      	str	r2, [r3, #4]
 80036ac:	4b24      	ldr	r3, [pc, #144]	@ (8003740 <prvAddCurrentTaskToDelayedList+0x10c>)
 80036ae:	681b      	ldr	r3, [r3, #0]
 80036b0:	1d1a      	adds	r2, r3, #4
 80036b2:	693b      	ldr	r3, [r7, #16]
 80036b4:	609a      	str	r2, [r3, #8]
 80036b6:	4b22      	ldr	r3, [pc, #136]	@ (8003740 <prvAddCurrentTaskToDelayedList+0x10c>)
 80036b8:	681b      	ldr	r3, [r3, #0]
 80036ba:	4a23      	ldr	r2, [pc, #140]	@ (8003748 <prvAddCurrentTaskToDelayedList+0x114>)
 80036bc:	615a      	str	r2, [r3, #20]
 80036be:	4b22      	ldr	r3, [pc, #136]	@ (8003748 <prvAddCurrentTaskToDelayedList+0x114>)
 80036c0:	681b      	ldr	r3, [r3, #0]
 80036c2:	3301      	adds	r3, #1
 80036c4:	4a20      	ldr	r2, [pc, #128]	@ (8003748 <prvAddCurrentTaskToDelayedList+0x114>)
 80036c6:	6013      	str	r3, [r2, #0]
 80036c8:	bf00      	nop

        /* Avoid compiler warning when INCLUDE_vTaskSuspend is not 1. */
        ( void ) xCanBlockIndefinitely;
    }
    #endif /* INCLUDE_vTaskSuspend */
}
 80036ca:	e02e      	b.n	800372a <prvAddCurrentTaskToDelayedList+0xf6>
            xTimeToWake = xConstTickCount + xTicksToWait;
 80036cc:	69fa      	ldr	r2, [r7, #28]
 80036ce:	687b      	ldr	r3, [r7, #4]
 80036d0:	4413      	add	r3, r2
 80036d2:	60fb      	str	r3, [r7, #12]
            listSET_LIST_ITEM_VALUE( &( pxCurrentTCB->xStateListItem ), xTimeToWake );
 80036d4:	4b1a      	ldr	r3, [pc, #104]	@ (8003740 <prvAddCurrentTaskToDelayedList+0x10c>)
 80036d6:	681b      	ldr	r3, [r3, #0]
 80036d8:	68fa      	ldr	r2, [r7, #12]
 80036da:	605a      	str	r2, [r3, #4]
            if( xTimeToWake < xConstTickCount )
 80036dc:	68fa      	ldr	r2, [r7, #12]
 80036de:	69fb      	ldr	r3, [r7, #28]
 80036e0:	429a      	cmp	r2, r3
 80036e2:	d20d      	bcs.n	8003700 <prvAddCurrentTaskToDelayedList+0xcc>
                traceMOVED_TASK_TO_OVERFLOW_DELAYED_LIST();
 80036e4:	4b16      	ldr	r3, [pc, #88]	@ (8003740 <prvAddCurrentTaskToDelayedList+0x10c>)
 80036e6:	681b      	ldr	r3, [r3, #0]
 80036e8:	2104      	movs	r1, #4
 80036ea:	4618      	mov	r0, r3
 80036ec:	f002 fb4e 	bl	8005d8c <SEGGER_SYSVIEW_OnTaskStopReady>
                vListInsert( pxOverflowDelayedList, &( pxCurrentTCB->xStateListItem ) );
 80036f0:	4b13      	ldr	r3, [pc, #76]	@ (8003740 <prvAddCurrentTaskToDelayedList+0x10c>)
 80036f2:	681b      	ldr	r3, [r3, #0]
 80036f4:	3304      	adds	r3, #4
 80036f6:	4619      	mov	r1, r3
 80036f8:	6978      	ldr	r0, [r7, #20]
 80036fa:	f7fe fe58 	bl	80023ae <vListInsert>
}
 80036fe:	e014      	b.n	800372a <prvAddCurrentTaskToDelayedList+0xf6>
                traceMOVED_TASK_TO_DELAYED_LIST();
 8003700:	4b0f      	ldr	r3, [pc, #60]	@ (8003740 <prvAddCurrentTaskToDelayedList+0x10c>)
 8003702:	681b      	ldr	r3, [r3, #0]
 8003704:	2104      	movs	r1, #4
 8003706:	4618      	mov	r0, r3
 8003708:	f002 fb40 	bl	8005d8c <SEGGER_SYSVIEW_OnTaskStopReady>
                vListInsert( pxDelayedList, &( pxCurrentTCB->xStateListItem ) );
 800370c:	4b0c      	ldr	r3, [pc, #48]	@ (8003740 <prvAddCurrentTaskToDelayedList+0x10c>)
 800370e:	681b      	ldr	r3, [r3, #0]
 8003710:	3304      	adds	r3, #4
 8003712:	4619      	mov	r1, r3
 8003714:	69b8      	ldr	r0, [r7, #24]
 8003716:	f7fe fe4a 	bl	80023ae <vListInsert>
                if( xTimeToWake < xNextTaskUnblockTime )
 800371a:	4b0c      	ldr	r3, [pc, #48]	@ (800374c <prvAddCurrentTaskToDelayedList+0x118>)
 800371c:	681b      	ldr	r3, [r3, #0]
 800371e:	68fa      	ldr	r2, [r7, #12]
 8003720:	429a      	cmp	r2, r3
 8003722:	d202      	bcs.n	800372a <prvAddCurrentTaskToDelayedList+0xf6>
                    xNextTaskUnblockTime = xTimeToWake;
 8003724:	4a09      	ldr	r2, [pc, #36]	@ (800374c <prvAddCurrentTaskToDelayedList+0x118>)
 8003726:	68fb      	ldr	r3, [r7, #12]
 8003728:	6013      	str	r3, [r2, #0]
}
 800372a:	bf00      	nop
 800372c:	3720      	adds	r7, #32
 800372e:	46bd      	mov	sp, r7
 8003730:	bd80      	pop	{r7, pc}
 8003732:	bf00      	nop
 8003734:	20000168 	.word	0x20000168
 8003738:	2000011c 	.word	0x2000011c
 800373c:	20000120 	.word	0x20000120
 8003740:	2000008c 	.word	0x2000008c
 8003744:	2000016c 	.word	0x2000016c
 8003748:	20000150 	.word	0x20000150
 800374c:	20000184 	.word	0x20000184

08003750 <pxPortInitialiseStack>:
 * See header file for description.
 */
StackType_t * pxPortInitialiseStack( StackType_t * pxTopOfStack,
                                     TaskFunction_t pxCode,
                                     void * pvParameters )
{
 8003750:	b480      	push	{r7}
 8003752:	b085      	sub	sp, #20
 8003754:	af00      	add	r7, sp, #0
 8003756:	60f8      	str	r0, [r7, #12]
 8003758:	60b9      	str	r1, [r7, #8]
 800375a:	607a      	str	r2, [r7, #4]
    /* Simulate the stack frame as it would be created by a context switch
     * interrupt. */

    /* Offset added to account for the way the MCU uses the stack on entry/exit
     * of interrupts, and to ensure alignment. */
    pxTopOfStack--;
 800375c:	68fb      	ldr	r3, [r7, #12]
 800375e:	3b04      	subs	r3, #4
 8003760:	60fb      	str	r3, [r7, #12]

    *pxTopOfStack = portINITIAL_XPSR;                                    /* xPSR */
 8003762:	68fb      	ldr	r3, [r7, #12]
 8003764:	f04f 7280 	mov.w	r2, #16777216	@ 0x1000000
 8003768:	601a      	str	r2, [r3, #0]
    pxTopOfStack--;
 800376a:	68fb      	ldr	r3, [r7, #12]
 800376c:	3b04      	subs	r3, #4
 800376e:	60fb      	str	r3, [r7, #12]
    *pxTopOfStack = ( ( StackType_t ) pxCode ) & portSTART_ADDRESS_MASK; /* PC */
 8003770:	68bb      	ldr	r3, [r7, #8]
 8003772:	f023 0201 	bic.w	r2, r3, #1
 8003776:	68fb      	ldr	r3, [r7, #12]
 8003778:	601a      	str	r2, [r3, #0]
    pxTopOfStack--;
 800377a:	68fb      	ldr	r3, [r7, #12]
 800377c:	3b04      	subs	r3, #4
 800377e:	60fb      	str	r3, [r7, #12]
    *pxTopOfStack = ( StackType_t ) portTASK_RETURN_ADDRESS;             /* LR */
 8003780:	4a0c      	ldr	r2, [pc, #48]	@ (80037b4 <pxPortInitialiseStack+0x64>)
 8003782:	68fb      	ldr	r3, [r7, #12]
 8003784:	601a      	str	r2, [r3, #0]

    /* Save code space by skipping register initialisation. */
    pxTopOfStack -= 5;                            /* R12, R3, R2 and R1. */
 8003786:	68fb      	ldr	r3, [r7, #12]
 8003788:	3b14      	subs	r3, #20
 800378a:	60fb      	str	r3, [r7, #12]
    *pxTopOfStack = ( StackType_t ) pvParameters; /* R0 */
 800378c:	687a      	ldr	r2, [r7, #4]
 800378e:	68fb      	ldr	r3, [r7, #12]
 8003790:	601a      	str	r2, [r3, #0]

    /* A save method is being used that requires each task to maintain its
     * own exec return value. */
    pxTopOfStack--;
 8003792:	68fb      	ldr	r3, [r7, #12]
 8003794:	3b04      	subs	r3, #4
 8003796:	60fb      	str	r3, [r7, #12]
    *pxTopOfStack = portINITIAL_EXC_RETURN;
 8003798:	68fb      	ldr	r3, [r7, #12]
 800379a:	f06f 0202 	mvn.w	r2, #2
 800379e:	601a      	str	r2, [r3, #0]

    pxTopOfStack -= 8; /* R11, R10, R9, R8, R7, R6, R5 and R4. */
 80037a0:	68fb      	ldr	r3, [r7, #12]
 80037a2:	3b20      	subs	r3, #32
 80037a4:	60fb      	str	r3, [r7, #12]

    return pxTopOfStack;
 80037a6:	68fb      	ldr	r3, [r7, #12]
}
 80037a8:	4618      	mov	r0, r3
 80037aa:	3714      	adds	r7, #20
 80037ac:	46bd      	mov	sp, r7
 80037ae:	f85d 7b04 	ldr.w	r7, [sp], #4
 80037b2:	4770      	bx	lr
 80037b4:	080037b9 	.word	0x080037b9

080037b8 <prvTaskExitError>:
/*-----------------------------------------------------------*/

static void prvTaskExitError( void )
{
 80037b8:	b480      	push	{r7}
 80037ba:	b085      	sub	sp, #20
 80037bc:	af00      	add	r7, sp, #0
    volatile uint32_t ulDummy = 0;
 80037be:	2300      	movs	r3, #0
 80037c0:	607b      	str	r3, [r7, #4]
     * its caller as there is nothing to return to.  If a task wants to exit it
     * should instead call vTaskDelete( NULL ).
     *
     * Artificially force an assert() to be triggered if configASSERT() is
     * defined, then stop here so application writers can catch the error. */
    configASSERT( uxCriticalNesting == ~0UL );
 80037c2:	4b13      	ldr	r3, [pc, #76]	@ (8003810 <prvTaskExitError+0x58>)
 80037c4:	681b      	ldr	r3, [r3, #0]
 80037c6:	f1b3 3fff 	cmp.w	r3, #4294967295	@ 0xffffffff
 80037ca:	d00b      	beq.n	80037e4 <prvTaskExitError+0x2c>
    __asm volatile
 80037cc:	f04f 0350 	mov.w	r3, #80	@ 0x50
 80037d0:	f383 8811 	msr	BASEPRI, r3
 80037d4:	f3bf 8f6f 	isb	sy
 80037d8:	f3bf 8f4f 	dsb	sy
 80037dc:	60fb      	str	r3, [r7, #12]
}
 80037de:	bf00      	nop
 80037e0:	bf00      	nop
 80037e2:	e7fd      	b.n	80037e0 <prvTaskExitError+0x28>
    __asm volatile
 80037e4:	f04f 0350 	mov.w	r3, #80	@ 0x50
 80037e8:	f383 8811 	msr	BASEPRI, r3
 80037ec:	f3bf 8f6f 	isb	sy
 80037f0:	f3bf 8f4f 	dsb	sy
 80037f4:	60bb      	str	r3, [r7, #8]
}
 80037f6:	bf00      	nop
    portDISABLE_INTERRUPTS();

    while( ulDummy == 0 )
 80037f8:	bf00      	nop
 80037fa:	687b      	ldr	r3, [r7, #4]
 80037fc:	2b00      	cmp	r3, #0
 80037fe:	d0fc      	beq.n	80037fa <prvTaskExitError+0x42>
         * about code appearing after this function is called - making ulDummy
         * volatile makes the compiler think the function could return and
         * therefore not output an 'unreachable code' warning for code that appears
         * after it. */
    }
}
 8003800:	bf00      	nop
 8003802:	bf00      	nop
 8003804:	3714      	adds	r7, #20
 8003806:	46bd      	mov	sp, r7
 8003808:	f85d 7b04 	ldr.w	r7, [sp], #4
 800380c:	4770      	bx	lr
 800380e:	bf00      	nop
 8003810:	2000000c 	.word	0x2000000c
	...

08003820 <SVC_Handler>:
/*-----------------------------------------------------------*/

void vPortSVCHandler( void )
{
    __asm volatile (
 8003820:	4b07      	ldr	r3, [pc, #28]	@ (8003840 <pxCurrentTCBConst2>)
 8003822:	6819      	ldr	r1, [r3, #0]
 8003824:	6808      	ldr	r0, [r1, #0]
 8003826:	e8b0 4ff0 	ldmia.w	r0!, {r4, r5, r6, r7, r8, r9, sl, fp, lr}
 800382a:	f380 8809 	msr	PSP, r0
 800382e:	f3bf 8f6f 	isb	sy
 8003832:	f04f 0000 	mov.w	r0, #0
 8003836:	f380 8811 	msr	BASEPRI, r0
 800383a:	4770      	bx	lr
 800383c:	f3af 8000 	nop.w

08003840 <pxCurrentTCBConst2>:
 8003840:	2000008c 	.word	0x2000008c
        "   bx r14                          \n"
        "                                   \n"
        "   .align 4                        \n"
        "pxCurrentTCBConst2: .word pxCurrentTCB             \n"
        );
}
 8003844:	bf00      	nop
 8003846:	bf00      	nop

08003848 <prvPortStartFirstTask>:
{
    /* Start the first task.  This also clears the bit that indicates the FPU is
     * in use in case the FPU was used before the scheduler was started - which
     * would otherwise result in the unnecessary leaving of space in the SVC stack
     * for lazy saving of FPU registers. */
    __asm volatile (
 8003848:	4808      	ldr	r0, [pc, #32]	@ (800386c <prvPortStartFirstTask+0x24>)
 800384a:	6800      	ldr	r0, [r0, #0]
 800384c:	6800      	ldr	r0, [r0, #0]
 800384e:	f380 8808 	msr	MSP, r0
 8003852:	f04f 0000 	mov.w	r0, #0
 8003856:	f380 8814 	msr	CONTROL, r0
 800385a:	b662      	cpsie	i
 800385c:	b661      	cpsie	f
 800385e:	f3bf 8f4f 	dsb	sy
 8003862:	f3bf 8f6f 	isb	sy
 8003866:	df00      	svc	0
 8003868:	bf00      	nop
 800386a:	0000      	.short	0x0000
 800386c:	e000ed08 	.word	0xe000ed08
        " isb                   \n"
        " svc 0                 \n" /* System call to start first task. */
        " nop                   \n"
        " .ltorg                \n"
        );
}
 8003870:	bf00      	nop
 8003872:	bf00      	nop

08003874 <xPortStartScheduler>:

/*
 * See header file for description.
 */
BaseType_t xPortStartScheduler( void )
{
 8003874:	b580      	push	{r7, lr}
 8003876:	b08c      	sub	sp, #48	@ 0x30
 8003878:	af00      	add	r7, sp, #0
    /* This port can be used on all revisions of the Cortex-M7 core other than
     * the r0p1 parts.  r0p1 parts should use the port from the
     * /source/portable/GCC/ARM_CM7/r0p1 directory. */
    configASSERT( portCPUID != portCORTEX_M7_r0p1_ID );
 800387a:	4b69      	ldr	r3, [pc, #420]	@ (8003a20 <xPortStartScheduler+0x1ac>)
 800387c:	681b      	ldr	r3, [r3, #0]
 800387e:	4a69      	ldr	r2, [pc, #420]	@ (8003a24 <xPortStartScheduler+0x1b0>)
 8003880:	4293      	cmp	r3, r2
 8003882:	d10b      	bne.n	800389c <xPortStartScheduler+0x28>
    __asm volatile
 8003884:	f04f 0350 	mov.w	r3, #80	@ 0x50
 8003888:	f383 8811 	msr	BASEPRI, r3
 800388c:	f3bf 8f6f 	isb	sy
 8003890:	f3bf 8f4f 	dsb	sy
 8003894:	623b      	str	r3, [r7, #32]
}
 8003896:	bf00      	nop
 8003898:	bf00      	nop
 800389a:	e7fd      	b.n	8003898 <xPortStartScheduler+0x24>
    configASSERT( portCPUID != portCORTEX_M7_r0p0_ID );
 800389c:	4b60      	ldr	r3, [pc, #384]	@ (8003a20 <xPortStartScheduler+0x1ac>)
 800389e:	681b      	ldr	r3, [r3, #0]
 80038a0:	4a61      	ldr	r2, [pc, #388]	@ (8003a28 <xPortStartScheduler+0x1b4>)
 80038a2:	4293      	cmp	r3, r2
 80038a4:	d10b      	bne.n	80038be <xPortStartScheduler+0x4a>
    __asm volatile
 80038a6:	f04f 0350 	mov.w	r3, #80	@ 0x50
 80038aa:	f383 8811 	msr	BASEPRI, r3
 80038ae:	f3bf 8f6f 	isb	sy
 80038b2:	f3bf 8f4f 	dsb	sy
 80038b6:	627b      	str	r3, [r7, #36]	@ 0x24
}
 80038b8:	bf00      	nop
 80038ba:	bf00      	nop
 80038bc:	e7fd      	b.n	80038ba <xPortStartScheduler+0x46>
     * configCHECK_HANDLER_INSTALLATION to 0 in their FreeRTOSConfig.h. Direct
     * routing, which is validated here when configCHECK_HANDLER_INSTALLATION
     * is 1, should be preferred when possible. */
    #if ( configCHECK_HANDLER_INSTALLATION == 1 )
    {
        const portISR_t * const pxVectorTable = portSCB_VTOR_REG;
 80038be:	4b5b      	ldr	r3, [pc, #364]	@ (8003a2c <xPortStartScheduler+0x1b8>)
 80038c0:	681b      	ldr	r3, [r3, #0]
 80038c2:	62fb      	str	r3, [r7, #44]	@ 0x2c
         * https://www.FreeRTOS.org/FAQHelp.html.
         *
         * Systems with a configurable address for the interrupt vector table
         * can also encounter assertion failures or even system faults here if
         * VTOR is not set correctly to point to the application's vector table. */
        configASSERT( pxVectorTable[ portVECTOR_INDEX_SVC ] == vPortSVCHandler );
 80038c4:	6afb      	ldr	r3, [r7, #44]	@ 0x2c
 80038c6:	332c      	adds	r3, #44	@ 0x2c
 80038c8:	681b      	ldr	r3, [r3, #0]
 80038ca:	4a59      	ldr	r2, [pc, #356]	@ (8003a30 <xPortStartScheduler+0x1bc>)
 80038cc:	4293      	cmp	r3, r2
 80038ce:	d00b      	beq.n	80038e8 <xPortStartScheduler+0x74>
    __asm volatile
 80038d0:	f04f 0350 	mov.w	r3, #80	@ 0x50
 80038d4:	f383 8811 	msr	BASEPRI, r3
 80038d8:	f3bf 8f6f 	isb	sy
 80038dc:	f3bf 8f4f 	dsb	sy
 80038e0:	61fb      	str	r3, [r7, #28]
}
 80038e2:	bf00      	nop
 80038e4:	bf00      	nop
 80038e6:	e7fd      	b.n	80038e4 <xPortStartScheduler+0x70>
        configASSERT( pxVectorTable[ portVECTOR_INDEX_PENDSV ] == xPortPendSVHandler );
 80038e8:	6afb      	ldr	r3, [r7, #44]	@ 0x2c
 80038ea:	3338      	adds	r3, #56	@ 0x38
 80038ec:	681b      	ldr	r3, [r3, #0]
 80038ee:	4a51      	ldr	r2, [pc, #324]	@ (8003a34 <xPortStartScheduler+0x1c0>)
 80038f0:	4293      	cmp	r3, r2
 80038f2:	d00b      	beq.n	800390c <xPortStartScheduler+0x98>
    __asm volatile
 80038f4:	f04f 0350 	mov.w	r3, #80	@ 0x50
 80038f8:	f383 8811 	msr	BASEPRI, r3
 80038fc:	f3bf 8f6f 	isb	sy
 8003900:	f3bf 8f4f 	dsb	sy
 8003904:	61bb      	str	r3, [r7, #24]
}
 8003906:	bf00      	nop
 8003908:	bf00      	nop
 800390a:	e7fd      	b.n	8003908 <xPortStartScheduler+0x94>
    #endif /* configCHECK_HANDLER_INSTALLATION */

    #if ( configASSERT_DEFINED == 1 )
    {
        volatile uint8_t ucOriginalPriority;
        volatile uint32_t ulImplementedPrioBits = 0;
 800390c:	2300      	movs	r3, #0
 800390e:	60bb      	str	r3, [r7, #8]
        volatile uint8_t * const pucFirstUserPriorityRegister = ( volatile uint8_t * const ) ( portNVIC_IP_REGISTERS_OFFSET_16 + portFIRST_USER_INTERRUPT_NUMBER );
 8003910:	4b49      	ldr	r3, [pc, #292]	@ (8003a38 <xPortStartScheduler+0x1c4>)
 8003912:	62bb      	str	r3, [r7, #40]	@ 0x28
         * functions can be called.  ISR safe functions are those that end in
         * "FromISR".  FreeRTOS maintains separate thread and ISR API functions to
         * ensure interrupt entry is as fast and simple as possible.
         *
         * Save the interrupt priority value that is about to be clobbered. */
        ucOriginalPriority = *pucFirstUserPriorityRegister;
 8003914:	6abb      	ldr	r3, [r7, #40]	@ 0x28
 8003916:	781b      	ldrb	r3, [r3, #0]
 8003918:	b2db      	uxtb	r3, r3
 800391a:	73fb      	strb	r3, [r7, #15]

        /* Determine the number of priority bits available.  First write to all
         * possible bits. */
        *pucFirstUserPriorityRegister = portMAX_8_BIT_VALUE;
 800391c:	6abb      	ldr	r3, [r7, #40]	@ 0x28
 800391e:	22ff      	movs	r2, #255	@ 0xff
 8003920:	701a      	strb	r2, [r3, #0]

        /* Read the value back to see how many bits stuck. */
        ucMaxPriorityValue = *pucFirstUserPriorityRegister;
 8003922:	6abb      	ldr	r3, [r7, #40]	@ 0x28
 8003924:	781b      	ldrb	r3, [r3, #0]
 8003926:	b2db      	uxtb	r3, r3
 8003928:	71fb      	strb	r3, [r7, #7]

        /* Use the same mask on the maximum system call priority. */
        ucMaxSysCallPriority = configMAX_SYSCALL_INTERRUPT_PRIORITY & ucMaxPriorityValue;
 800392a:	79fb      	ldrb	r3, [r7, #7]
 800392c:	b2db      	uxtb	r3, r3
 800392e:	f003 0350 	and.w	r3, r3, #80	@ 0x50
 8003932:	b2da      	uxtb	r2, r3
 8003934:	4b41      	ldr	r3, [pc, #260]	@ (8003a3c <xPortStartScheduler+0x1c8>)
 8003936:	701a      	strb	r2, [r3, #0]
         * accounting for the number of priority bits supported by the
         * hardware. A priority of 0 is invalid because setting the BASEPRI
         * register to 0 unmasks all interrupts, and interrupts with priority 0
         * cannot be masked using BASEPRI.
         * See https://www.FreeRTOS.org/RTOS-Cortex-M3-M4.html */
        configASSERT( ucMaxSysCallPriority );
 8003938:	4b40      	ldr	r3, [pc, #256]	@ (8003a3c <xPortStartScheduler+0x1c8>)
 800393a:	781b      	ldrb	r3, [r3, #0]
 800393c:	2b00      	cmp	r3, #0
 800393e:	d10b      	bne.n	8003958 <xPortStartScheduler+0xe4>
    __asm volatile
 8003940:	f04f 0350 	mov.w	r3, #80	@ 0x50
 8003944:	f383 8811 	msr	BASEPRI, r3
 8003948:	f3bf 8f6f 	isb	sy
 800394c:	f3bf 8f4f 	dsb	sy
 8003950:	617b      	str	r3, [r7, #20]
}
 8003952:	bf00      	nop
 8003954:	bf00      	nop
 8003956:	e7fd      	b.n	8003954 <xPortStartScheduler+0xe0>

        /* Check that the bits not implemented in hardware are zero in
         * configMAX_SYSCALL_INTERRUPT_PRIORITY. */
        configASSERT( ( configMAX_SYSCALL_INTERRUPT_PRIORITY & ( ~ucMaxPriorityValue ) ) == 0U );
 8003958:	79fb      	ldrb	r3, [r7, #7]
 800395a:	b2db      	uxtb	r3, r3
 800395c:	43db      	mvns	r3, r3
 800395e:	f003 0350 	and.w	r3, r3, #80	@ 0x50
 8003962:	2b00      	cmp	r3, #0
 8003964:	d013      	beq.n	800398e <xPortStartScheduler+0x11a>
    __asm volatile
 8003966:	f04f 0350 	mov.w	r3, #80	@ 0x50
 800396a:	f383 8811 	msr	BASEPRI, r3
 800396e:	f3bf 8f6f 	isb	sy
 8003972:	f3bf 8f4f 	dsb	sy
 8003976:	613b      	str	r3, [r7, #16]
}
 8003978:	bf00      	nop
 800397a:	bf00      	nop
 800397c:	e7fd      	b.n	800397a <xPortStartScheduler+0x106>
        /* Calculate the maximum acceptable priority group value for the number
         * of bits read back. */

        while( ( ucMaxPriorityValue & portTOP_BIT_OF_BYTE ) == portTOP_BIT_OF_BYTE )
        {
            ulImplementedPrioBits++;
 800397e:	68bb      	ldr	r3, [r7, #8]
 8003980:	3301      	adds	r3, #1
 8003982:	60bb      	str	r3, [r7, #8]
            ucMaxPriorityValue <<= ( uint8_t ) 0x01;
 8003984:	79fb      	ldrb	r3, [r7, #7]
 8003986:	b2db      	uxtb	r3, r3
 8003988:	005b      	lsls	r3, r3, #1
 800398a:	b2db      	uxtb	r3, r3
 800398c:	71fb      	strb	r3, [r7, #7]
        while( ( ucMaxPriorityValue & portTOP_BIT_OF_BYTE ) == portTOP_BIT_OF_BYTE )
 800398e:	79fb      	ldrb	r3, [r7, #7]
 8003990:	b2db      	uxtb	r3, r3
 8003992:	f003 0380 	and.w	r3, r3, #128	@ 0x80
 8003996:	2b80      	cmp	r3, #128	@ 0x80
 8003998:	d0f1      	beq.n	800397e <xPortStartScheduler+0x10a>
        }

        if( ulImplementedPrioBits == 8 )
 800399a:	68bb      	ldr	r3, [r7, #8]
 800399c:	2b08      	cmp	r3, #8
 800399e:	d103      	bne.n	80039a8 <xPortStartScheduler+0x134>
             *
             * The following assert ensures that the sub-priority bit in the
             * configMAX_SYSCALL_INTERRUPT_PRIORITY is clear to avoid the above mentioned
             * confusion. */
            configASSERT( ( configMAX_SYSCALL_INTERRUPT_PRIORITY & 0x1U ) == 0U );
            ulMaxPRIGROUPValue = 0;
 80039a0:	4b27      	ldr	r3, [pc, #156]	@ (8003a40 <xPortStartScheduler+0x1cc>)
 80039a2:	2200      	movs	r2, #0
 80039a4:	601a      	str	r2, [r3, #0]
 80039a6:	e004      	b.n	80039b2 <xPortStartScheduler+0x13e>
        }
        else
        {
            ulMaxPRIGROUPValue = portMAX_PRIGROUP_BITS - ulImplementedPrioBits;
 80039a8:	68bb      	ldr	r3, [r7, #8]
 80039aa:	f1c3 0307 	rsb	r3, r3, #7
 80039ae:	4a24      	ldr	r2, [pc, #144]	@ (8003a40 <xPortStartScheduler+0x1cc>)
 80039b0:	6013      	str	r3, [r2, #0]
        }

        /* Shift the priority group value back to its position within the AIRCR
         * register. */
        ulMaxPRIGROUPValue <<= portPRIGROUP_SHIFT;
 80039b2:	4b23      	ldr	r3, [pc, #140]	@ (8003a40 <xPortStartScheduler+0x1cc>)
 80039b4:	681b      	ldr	r3, [r3, #0]
 80039b6:	021b      	lsls	r3, r3, #8
 80039b8:	4a21      	ldr	r2, [pc, #132]	@ (8003a40 <xPortStartScheduler+0x1cc>)
 80039ba:	6013      	str	r3, [r2, #0]
        ulMaxPRIGROUPValue &= portPRIORITY_GROUP_MASK;
 80039bc:	4b20      	ldr	r3, [pc, #128]	@ (8003a40 <xPortStartScheduler+0x1cc>)
 80039be:	681b      	ldr	r3, [r3, #0]
 80039c0:	f403 63e0 	and.w	r3, r3, #1792	@ 0x700
 80039c4:	4a1e      	ldr	r2, [pc, #120]	@ (8003a40 <xPortStartScheduler+0x1cc>)
 80039c6:	6013      	str	r3, [r2, #0]

        /* Restore the clobbered interrupt priority register to its original
         * value. */
        *pucFirstUserPriorityRegister = ucOriginalPriority;
 80039c8:	7bfb      	ldrb	r3, [r7, #15]
 80039ca:	b2da      	uxtb	r2, r3
 80039cc:	6abb      	ldr	r3, [r7, #40]	@ 0x28
 80039ce:	701a      	strb	r2, [r3, #0]
    }
    #endif /* configASSERT_DEFINED */

    /* Make PendSV and SysTick the lowest priority interrupts, and make SVCall
     * the highest priority. */
    portNVIC_SHPR3_REG |= portNVIC_PENDSV_PRI;
 80039d0:	4b1c      	ldr	r3, [pc, #112]	@ (8003a44 <xPortStartScheduler+0x1d0>)
 80039d2:	681b      	ldr	r3, [r3, #0]
 80039d4:	4a1b      	ldr	r2, [pc, #108]	@ (8003a44 <xPortStartScheduler+0x1d0>)
 80039d6:	f443 037f 	orr.w	r3, r3, #16711680	@ 0xff0000
 80039da:	6013      	str	r3, [r2, #0]
    portNVIC_SHPR3_REG |= portNVIC_SYSTICK_PRI;
 80039dc:	4b19      	ldr	r3, [pc, #100]	@ (8003a44 <xPortStartScheduler+0x1d0>)
 80039de:	681b      	ldr	r3, [r3, #0]
 80039e0:	4a18      	ldr	r2, [pc, #96]	@ (8003a44 <xPortStartScheduler+0x1d0>)
 80039e2:	f043 437f 	orr.w	r3, r3, #4278190080	@ 0xff000000
 80039e6:	6013      	str	r3, [r2, #0]
    portNVIC_SHPR2_REG = 0;
 80039e8:	4b17      	ldr	r3, [pc, #92]	@ (8003a48 <xPortStartScheduler+0x1d4>)
 80039ea:	2200      	movs	r2, #0
 80039ec:	601a      	str	r2, [r3, #0]

    /* Start the timer that generates the tick ISR.  Interrupts are disabled
     * here already. */
    vPortSetupTimerInterrupt();
 80039ee:	f000 f96d 	bl	8003ccc <vPortSetupTimerInterrupt>

    /* Initialise the critical nesting count ready for the first task. */
    uxCriticalNesting = 0;
 80039f2:	4b16      	ldr	r3, [pc, #88]	@ (8003a4c <xPortStartScheduler+0x1d8>)
 80039f4:	2200      	movs	r2, #0
 80039f6:	601a      	str	r2, [r3, #0]

    /* Ensure the VFP is enabled - it should be anyway. */
    vPortEnableVFP();
 80039f8:	f000 f98c 	bl	8003d14 <vPortEnableVFP>

    /* Lazy save always. */
    *( portFPCCR ) |= portASPEN_AND_LSPEN_BITS;
 80039fc:	4b14      	ldr	r3, [pc, #80]	@ (8003a50 <xPortStartScheduler+0x1dc>)
 80039fe:	681b      	ldr	r3, [r3, #0]
 8003a00:	4a13      	ldr	r2, [pc, #76]	@ (8003a50 <xPortStartScheduler+0x1dc>)
 8003a02:	f043 4340 	orr.w	r3, r3, #3221225472	@ 0xc0000000
 8003a06:	6013      	str	r3, [r2, #0]

    /* Start the first task. */
    prvPortStartFirstTask();
 8003a08:	f7ff ff1e 	bl	8003848 <prvPortStartFirstTask>
     * exit error function to prevent compiler warnings about a static function
     * not being called in the case that the application writer overrides this
     * functionality by defining configTASK_RETURN_ADDRESS.  Call
     * vTaskSwitchContext() so link time optimisation does not remove the
     * symbol. */
    vTaskSwitchContext();
 8003a0c:	f7ff fb12 	bl	8003034 <vTaskSwitchContext>
    prvTaskExitError();
 8003a10:	f7ff fed2 	bl	80037b8 <prvTaskExitError>

    /* Should not get here! */
    return 0;
 8003a14:	2300      	movs	r3, #0
}
 8003a16:	4618      	mov	r0, r3
 8003a18:	3730      	adds	r7, #48	@ 0x30
 8003a1a:	46bd      	mov	sp, r7
 8003a1c:	bd80      	pop	{r7, pc}
 8003a1e:	bf00      	nop
 8003a20:	e000ed00 	.word	0xe000ed00
 8003a24:	410fc271 	.word	0x410fc271
 8003a28:	410fc270 	.word	0x410fc270
 8003a2c:	e000ed08 	.word	0xe000ed08
 8003a30:	08003821 	.word	0x08003821
 8003a34:	08003c11 	.word	0x08003c11
 8003a38:	e000e400 	.word	0xe000e400
 8003a3c:	20000190 	.word	0x20000190
 8003a40:	20000194 	.word	0x20000194
 8003a44:	e000ed20 	.word	0xe000ed20
 8003a48:	e000ed1c 	.word	0xe000ed1c
 8003a4c:	2000000c 	.word	0x2000000c
 8003a50:	e000ef34 	.word	0xe000ef34

08003a54 <vInitPrioGroupValue>:
/*-----------------------------------------------------------*/

void vInitPrioGroupValue(void)
{
 8003a54:	b480      	push	{r7}
 8003a56:	b087      	sub	sp, #28
 8003a58:	af00      	add	r7, sp, #0
    configASSERT( configMAX_SYSCALL_INTERRUPT_PRIORITY );

    /* This port can be used on all revisions of the Cortex-M7 core other than
     * the r0p1 parts.  r0p1 parts should use the port from the
     * /source/portable/GCC/ARM_CM7/r0p1 directory. */
    configASSERT( portCPUID != portCORTEX_M7_r0p1_ID );
 8003a5a:	4b38      	ldr	r3, [pc, #224]	@ (8003b3c <vInitPrioGroupValue+0xe8>)
 8003a5c:	681b      	ldr	r3, [r3, #0]
 8003a5e:	4a38      	ldr	r2, [pc, #224]	@ (8003b40 <vInitPrioGroupValue+0xec>)
 8003a60:	4293      	cmp	r3, r2
 8003a62:	d10b      	bne.n	8003a7c <vInitPrioGroupValue+0x28>
    __asm volatile
 8003a64:	f04f 0350 	mov.w	r3, #80	@ 0x50
 8003a68:	f383 8811 	msr	BASEPRI, r3
 8003a6c:	f3bf 8f6f 	isb	sy
 8003a70:	f3bf 8f4f 	dsb	sy
 8003a74:	60fb      	str	r3, [r7, #12]
}
 8003a76:	bf00      	nop
 8003a78:	bf00      	nop
 8003a7a:	e7fd      	b.n	8003a78 <vInitPrioGroupValue+0x24>
    configASSERT( portCPUID != portCORTEX_M7_r0p0_ID );
 8003a7c:	4b2f      	ldr	r3, [pc, #188]	@ (8003b3c <vInitPrioGroupValue+0xe8>)
 8003a7e:	681b      	ldr	r3, [r3, #0]
 8003a80:	4a30      	ldr	r2, [pc, #192]	@ (8003b44 <vInitPrioGroupValue+0xf0>)
 8003a82:	4293      	cmp	r3, r2
 8003a84:	d10b      	bne.n	8003a9e <vInitPrioGroupValue+0x4a>
    __asm volatile
 8003a86:	f04f 0350 	mov.w	r3, #80	@ 0x50
 8003a8a:	f383 8811 	msr	BASEPRI, r3
 8003a8e:	f3bf 8f6f 	isb	sy
 8003a92:	f3bf 8f4f 	dsb	sy
 8003a96:	613b      	str	r3, [r7, #16]
}
 8003a98:	bf00      	nop
 8003a9a:	bf00      	nop
 8003a9c:	e7fd      	b.n	8003a9a <vInitPrioGroupValue+0x46>

    #if ( configASSERT_DEFINED == 1 )
        {
            volatile uint32_t ulOriginalPriority;
            volatile uint8_t * const pucFirstUserPriorityRegister = ( volatile uint8_t * const ) ( portNVIC_IP_REGISTERS_OFFSET_16 + portFIRST_USER_INTERRUPT_NUMBER );
 8003a9e:	4b2a      	ldr	r3, [pc, #168]	@ (8003b48 <vInitPrioGroupValue+0xf4>)
 8003aa0:	617b      	str	r3, [r7, #20]
             * functions can be called.  ISR safe functions are those that end in
             * "FromISR".  FreeRTOS maintains separate thread and ISR API functions to
             * ensure interrupt entry is as fast and simple as possible.
             *
             * Save the interrupt priority value that is about to be clobbered. */
            ulOriginalPriority = *pucFirstUserPriorityRegister;
 8003aa2:	697b      	ldr	r3, [r7, #20]
 8003aa4:	781b      	ldrb	r3, [r3, #0]
 8003aa6:	b2db      	uxtb	r3, r3
 8003aa8:	607b      	str	r3, [r7, #4]

            /* Determine the number of priority bits available.  First write to all
             * possible bits. */
            *pucFirstUserPriorityRegister = portMAX_8_BIT_VALUE;
 8003aaa:	697b      	ldr	r3, [r7, #20]
 8003aac:	22ff      	movs	r2, #255	@ 0xff
 8003aae:	701a      	strb	r2, [r3, #0]

            /* Read the value back to see how many bits stuck. */
            ucMaxPriorityValue = *pucFirstUserPriorityRegister;
 8003ab0:	697b      	ldr	r3, [r7, #20]
 8003ab2:	781b      	ldrb	r3, [r3, #0]
 8003ab4:	b2db      	uxtb	r3, r3
 8003ab6:	70fb      	strb	r3, [r7, #3]

            /* Use the same mask on the maximum system call priority. */
            ucMaxSysCallPriority = configMAX_SYSCALL_INTERRUPT_PRIORITY & ucMaxPriorityValue;
 8003ab8:	78fb      	ldrb	r3, [r7, #3]
 8003aba:	b2db      	uxtb	r3, r3
 8003abc:	f003 0350 	and.w	r3, r3, #80	@ 0x50
 8003ac0:	b2da      	uxtb	r2, r3
 8003ac2:	4b22      	ldr	r3, [pc, #136]	@ (8003b4c <vInitPrioGroupValue+0xf8>)
 8003ac4:	701a      	strb	r2, [r3, #0]

            /* Calculate the maximum acceptable priority group value for the number
             * of bits read back. */
            ulMaxPRIGROUPValue = portMAX_PRIGROUP_BITS;
 8003ac6:	4b22      	ldr	r3, [pc, #136]	@ (8003b50 <vInitPrioGroupValue+0xfc>)
 8003ac8:	2207      	movs	r2, #7
 8003aca:	601a      	str	r2, [r3, #0]

            while( ( ucMaxPriorityValue & portTOP_BIT_OF_BYTE ) == portTOP_BIT_OF_BYTE )
 8003acc:	e009      	b.n	8003ae2 <vInitPrioGroupValue+0x8e>
            {
                ulMaxPRIGROUPValue--;
 8003ace:	4b20      	ldr	r3, [pc, #128]	@ (8003b50 <vInitPrioGroupValue+0xfc>)
 8003ad0:	681b      	ldr	r3, [r3, #0]
 8003ad2:	3b01      	subs	r3, #1
 8003ad4:	4a1e      	ldr	r2, [pc, #120]	@ (8003b50 <vInitPrioGroupValue+0xfc>)
 8003ad6:	6013      	str	r3, [r2, #0]
                ucMaxPriorityValue <<= ( uint8_t ) 0x01;
 8003ad8:	78fb      	ldrb	r3, [r7, #3]
 8003ada:	b2db      	uxtb	r3, r3
 8003adc:	005b      	lsls	r3, r3, #1
 8003ade:	b2db      	uxtb	r3, r3
 8003ae0:	70fb      	strb	r3, [r7, #3]
            while( ( ucMaxPriorityValue & portTOP_BIT_OF_BYTE ) == portTOP_BIT_OF_BYTE )
 8003ae2:	78fb      	ldrb	r3, [r7, #3]
 8003ae4:	b2db      	uxtb	r3, r3
 8003ae6:	f003 0380 	and.w	r3, r3, #128	@ 0x80
 8003aea:	2b80      	cmp	r3, #128	@ 0x80
 8003aec:	d0ef      	beq.n	8003ace <vInitPrioGroupValue+0x7a>
            #ifdef configPRIO_BITS
                {
                    /* Check the FreeRTOS configuration that defines the number of
                     * priority bits matches the number of priority bits actually queried
                     * from the hardware. */
                    configASSERT( ( portMAX_PRIGROUP_BITS - ulMaxPRIGROUPValue ) == configPRIO_BITS );
 8003aee:	4b18      	ldr	r3, [pc, #96]	@ (8003b50 <vInitPrioGroupValue+0xfc>)
 8003af0:	681b      	ldr	r3, [r3, #0]
 8003af2:	f1c3 0307 	rsb	r3, r3, #7
 8003af6:	2b04      	cmp	r3, #4
 8003af8:	d00b      	beq.n	8003b12 <vInitPrioGroupValue+0xbe>
    __asm volatile
 8003afa:	f04f 0350 	mov.w	r3, #80	@ 0x50
 8003afe:	f383 8811 	msr	BASEPRI, r3
 8003b02:	f3bf 8f6f 	isb	sy
 8003b06:	f3bf 8f4f 	dsb	sy
 8003b0a:	60bb      	str	r3, [r7, #8]
}
 8003b0c:	bf00      	nop
 8003b0e:	bf00      	nop
 8003b10:	e7fd      	b.n	8003b0e <vInitPrioGroupValue+0xba>
                }
            #endif

            /* Shift the priority group value back to its position within the AIRCR
             * register. */
            ulMaxPRIGROUPValue <<= portPRIGROUP_SHIFT;
 8003b12:	4b0f      	ldr	r3, [pc, #60]	@ (8003b50 <vInitPrioGroupValue+0xfc>)
 8003b14:	681b      	ldr	r3, [r3, #0]
 8003b16:	021b      	lsls	r3, r3, #8
 8003b18:	4a0d      	ldr	r2, [pc, #52]	@ (8003b50 <vInitPrioGroupValue+0xfc>)
 8003b1a:	6013      	str	r3, [r2, #0]
            ulMaxPRIGROUPValue &= portPRIORITY_GROUP_MASK;
 8003b1c:	4b0c      	ldr	r3, [pc, #48]	@ (8003b50 <vInitPrioGroupValue+0xfc>)
 8003b1e:	681b      	ldr	r3, [r3, #0]
 8003b20:	f403 63e0 	and.w	r3, r3, #1792	@ 0x700
 8003b24:	4a0a      	ldr	r2, [pc, #40]	@ (8003b50 <vInitPrioGroupValue+0xfc>)
 8003b26:	6013      	str	r3, [r2, #0]

            /* Restore the clobbered interrupt priority register to its original
             * value. */
            *pucFirstUserPriorityRegister = ulOriginalPriority;
 8003b28:	687b      	ldr	r3, [r7, #4]
 8003b2a:	b2da      	uxtb	r2, r3
 8003b2c:	697b      	ldr	r3, [r7, #20]
 8003b2e:	701a      	strb	r2, [r3, #0]
        }
    #endif /* conifgASSERT_DEFINED */
}
 8003b30:	bf00      	nop
 8003b32:	371c      	adds	r7, #28
 8003b34:	46bd      	mov	sp, r7
 8003b36:	f85d 7b04 	ldr.w	r7, [sp], #4
 8003b3a:	4770      	bx	lr
 8003b3c:	e000ed00 	.word	0xe000ed00
 8003b40:	410fc271 	.word	0x410fc271
 8003b44:	410fc270 	.word	0x410fc270
 8003b48:	e000e400 	.word	0xe000e400
 8003b4c:	20000190 	.word	0x20000190
 8003b50:	20000194 	.word	0x20000194

08003b54 <vPortEnterCritical>:
    configASSERT( uxCriticalNesting == 1000UL );
}
/*-----------------------------------------------------------*/

void vPortEnterCritical( void )
{
 8003b54:	b480      	push	{r7}
 8003b56:	b083      	sub	sp, #12
 8003b58:	af00      	add	r7, sp, #0
    __asm volatile
 8003b5a:	f04f 0350 	mov.w	r3, #80	@ 0x50
 8003b5e:	f383 8811 	msr	BASEPRI, r3
 8003b62:	f3bf 8f6f 	isb	sy
 8003b66:	f3bf 8f4f 	dsb	sy
 8003b6a:	607b      	str	r3, [r7, #4]
}
 8003b6c:	bf00      	nop
    portDISABLE_INTERRUPTS();
    uxCriticalNesting++;
 8003b6e:	4b10      	ldr	r3, [pc, #64]	@ (8003bb0 <vPortEnterCritical+0x5c>)
 8003b70:	681b      	ldr	r3, [r3, #0]
 8003b72:	3301      	adds	r3, #1
 8003b74:	4a0e      	ldr	r2, [pc, #56]	@ (8003bb0 <vPortEnterCritical+0x5c>)
 8003b76:	6013      	str	r3, [r2, #0]
    /* This is not the interrupt safe version of the enter critical function so
     * assert() if it is being called from an interrupt context.  Only API
     * functions that end in "FromISR" can be used in an interrupt.  Only assert if
     * the critical nesting count is 1 to protect against recursive calls if the
     * assert function also uses a critical section. */
    if( uxCriticalNesting == 1 )
 8003b78:	4b0d      	ldr	r3, [pc, #52]	@ (8003bb0 <vPortEnterCritical+0x5c>)
 8003b7a:	681b      	ldr	r3, [r3, #0]
 8003b7c:	2b01      	cmp	r3, #1
 8003b7e:	d110      	bne.n	8003ba2 <vPortEnterCritical+0x4e>
    {
        configASSERT( ( portNVIC_INT_CTRL_REG & portVECTACTIVE_MASK ) == 0 );
 8003b80:	4b0c      	ldr	r3, [pc, #48]	@ (8003bb4 <vPortEnterCritical+0x60>)
 8003b82:	681b      	ldr	r3, [r3, #0]
 8003b84:	b2db      	uxtb	r3, r3
 8003b86:	2b00      	cmp	r3, #0
 8003b88:	d00b      	beq.n	8003ba2 <vPortEnterCritical+0x4e>
    __asm volatile
 8003b8a:	f04f 0350 	mov.w	r3, #80	@ 0x50
 8003b8e:	f383 8811 	msr	BASEPRI, r3
 8003b92:	f3bf 8f6f 	isb	sy
 8003b96:	f3bf 8f4f 	dsb	sy
 8003b9a:	603b      	str	r3, [r7, #0]
}
 8003b9c:	bf00      	nop
 8003b9e:	bf00      	nop
 8003ba0:	e7fd      	b.n	8003b9e <vPortEnterCritical+0x4a>
    }
}
 8003ba2:	bf00      	nop
 8003ba4:	370c      	adds	r7, #12
 8003ba6:	46bd      	mov	sp, r7
 8003ba8:	f85d 7b04 	ldr.w	r7, [sp], #4
 8003bac:	4770      	bx	lr
 8003bae:	bf00      	nop
 8003bb0:	2000000c 	.word	0x2000000c
 8003bb4:	e000ed04 	.word	0xe000ed04

08003bb8 <vPortExitCritical>:
/*-----------------------------------------------------------*/

void vPortExitCritical( void )
{
 8003bb8:	b480      	push	{r7}
 8003bba:	b083      	sub	sp, #12
 8003bbc:	af00      	add	r7, sp, #0
    configASSERT( uxCriticalNesting );
 8003bbe:	4b12      	ldr	r3, [pc, #72]	@ (8003c08 <vPortExitCritical+0x50>)
 8003bc0:	681b      	ldr	r3, [r3, #0]
 8003bc2:	2b00      	cmp	r3, #0
 8003bc4:	d10b      	bne.n	8003bde <vPortExitCritical+0x26>
    __asm volatile
 8003bc6:	f04f 0350 	mov.w	r3, #80	@ 0x50
 8003bca:	f383 8811 	msr	BASEPRI, r3
 8003bce:	f3bf 8f6f 	isb	sy
 8003bd2:	f3bf 8f4f 	dsb	sy
 8003bd6:	607b      	str	r3, [r7, #4]
}
 8003bd8:	bf00      	nop
 8003bda:	bf00      	nop
 8003bdc:	e7fd      	b.n	8003bda <vPortExitCritical+0x22>
    uxCriticalNesting--;
 8003bde:	4b0a      	ldr	r3, [pc, #40]	@ (8003c08 <vPortExitCritical+0x50>)
 8003be0:	681b      	ldr	r3, [r3, #0]
 8003be2:	3b01      	subs	r3, #1
 8003be4:	4a08      	ldr	r2, [pc, #32]	@ (8003c08 <vPortExitCritical+0x50>)
 8003be6:	6013      	str	r3, [r2, #0]

    if( uxCriticalNesting == 0 )
 8003be8:	4b07      	ldr	r3, [pc, #28]	@ (8003c08 <vPortExitCritical+0x50>)
 8003bea:	681b      	ldr	r3, [r3, #0]
 8003bec:	2b00      	cmp	r3, #0
 8003bee:	d105      	bne.n	8003bfc <vPortExitCritical+0x44>
 8003bf0:	2300      	movs	r3, #0
 8003bf2:	603b      	str	r3, [r7, #0]
}
/*-----------------------------------------------------------*/

portFORCE_INLINE static void vPortSetBASEPRI( uint32_t ulNewMaskValue )
{
    __asm volatile
 8003bf4:	683b      	ldr	r3, [r7, #0]
 8003bf6:	f383 8811 	msr	BASEPRI, r3
    (
        "   msr basepri, %0 " ::"r" ( ulNewMaskValue ) : "memory"
    );
}
 8003bfa:	bf00      	nop
    {
        portENABLE_INTERRUPTS();
    }
}
 8003bfc:	bf00      	nop
 8003bfe:	370c      	adds	r7, #12
 8003c00:	46bd      	mov	sp, r7
 8003c02:	f85d 7b04 	ldr.w	r7, [sp], #4
 8003c06:	4770      	bx	lr
 8003c08:	2000000c 	.word	0x2000000c
 8003c0c:	00000000 	.word	0x00000000

08003c10 <PendSV_Handler>:

void xPortPendSVHandler( void )
{
    /* This is a naked function. */

    __asm volatile
 8003c10:	f3ef 8009 	mrs	r0, PSP
 8003c14:	f3bf 8f6f 	isb	sy
 8003c18:	4b15      	ldr	r3, [pc, #84]	@ (8003c70 <pxCurrentTCBConst>)
 8003c1a:	681a      	ldr	r2, [r3, #0]
 8003c1c:	f01e 0f10 	tst.w	lr, #16
 8003c20:	bf08      	it	eq
 8003c22:	ed20 8a10 	vstmdbeq	r0!, {s16-s31}
 8003c26:	e920 4ff0 	stmdb	r0!, {r4, r5, r6, r7, r8, r9, sl, fp, lr}
 8003c2a:	6010      	str	r0, [r2, #0]
 8003c2c:	e92d 0009 	stmdb	sp!, {r0, r3}
 8003c30:	f04f 0050 	mov.w	r0, #80	@ 0x50
 8003c34:	f380 8811 	msr	BASEPRI, r0
 8003c38:	f3bf 8f4f 	dsb	sy
 8003c3c:	f3bf 8f6f 	isb	sy
 8003c40:	f7ff f9f8 	bl	8003034 <vTaskSwitchContext>
 8003c44:	f04f 0000 	mov.w	r0, #0
 8003c48:	f380 8811 	msr	BASEPRI, r0
 8003c4c:	bc09      	pop	{r0, r3}
 8003c4e:	6819      	ldr	r1, [r3, #0]
 8003c50:	6808      	ldr	r0, [r1, #0]
 8003c52:	e8b0 4ff0 	ldmia.w	r0!, {r4, r5, r6, r7, r8, r9, sl, fp, lr}
 8003c56:	f01e 0f10 	tst.w	lr, #16
 8003c5a:	bf08      	it	eq
 8003c5c:	ecb0 8a10 	vldmiaeq	r0!, {s16-s31}
 8003c60:	f380 8809 	msr	PSP, r0
 8003c64:	f3bf 8f6f 	isb	sy
 8003c68:	4770      	bx	lr
 8003c6a:	bf00      	nop
 8003c6c:	f3af 8000 	nop.w

08003c70 <pxCurrentTCBConst>:
 8003c70:	2000008c 	.word	0x2000008c
        "                                       \n"
        "   .align 4                            \n"
        "pxCurrentTCBConst: .word pxCurrentTCB  \n"
        ::"i" ( configMAX_SYSCALL_INTERRUPT_PRIORITY )
    );
}
 8003c74:	bf00      	nop
 8003c76:	bf00      	nop

08003c78 <SysTick_Handler>:
/*-----------------------------------------------------------*/

void xPortSysTickHandler( void )
{
 8003c78:	b580      	push	{r7, lr}
 8003c7a:	b082      	sub	sp, #8
 8003c7c:	af00      	add	r7, sp, #0
    __asm volatile
 8003c7e:	f04f 0350 	mov.w	r3, #80	@ 0x50
 8003c82:	f383 8811 	msr	BASEPRI, r3
 8003c86:	f3bf 8f6f 	isb	sy
 8003c8a:	f3bf 8f4f 	dsb	sy
 8003c8e:	607b      	str	r3, [r7, #4]
}
 8003c90:	bf00      	nop
    /* The SysTick runs at the lowest interrupt priority, so when this interrupt
     * executes all interrupts must be unmasked.  There is therefore no need to
     * save and then restore the interrupt mask value as its value is already
     * known. */
    portDISABLE_INTERRUPTS();
    traceISR_ENTER();
 8003c92:	f001 fe8b 	bl	80059ac <SEGGER_SYSVIEW_RecordEnterISR>
    {
        /* Increment the RTOS tick. */
        if( xTaskIncrementTick() != pdFALSE )
 8003c96:	f7ff f8a9 	bl	8002dec <xTaskIncrementTick>
 8003c9a:	4603      	mov	r3, r0
 8003c9c:	2b00      	cmp	r3, #0
 8003c9e:	d006      	beq.n	8003cae <SysTick_Handler+0x36>
        {
            traceISR_EXIT_TO_SCHEDULER();
 8003ca0:	f001 fee2 	bl	8005a68 <SEGGER_SYSVIEW_RecordExitISRToScheduler>

            /* A context switch is required.  Context switching is performed in
             * the PendSV interrupt.  Pend the PendSV interrupt. */
            portNVIC_INT_CTRL_REG = portNVIC_PENDSVSET_BIT;
 8003ca4:	4b08      	ldr	r3, [pc, #32]	@ (8003cc8 <SysTick_Handler+0x50>)
 8003ca6:	f04f 5280 	mov.w	r2, #268435456	@ 0x10000000
 8003caa:	601a      	str	r2, [r3, #0]
 8003cac:	e001      	b.n	8003cb2 <SysTick_Handler+0x3a>
        }
        else
        {
            traceISR_EXIT();
 8003cae:	f001 febf 	bl	8005a30 <SEGGER_SYSVIEW_RecordExitISR>
 8003cb2:	2300      	movs	r3, #0
 8003cb4:	603b      	str	r3, [r7, #0]
    __asm volatile
 8003cb6:	683b      	ldr	r3, [r7, #0]
 8003cb8:	f383 8811 	msr	BASEPRI, r3
}
 8003cbc:	bf00      	nop
        }
    }
    portENABLE_INTERRUPTS();
}
 8003cbe:	bf00      	nop
 8003cc0:	3708      	adds	r7, #8
 8003cc2:	46bd      	mov	sp, r7
 8003cc4:	bd80      	pop	{r7, pc}
 8003cc6:	bf00      	nop
 8003cc8:	e000ed04 	.word	0xe000ed04

08003ccc <vPortSetupTimerInterrupt>:
/*
 * Setup the systick timer to generate the tick interrupts at the required
 * frequency.
 */
__attribute__( ( weak ) ) void vPortSetupTimerInterrupt( void )
{
 8003ccc:	b480      	push	{r7}
 8003cce:	af00      	add	r7, sp, #0
        ulStoppedTimerCompensation = portMISSED_COUNTS_FACTOR / ( configCPU_CLOCK_HZ / configSYSTICK_CLOCK_HZ );
    }
    #endif /* configUSE_TICKLESS_IDLE */

    /* Stop and clear the SysTick. */
    portNVIC_SYSTICK_CTRL_REG = 0UL;
 8003cd0:	4b0b      	ldr	r3, [pc, #44]	@ (8003d00 <vPortSetupTimerInterrupt+0x34>)
 8003cd2:	2200      	movs	r2, #0
 8003cd4:	601a      	str	r2, [r3, #0]
    portNVIC_SYSTICK_CURRENT_VALUE_REG = 0UL;
 8003cd6:	4b0b      	ldr	r3, [pc, #44]	@ (8003d04 <vPortSetupTimerInterrupt+0x38>)
 8003cd8:	2200      	movs	r2, #0
 8003cda:	601a      	str	r2, [r3, #0]

    /* Configure SysTick to interrupt at the requested rate. */
    portNVIC_SYSTICK_LOAD_REG = ( configSYSTICK_CLOCK_HZ / configTICK_RATE_HZ ) - 1UL;
 8003cdc:	4b0a      	ldr	r3, [pc, #40]	@ (8003d08 <vPortSetupTimerInterrupt+0x3c>)
 8003cde:	681b      	ldr	r3, [r3, #0]
 8003ce0:	4a0a      	ldr	r2, [pc, #40]	@ (8003d0c <vPortSetupTimerInterrupt+0x40>)
 8003ce2:	fba2 2303 	umull	r2, r3, r2, r3
 8003ce6:	099b      	lsrs	r3, r3, #6
 8003ce8:	4a09      	ldr	r2, [pc, #36]	@ (8003d10 <vPortSetupTimerInterrupt+0x44>)
 8003cea:	3b01      	subs	r3, #1
 8003cec:	6013      	str	r3, [r2, #0]
    portNVIC_SYSTICK_CTRL_REG = ( portNVIC_SYSTICK_CLK_BIT_CONFIG | portNVIC_SYSTICK_INT_BIT | portNVIC_SYSTICK_ENABLE_BIT );
 8003cee:	4b04      	ldr	r3, [pc, #16]	@ (8003d00 <vPortSetupTimerInterrupt+0x34>)
 8003cf0:	2207      	movs	r2, #7
 8003cf2:	601a      	str	r2, [r3, #0]
}
 8003cf4:	bf00      	nop
 8003cf6:	46bd      	mov	sp, r7
 8003cf8:	f85d 7b04 	ldr.w	r7, [sp], #4
 8003cfc:	4770      	bx	lr
 8003cfe:	bf00      	nop
 8003d00:	e000e010 	.word	0xe000e010
 8003d04:	e000e018 	.word	0xe000e018
 8003d08:	20000000 	.word	0x20000000
 8003d0c:	10624dd3 	.word	0x10624dd3
 8003d10:	e000e014 	.word	0xe000e014

08003d14 <vPortEnableVFP>:
/*-----------------------------------------------------------*/

/* This is a naked function. */
static void vPortEnableVFP( void )
{
    __asm volatile
 8003d14:	f8df 000c 	ldr.w	r0, [pc, #12]	@ 8003d24 <vPortEnableVFP+0x10>
 8003d18:	6801      	ldr	r1, [r0, #0]
 8003d1a:	f441 0170 	orr.w	r1, r1, #15728640	@ 0xf00000
 8003d1e:	6001      	str	r1, [r0, #0]
 8003d20:	4770      	bx	lr
 8003d22:	0000      	.short	0x0000
 8003d24:	e000ed88 	.word	0xe000ed88
        "   orr r1, r1, #( 0xf << 20 )  \n" /* Enable CP10 and CP11 coprocessors, then save back. */
        "   str r1, [r0]                \n"
        "   bx r14                      \n"
        "   .ltorg                      \n"
    );
}
 8003d28:	bf00      	nop
 8003d2a:	bf00      	nop

08003d2c <vPortValidateInterruptPriority>:
/*-----------------------------------------------------------*/

#if ( configASSERT_DEFINED == 1 )

    void vPortValidateInterruptPriority( void )
    {
 8003d2c:	b480      	push	{r7}
 8003d2e:	b085      	sub	sp, #20
 8003d30:	af00      	add	r7, sp, #0
        uint32_t ulCurrentInterrupt;
        uint8_t ucCurrentPriority;

        /* Obtain the number of the currently executing interrupt. */
        __asm volatile ( "mrs %0, ipsr" : "=r" ( ulCurrentInterrupt )::"memory" );
 8003d32:	f3ef 8305 	mrs	r3, IPSR
 8003d36:	60fb      	str	r3, [r7, #12]

        /* Is the interrupt number a user defined interrupt? */
        if( ulCurrentInterrupt >= portFIRST_USER_INTERRUPT_NUMBER )
 8003d38:	68fb      	ldr	r3, [r7, #12]
 8003d3a:	2b0f      	cmp	r3, #15
 8003d3c:	d915      	bls.n	8003d6a <vPortValidateInterruptPriority+0x3e>
        {
            /* Look up the interrupt's priority. */
            ucCurrentPriority = pcInterruptPriorityRegisters[ ulCurrentInterrupt ];
 8003d3e:	4a18      	ldr	r2, [pc, #96]	@ (8003da0 <vPortValidateInterruptPriority+0x74>)
 8003d40:	68fb      	ldr	r3, [r7, #12]
 8003d42:	4413      	add	r3, r2
 8003d44:	781b      	ldrb	r3, [r3, #0]
 8003d46:	72fb      	strb	r3, [r7, #11]
             * interrupt entry is as fast and simple as possible.
             *
             * The following links provide detailed information:
             * https://www.FreeRTOS.org/RTOS-Cortex-M3-M4.html
             * https://www.FreeRTOS.org/FAQHelp.html */
            configASSERT( ucCurrentPriority >= ucMaxSysCallPriority );
 8003d48:	4b16      	ldr	r3, [pc, #88]	@ (8003da4 <vPortValidateInterruptPriority+0x78>)
 8003d4a:	781b      	ldrb	r3, [r3, #0]
 8003d4c:	7afa      	ldrb	r2, [r7, #11]
 8003d4e:	429a      	cmp	r2, r3
 8003d50:	d20b      	bcs.n	8003d6a <vPortValidateInterruptPriority+0x3e>
    __asm volatile
 8003d52:	f04f 0350 	mov.w	r3, #80	@ 0x50
 8003d56:	f383 8811 	msr	BASEPRI, r3
 8003d5a:	f3bf 8f6f 	isb	sy
 8003d5e:	f3bf 8f4f 	dsb	sy
 8003d62:	607b      	str	r3, [r7, #4]
}
 8003d64:	bf00      	nop
 8003d66:	bf00      	nop
 8003d68:	e7fd      	b.n	8003d66 <vPortValidateInterruptPriority+0x3a>
         * configuration then the correct setting can be achieved on all Cortex-M
         * devices by calling NVIC_SetPriorityGrouping( 0 ); before starting the
         * scheduler.  Note however that some vendor specific peripheral libraries
         * assume a non-zero priority group setting, in which cases using a value
         * of zero will result in unpredictable behaviour. */
        configASSERT( ( portAIRCR_REG & portPRIORITY_GROUP_MASK ) <= ulMaxPRIGROUPValue );
 8003d6a:	4b0f      	ldr	r3, [pc, #60]	@ (8003da8 <vPortValidateInterruptPriority+0x7c>)
 8003d6c:	681b      	ldr	r3, [r3, #0]
 8003d6e:	f403 62e0 	and.w	r2, r3, #1792	@ 0x700
 8003d72:	4b0e      	ldr	r3, [pc, #56]	@ (8003dac <vPortValidateInterruptPriority+0x80>)
 8003d74:	681b      	ldr	r3, [r3, #0]
 8003d76:	429a      	cmp	r2, r3
 8003d78:	d90b      	bls.n	8003d92 <vPortValidateInterruptPriority+0x66>
    __asm volatile
 8003d7a:	f04f 0350 	mov.w	r3, #80	@ 0x50
 8003d7e:	f383 8811 	msr	BASEPRI, r3
 8003d82:	f3bf 8f6f 	isb	sy
 8003d86:	f3bf 8f4f 	dsb	sy
 8003d8a:	603b      	str	r3, [r7, #0]
}
 8003d8c:	bf00      	nop
 8003d8e:	bf00      	nop
 8003d90:	e7fd      	b.n	8003d8e <vPortValidateInterruptPriority+0x62>
    }
 8003d92:	bf00      	nop
 8003d94:	3714      	adds	r7, #20
 8003d96:	46bd      	mov	sp, r7
 8003d98:	f85d 7b04 	ldr.w	r7, [sp], #4
 8003d9c:	4770      	bx	lr
 8003d9e:	bf00      	nop
 8003da0:	e000e3f0 	.word	0xe000e3f0
 8003da4:	20000190 	.word	0x20000190
 8003da8:	e000ed0c 	.word	0xe000ed0c
 8003dac:	20000194 	.word	0x20000194

08003db0 <pvPortMalloc>:
PRIVILEGED_DATA static size_t xNumberOfSuccessfulFrees = 0;

/*-----------------------------------------------------------*/

void * pvPortMalloc( size_t xWantedSize )
{
 8003db0:	b580      	push	{r7, lr}
 8003db2:	b08e      	sub	sp, #56	@ 0x38
 8003db4:	af00      	add	r7, sp, #0
 8003db6:	6078      	str	r0, [r7, #4]
    BlockLink_t * pxBlock;
    BlockLink_t * pxPreviousBlock;
    BlockLink_t * pxNewBlockLink;
    void * pvReturn = NULL;
 8003db8:	2300      	movs	r3, #0
 8003dba:	62fb      	str	r3, [r7, #44]	@ 0x2c
    size_t xAdditionalRequiredSize;

    if( xWantedSize > 0 )
 8003dbc:	687b      	ldr	r3, [r7, #4]
 8003dbe:	2b00      	cmp	r3, #0
 8003dc0:	d022      	beq.n	8003e08 <pvPortMalloc+0x58>
    {
        /* The wanted size must be increased so it can contain a BlockLink_t
         * structure in addition to the requested amount of bytes. */
        if( heapADD_WILL_OVERFLOW( xWantedSize, xHeapStructSize ) == 0 )
 8003dc2:	2308      	movs	r3, #8
 8003dc4:	43db      	mvns	r3, r3
 8003dc6:	687a      	ldr	r2, [r7, #4]
 8003dc8:	429a      	cmp	r2, r3
 8003dca:	d81b      	bhi.n	8003e04 <pvPortMalloc+0x54>
        {
            xWantedSize += xHeapStructSize;
 8003dcc:	2208      	movs	r2, #8
 8003dce:	687b      	ldr	r3, [r7, #4]
 8003dd0:	4413      	add	r3, r2
 8003dd2:	607b      	str	r3, [r7, #4]

            /* Ensure that blocks are always aligned to the required number
             * of bytes. */
            if( ( xWantedSize & portBYTE_ALIGNMENT_MASK ) != 0x00 )
 8003dd4:	687b      	ldr	r3, [r7, #4]
 8003dd6:	f003 0307 	and.w	r3, r3, #7
 8003dda:	2b00      	cmp	r3, #0
 8003ddc:	d014      	beq.n	8003e08 <pvPortMalloc+0x58>
            {
                /* Byte alignment required. */
                xAdditionalRequiredSize = portBYTE_ALIGNMENT - ( xWantedSize & portBYTE_ALIGNMENT_MASK );
 8003dde:	687b      	ldr	r3, [r7, #4]
 8003de0:	f003 0307 	and.w	r3, r3, #7
 8003de4:	f1c3 0308 	rsb	r3, r3, #8
 8003de8:	62bb      	str	r3, [r7, #40]	@ 0x28

                if( heapADD_WILL_OVERFLOW( xWantedSize, xAdditionalRequiredSize ) == 0 )
 8003dea:	6abb      	ldr	r3, [r7, #40]	@ 0x28
 8003dec:	43db      	mvns	r3, r3
 8003dee:	687a      	ldr	r2, [r7, #4]
 8003df0:	429a      	cmp	r2, r3
 8003df2:	d804      	bhi.n	8003dfe <pvPortMalloc+0x4e>
                {
                    xWantedSize += xAdditionalRequiredSize;
 8003df4:	687a      	ldr	r2, [r7, #4]
 8003df6:	6abb      	ldr	r3, [r7, #40]	@ 0x28
 8003df8:	4413      	add	r3, r2
 8003dfa:	607b      	str	r3, [r7, #4]
 8003dfc:	e004      	b.n	8003e08 <pvPortMalloc+0x58>
                }
                else
                {
                    xWantedSize = 0;
 8003dfe:	2300      	movs	r3, #0
 8003e00:	607b      	str	r3, [r7, #4]
 8003e02:	e001      	b.n	8003e08 <pvPortMalloc+0x58>
                mtCOVERAGE_TEST_MARKER();
            }
        }
        else
        {
            xWantedSize = 0;
 8003e04:	2300      	movs	r3, #0
 8003e06:	607b      	str	r3, [r7, #4]
    else
    {
        mtCOVERAGE_TEST_MARKER();
    }

    vTaskSuspendAll();
 8003e08:	f7fe feb4 	bl	8002b74 <vTaskSuspendAll>
    {
        /* If this is the first call to malloc then the heap will require
         * initialisation to setup the list of free blocks. */
        if( pxEnd == NULL )
 8003e0c:	4b7a      	ldr	r3, [pc, #488]	@ (8003ff8 <pvPortMalloc+0x248>)
 8003e0e:	681b      	ldr	r3, [r3, #0]
 8003e10:	2b00      	cmp	r3, #0
 8003e12:	d101      	bne.n	8003e18 <pvPortMalloc+0x68>
        {
            prvHeapInit();
 8003e14:	f000 f974 	bl	8004100 <prvHeapInit>

        /* Check the block size we are trying to allocate is not so large that the
         * top bit is set.  The top bit of the block size member of the BlockLink_t
         * structure is used to determine who owns the block - the application or
         * the kernel, so it must be free. */
        if( heapBLOCK_SIZE_IS_VALID( xWantedSize ) != 0 )
 8003e18:	687b      	ldr	r3, [r7, #4]
 8003e1a:	2b00      	cmp	r3, #0
 8003e1c:	f2c0 80d3 	blt.w	8003fc6 <pvPortMalloc+0x216>
        {
            if( ( xWantedSize > 0 ) && ( xWantedSize <= xFreeBytesRemaining ) )
 8003e20:	687b      	ldr	r3, [r7, #4]
 8003e22:	2b00      	cmp	r3, #0
 8003e24:	f000 80cf 	beq.w	8003fc6 <pvPortMalloc+0x216>
 8003e28:	4b74      	ldr	r3, [pc, #464]	@ (8003ffc <pvPortMalloc+0x24c>)
 8003e2a:	681b      	ldr	r3, [r3, #0]
 8003e2c:	687a      	ldr	r2, [r7, #4]
 8003e2e:	429a      	cmp	r2, r3
 8003e30:	f200 80c9 	bhi.w	8003fc6 <pvPortMalloc+0x216>
            {
                /* Traverse the list from the start (lowest address) block until
                 * one of adequate size is found. */
                pxPreviousBlock = &xStart;
 8003e34:	4b72      	ldr	r3, [pc, #456]	@ (8004000 <pvPortMalloc+0x250>)
 8003e36:	633b      	str	r3, [r7, #48]	@ 0x30
                pxBlock = heapPROTECT_BLOCK_POINTER( xStart.pxNextFreeBlock );
 8003e38:	4b71      	ldr	r3, [pc, #452]	@ (8004000 <pvPortMalloc+0x250>)
 8003e3a:	681b      	ldr	r3, [r3, #0]
 8003e3c:	637b      	str	r3, [r7, #52]	@ 0x34
                heapVALIDATE_BLOCK_POINTER( pxBlock );
 8003e3e:	6b7b      	ldr	r3, [r7, #52]	@ 0x34
 8003e40:	4a70      	ldr	r2, [pc, #448]	@ (8004004 <pvPortMalloc+0x254>)
 8003e42:	4293      	cmp	r3, r2
 8003e44:	d305      	bcc.n	8003e52 <pvPortMalloc+0xa2>
 8003e46:	6b7b      	ldr	r3, [r7, #52]	@ 0x34
 8003e48:	4a6f      	ldr	r2, [pc, #444]	@ (8004008 <pvPortMalloc+0x258>)
 8003e4a:	4293      	cmp	r3, r2
 8003e4c:	d801      	bhi.n	8003e52 <pvPortMalloc+0xa2>
 8003e4e:	2301      	movs	r3, #1
 8003e50:	e000      	b.n	8003e54 <pvPortMalloc+0xa4>
 8003e52:	2300      	movs	r3, #0
 8003e54:	2b00      	cmp	r3, #0
 8003e56:	d129      	bne.n	8003eac <pvPortMalloc+0xfc>
    __asm volatile
 8003e58:	f04f 0350 	mov.w	r3, #80	@ 0x50
 8003e5c:	f383 8811 	msr	BASEPRI, r3
 8003e60:	f3bf 8f6f 	isb	sy
 8003e64:	f3bf 8f4f 	dsb	sy
 8003e68:	623b      	str	r3, [r7, #32]
}
 8003e6a:	bf00      	nop
 8003e6c:	bf00      	nop
 8003e6e:	e7fd      	b.n	8003e6c <pvPortMalloc+0xbc>

                while( ( pxBlock->xBlockSize < xWantedSize ) && ( pxBlock->pxNextFreeBlock != heapPROTECT_BLOCK_POINTER( NULL ) ) )
                {
                    pxPreviousBlock = pxBlock;
 8003e70:	6b7b      	ldr	r3, [r7, #52]	@ 0x34
 8003e72:	633b      	str	r3, [r7, #48]	@ 0x30
                    pxBlock = heapPROTECT_BLOCK_POINTER( pxBlock->pxNextFreeBlock );
 8003e74:	6b7b      	ldr	r3, [r7, #52]	@ 0x34
 8003e76:	681b      	ldr	r3, [r3, #0]
 8003e78:	637b      	str	r3, [r7, #52]	@ 0x34
                    heapVALIDATE_BLOCK_POINTER( pxBlock );
 8003e7a:	6b7b      	ldr	r3, [r7, #52]	@ 0x34
 8003e7c:	4a61      	ldr	r2, [pc, #388]	@ (8004004 <pvPortMalloc+0x254>)
 8003e7e:	4293      	cmp	r3, r2
 8003e80:	d305      	bcc.n	8003e8e <pvPortMalloc+0xde>
 8003e82:	6b7b      	ldr	r3, [r7, #52]	@ 0x34
 8003e84:	4a60      	ldr	r2, [pc, #384]	@ (8004008 <pvPortMalloc+0x258>)
 8003e86:	4293      	cmp	r3, r2
 8003e88:	d801      	bhi.n	8003e8e <pvPortMalloc+0xde>
 8003e8a:	2301      	movs	r3, #1
 8003e8c:	e000      	b.n	8003e90 <pvPortMalloc+0xe0>
 8003e8e:	2300      	movs	r3, #0
 8003e90:	2b00      	cmp	r3, #0
 8003e92:	d10b      	bne.n	8003eac <pvPortMalloc+0xfc>
    __asm volatile
 8003e94:	f04f 0350 	mov.w	r3, #80	@ 0x50
 8003e98:	f383 8811 	msr	BASEPRI, r3
 8003e9c:	f3bf 8f6f 	isb	sy
 8003ea0:	f3bf 8f4f 	dsb	sy
 8003ea4:	61fb      	str	r3, [r7, #28]
}
 8003ea6:	bf00      	nop
 8003ea8:	bf00      	nop
 8003eaa:	e7fd      	b.n	8003ea8 <pvPortMalloc+0xf8>
                while( ( pxBlock->xBlockSize < xWantedSize ) && ( pxBlock->pxNextFreeBlock != heapPROTECT_BLOCK_POINTER( NULL ) ) )
 8003eac:	6b7b      	ldr	r3, [r7, #52]	@ 0x34
 8003eae:	685b      	ldr	r3, [r3, #4]
 8003eb0:	687a      	ldr	r2, [r7, #4]
 8003eb2:	429a      	cmp	r2, r3
 8003eb4:	d903      	bls.n	8003ebe <pvPortMalloc+0x10e>
 8003eb6:	6b7b      	ldr	r3, [r7, #52]	@ 0x34
 8003eb8:	681b      	ldr	r3, [r3, #0]
 8003eba:	2b00      	cmp	r3, #0
 8003ebc:	d1d8      	bne.n	8003e70 <pvPortMalloc+0xc0>
                }

                /* If the end marker was reached then a block of adequate size
                 * was not found. */
                if( pxBlock != pxEnd )
 8003ebe:	4b4e      	ldr	r3, [pc, #312]	@ (8003ff8 <pvPortMalloc+0x248>)
 8003ec0:	681b      	ldr	r3, [r3, #0]
 8003ec2:	6b7a      	ldr	r2, [r7, #52]	@ 0x34
 8003ec4:	429a      	cmp	r2, r3
 8003ec6:	d07e      	beq.n	8003fc6 <pvPortMalloc+0x216>
                {
                    /* Return the memory space pointed to - jumping over the
                     * BlockLink_t structure at its start. */
                    pvReturn = ( void * ) ( ( ( uint8_t * ) heapPROTECT_BLOCK_POINTER( pxPreviousBlock->pxNextFreeBlock ) ) + xHeapStructSize );
 8003ec8:	6b3b      	ldr	r3, [r7, #48]	@ 0x30
 8003eca:	681b      	ldr	r3, [r3, #0]
 8003ecc:	2208      	movs	r2, #8
 8003ece:	4413      	add	r3, r2
 8003ed0:	62fb      	str	r3, [r7, #44]	@ 0x2c
                    heapVALIDATE_BLOCK_POINTER( pvReturn );
 8003ed2:	6afb      	ldr	r3, [r7, #44]	@ 0x2c
 8003ed4:	4a4b      	ldr	r2, [pc, #300]	@ (8004004 <pvPortMalloc+0x254>)
 8003ed6:	4293      	cmp	r3, r2
 8003ed8:	d305      	bcc.n	8003ee6 <pvPortMalloc+0x136>
 8003eda:	6afb      	ldr	r3, [r7, #44]	@ 0x2c
 8003edc:	4a4a      	ldr	r2, [pc, #296]	@ (8004008 <pvPortMalloc+0x258>)
 8003ede:	4293      	cmp	r3, r2
 8003ee0:	d801      	bhi.n	8003ee6 <pvPortMalloc+0x136>
 8003ee2:	2301      	movs	r3, #1
 8003ee4:	e000      	b.n	8003ee8 <pvPortMalloc+0x138>
 8003ee6:	2300      	movs	r3, #0
 8003ee8:	2b00      	cmp	r3, #0
 8003eea:	d10b      	bne.n	8003f04 <pvPortMalloc+0x154>
    __asm volatile
 8003eec:	f04f 0350 	mov.w	r3, #80	@ 0x50
 8003ef0:	f383 8811 	msr	BASEPRI, r3
 8003ef4:	f3bf 8f6f 	isb	sy
 8003ef8:	f3bf 8f4f 	dsb	sy
 8003efc:	61bb      	str	r3, [r7, #24]
}
 8003efe:	bf00      	nop
 8003f00:	bf00      	nop
 8003f02:	e7fd      	b.n	8003f00 <pvPortMalloc+0x150>

                    /* This block is being returned for use so must be taken out
                     * of the list of free blocks. */
                    pxPreviousBlock->pxNextFreeBlock = pxBlock->pxNextFreeBlock;
 8003f04:	6b7b      	ldr	r3, [r7, #52]	@ 0x34
 8003f06:	681a      	ldr	r2, [r3, #0]
 8003f08:	6b3b      	ldr	r3, [r7, #48]	@ 0x30
 8003f0a:	601a      	str	r2, [r3, #0]

                    /* If the block is larger than required it can be split into
                     * two. */
                    configASSERT( heapSUBTRACT_WILL_UNDERFLOW( pxBlock->xBlockSize, xWantedSize ) == 0 );
 8003f0c:	6b7b      	ldr	r3, [r7, #52]	@ 0x34
 8003f0e:	685b      	ldr	r3, [r3, #4]
 8003f10:	687a      	ldr	r2, [r7, #4]
 8003f12:	429a      	cmp	r2, r3
 8003f14:	d90b      	bls.n	8003f2e <pvPortMalloc+0x17e>
    __asm volatile
 8003f16:	f04f 0350 	mov.w	r3, #80	@ 0x50
 8003f1a:	f383 8811 	msr	BASEPRI, r3
 8003f1e:	f3bf 8f6f 	isb	sy
 8003f22:	f3bf 8f4f 	dsb	sy
 8003f26:	617b      	str	r3, [r7, #20]
}
 8003f28:	bf00      	nop
 8003f2a:	bf00      	nop
 8003f2c:	e7fd      	b.n	8003f2a <pvPortMalloc+0x17a>

                    if( ( pxBlock->xBlockSize - xWantedSize ) > heapMINIMUM_BLOCK_SIZE )
 8003f2e:	6b7b      	ldr	r3, [r7, #52]	@ 0x34
 8003f30:	685a      	ldr	r2, [r3, #4]
 8003f32:	687b      	ldr	r3, [r7, #4]
 8003f34:	1ad2      	subs	r2, r2, r3
 8003f36:	2308      	movs	r3, #8
 8003f38:	005b      	lsls	r3, r3, #1
 8003f3a:	429a      	cmp	r2, r3
 8003f3c:	d924      	bls.n	8003f88 <pvPortMalloc+0x1d8>
                    {
                        /* This block is to be split into two.  Create a new
                         * block following the number of bytes requested. The void
                         * cast is used to prevent byte alignment warnings from the
                         * compiler. */
                        pxNewBlockLink = ( void * ) ( ( ( uint8_t * ) pxBlock ) + xWantedSize );
 8003f3e:	6b7a      	ldr	r2, [r7, #52]	@ 0x34
 8003f40:	687b      	ldr	r3, [r7, #4]
 8003f42:	4413      	add	r3, r2
 8003f44:	627b      	str	r3, [r7, #36]	@ 0x24
                        configASSERT( ( ( ( size_t ) pxNewBlockLink ) & portBYTE_ALIGNMENT_MASK ) == 0 );
 8003f46:	6a7b      	ldr	r3, [r7, #36]	@ 0x24
 8003f48:	f003 0307 	and.w	r3, r3, #7
 8003f4c:	2b00      	cmp	r3, #0
 8003f4e:	d00b      	beq.n	8003f68 <pvPortMalloc+0x1b8>
    __asm volatile
 8003f50:	f04f 0350 	mov.w	r3, #80	@ 0x50
 8003f54:	f383 8811 	msr	BASEPRI, r3
 8003f58:	f3bf 8f6f 	isb	sy
 8003f5c:	f3bf 8f4f 	dsb	sy
 8003f60:	613b      	str	r3, [r7, #16]
}
 8003f62:	bf00      	nop
 8003f64:	bf00      	nop
 8003f66:	e7fd      	b.n	8003f64 <pvPortMalloc+0x1b4>

                        /* Calculate the sizes of two blocks split from the
                         * single block. */
                        pxNewBlockLink->xBlockSize = pxBlock->xBlockSize - xWantedSize;
 8003f68:	6b7b      	ldr	r3, [r7, #52]	@ 0x34
 8003f6a:	685a      	ldr	r2, [r3, #4]
 8003f6c:	687b      	ldr	r3, [r7, #4]
 8003f6e:	1ad2      	subs	r2, r2, r3
 8003f70:	6a7b      	ldr	r3, [r7, #36]	@ 0x24
 8003f72:	605a      	str	r2, [r3, #4]
                        pxBlock->xBlockSize = xWantedSize;
 8003f74:	6b7b      	ldr	r3, [r7, #52]	@ 0x34
 8003f76:	687a      	ldr	r2, [r7, #4]
 8003f78:	605a      	str	r2, [r3, #4]

                        /* Insert the new block into the list of free blocks. */
                        pxNewBlockLink->pxNextFreeBlock = pxPreviousBlock->pxNextFreeBlock;
 8003f7a:	6b3b      	ldr	r3, [r7, #48]	@ 0x30
 8003f7c:	681a      	ldr	r2, [r3, #0]
 8003f7e:	6a7b      	ldr	r3, [r7, #36]	@ 0x24
 8003f80:	601a      	str	r2, [r3, #0]
                        pxPreviousBlock->pxNextFreeBlock = heapPROTECT_BLOCK_POINTER( pxNewBlockLink );
 8003f82:	6b3b      	ldr	r3, [r7, #48]	@ 0x30
 8003f84:	6a7a      	ldr	r2, [r7, #36]	@ 0x24
 8003f86:	601a      	str	r2, [r3, #0]
                    else
                    {
                        mtCOVERAGE_TEST_MARKER();
                    }

                    xFreeBytesRemaining -= pxBlock->xBlockSize;
 8003f88:	4b1c      	ldr	r3, [pc, #112]	@ (8003ffc <pvPortMalloc+0x24c>)
 8003f8a:	681a      	ldr	r2, [r3, #0]
 8003f8c:	6b7b      	ldr	r3, [r7, #52]	@ 0x34
 8003f8e:	685b      	ldr	r3, [r3, #4]
 8003f90:	1ad3      	subs	r3, r2, r3
 8003f92:	4a1a      	ldr	r2, [pc, #104]	@ (8003ffc <pvPortMalloc+0x24c>)
 8003f94:	6013      	str	r3, [r2, #0]

                    if( xFreeBytesRemaining < xMinimumEverFreeBytesRemaining )
 8003f96:	4b19      	ldr	r3, [pc, #100]	@ (8003ffc <pvPortMalloc+0x24c>)
 8003f98:	681a      	ldr	r2, [r3, #0]
 8003f9a:	4b1c      	ldr	r3, [pc, #112]	@ (800400c <pvPortMalloc+0x25c>)
 8003f9c:	681b      	ldr	r3, [r3, #0]
 8003f9e:	429a      	cmp	r2, r3
 8003fa0:	d203      	bcs.n	8003faa <pvPortMalloc+0x1fa>
                    {
                        xMinimumEverFreeBytesRemaining = xFreeBytesRemaining;
 8003fa2:	4b16      	ldr	r3, [pc, #88]	@ (8003ffc <pvPortMalloc+0x24c>)
 8003fa4:	681b      	ldr	r3, [r3, #0]
 8003fa6:	4a19      	ldr	r2, [pc, #100]	@ (800400c <pvPortMalloc+0x25c>)
 8003fa8:	6013      	str	r3, [r2, #0]
                        mtCOVERAGE_TEST_MARKER();
                    }

                    /* The block is being returned - it is allocated and owned
                     * by the application and has no "next" block. */
                    heapALLOCATE_BLOCK( pxBlock );
 8003faa:	6b7b      	ldr	r3, [r7, #52]	@ 0x34
 8003fac:	685b      	ldr	r3, [r3, #4]
 8003fae:	f043 4200 	orr.w	r2, r3, #2147483648	@ 0x80000000
 8003fb2:	6b7b      	ldr	r3, [r7, #52]	@ 0x34
 8003fb4:	605a      	str	r2, [r3, #4]
                    pxBlock->pxNextFreeBlock = NULL;
 8003fb6:	6b7b      	ldr	r3, [r7, #52]	@ 0x34
 8003fb8:	2200      	movs	r2, #0
 8003fba:	601a      	str	r2, [r3, #0]
                    xNumberOfSuccessfulAllocations++;
 8003fbc:	4b14      	ldr	r3, [pc, #80]	@ (8004010 <pvPortMalloc+0x260>)
 8003fbe:	681b      	ldr	r3, [r3, #0]
 8003fc0:	3301      	adds	r3, #1
 8003fc2:	4a13      	ldr	r2, [pc, #76]	@ (8004010 <pvPortMalloc+0x260>)
 8003fc4:	6013      	str	r3, [r2, #0]
            mtCOVERAGE_TEST_MARKER();
        }

        traceMALLOC( pvReturn, xWantedSize );
    }
    ( void ) xTaskResumeAll();
 8003fc6:	f7fe fde7 	bl	8002b98 <xTaskResumeAll>
            mtCOVERAGE_TEST_MARKER();
        }
    }
    #endif /* if ( configUSE_MALLOC_FAILED_HOOK == 1 ) */

    configASSERT( ( ( ( size_t ) pvReturn ) & ( size_t ) portBYTE_ALIGNMENT_MASK ) == 0 );
 8003fca:	6afb      	ldr	r3, [r7, #44]	@ 0x2c
 8003fcc:	f003 0307 	and.w	r3, r3, #7
 8003fd0:	2b00      	cmp	r3, #0
 8003fd2:	d00b      	beq.n	8003fec <pvPortMalloc+0x23c>
    __asm volatile
 8003fd4:	f04f 0350 	mov.w	r3, #80	@ 0x50
 8003fd8:	f383 8811 	msr	BASEPRI, r3
 8003fdc:	f3bf 8f6f 	isb	sy
 8003fe0:	f3bf 8f4f 	dsb	sy
 8003fe4:	60fb      	str	r3, [r7, #12]
}
 8003fe6:	bf00      	nop
 8003fe8:	bf00      	nop
 8003fea:	e7fd      	b.n	8003fe8 <pvPortMalloc+0x238>
    return pvReturn;
 8003fec:	6afb      	ldr	r3, [r7, #44]	@ 0x2c
}
 8003fee:	4618      	mov	r0, r3
 8003ff0:	3738      	adds	r7, #56	@ 0x38
 8003ff2:	46bd      	mov	sp, r7
 8003ff4:	bd80      	pop	{r7, pc}
 8003ff6:	bf00      	nop
 8003ff8:	20012da0 	.word	0x20012da0
 8003ffc:	20012da4 	.word	0x20012da4
 8004000:	20012d98 	.word	0x20012d98
 8004004:	20000198 	.word	0x20000198
 8004008:	20012d97 	.word	0x20012d97
 800400c:	20012da8 	.word	0x20012da8
 8004010:	20012dac 	.word	0x20012dac

08004014 <vPortFree>:
/*-----------------------------------------------------------*/

void vPortFree( void * pv )
{
 8004014:	b580      	push	{r7, lr}
 8004016:	b088      	sub	sp, #32
 8004018:	af00      	add	r7, sp, #0
 800401a:	6078      	str	r0, [r7, #4]
    uint8_t * puc = ( uint8_t * ) pv;
 800401c:	687b      	ldr	r3, [r7, #4]
 800401e:	61fb      	str	r3, [r7, #28]
    BlockLink_t * pxLink;

    if( pv != NULL )
 8004020:	687b      	ldr	r3, [r7, #4]
 8004022:	2b00      	cmp	r3, #0
 8004024:	d060      	beq.n	80040e8 <vPortFree+0xd4>
    {
        /* The memory being freed will have an BlockLink_t structure immediately
         * before it. */
        puc -= xHeapStructSize;
 8004026:	2308      	movs	r3, #8
 8004028:	425b      	negs	r3, r3
 800402a:	69fa      	ldr	r2, [r7, #28]
 800402c:	4413      	add	r3, r2
 800402e:	61fb      	str	r3, [r7, #28]

        /* This casting is to keep the compiler from issuing warnings. */
        pxLink = ( void * ) puc;
 8004030:	69fb      	ldr	r3, [r7, #28]
 8004032:	61bb      	str	r3, [r7, #24]

        heapVALIDATE_BLOCK_POINTER( pxLink );
 8004034:	69bb      	ldr	r3, [r7, #24]
 8004036:	4a2e      	ldr	r2, [pc, #184]	@ (80040f0 <vPortFree+0xdc>)
 8004038:	4293      	cmp	r3, r2
 800403a:	d305      	bcc.n	8004048 <vPortFree+0x34>
 800403c:	69bb      	ldr	r3, [r7, #24]
 800403e:	4a2d      	ldr	r2, [pc, #180]	@ (80040f4 <vPortFree+0xe0>)
 8004040:	4293      	cmp	r3, r2
 8004042:	d801      	bhi.n	8004048 <vPortFree+0x34>
 8004044:	2301      	movs	r3, #1
 8004046:	e000      	b.n	800404a <vPortFree+0x36>
 8004048:	2300      	movs	r3, #0
 800404a:	2b00      	cmp	r3, #0
 800404c:	d10b      	bne.n	8004066 <vPortFree+0x52>
    __asm volatile
 800404e:	f04f 0350 	mov.w	r3, #80	@ 0x50
 8004052:	f383 8811 	msr	BASEPRI, r3
 8004056:	f3bf 8f6f 	isb	sy
 800405a:	f3bf 8f4f 	dsb	sy
 800405e:	617b      	str	r3, [r7, #20]
}
 8004060:	bf00      	nop
 8004062:	bf00      	nop
 8004064:	e7fd      	b.n	8004062 <vPortFree+0x4e>
        configASSERT( heapBLOCK_IS_ALLOCATED( pxLink ) != 0 );
 8004066:	69bb      	ldr	r3, [r7, #24]
 8004068:	685b      	ldr	r3, [r3, #4]
 800406a:	2b00      	cmp	r3, #0
 800406c:	db0b      	blt.n	8004086 <vPortFree+0x72>
    __asm volatile
 800406e:	f04f 0350 	mov.w	r3, #80	@ 0x50
 8004072:	f383 8811 	msr	BASEPRI, r3
 8004076:	f3bf 8f6f 	isb	sy
 800407a:	f3bf 8f4f 	dsb	sy
 800407e:	613b      	str	r3, [r7, #16]
}
 8004080:	bf00      	nop
 8004082:	bf00      	nop
 8004084:	e7fd      	b.n	8004082 <vPortFree+0x6e>
        configASSERT( pxLink->pxNextFreeBlock == NULL );
 8004086:	69bb      	ldr	r3, [r7, #24]
 8004088:	681b      	ldr	r3, [r3, #0]
 800408a:	2b00      	cmp	r3, #0
 800408c:	d00b      	beq.n	80040a6 <vPortFree+0x92>
    __asm volatile
 800408e:	f04f 0350 	mov.w	r3, #80	@ 0x50
 8004092:	f383 8811 	msr	BASEPRI, r3
 8004096:	f3bf 8f6f 	isb	sy
 800409a:	f3bf 8f4f 	dsb	sy
 800409e:	60fb      	str	r3, [r7, #12]
}
 80040a0:	bf00      	nop
 80040a2:	bf00      	nop
 80040a4:	e7fd      	b.n	80040a2 <vPortFree+0x8e>

        if( heapBLOCK_IS_ALLOCATED( pxLink ) != 0 )
 80040a6:	69bb      	ldr	r3, [r7, #24]
 80040a8:	685b      	ldr	r3, [r3, #4]
 80040aa:	2b00      	cmp	r3, #0
 80040ac:	da1c      	bge.n	80040e8 <vPortFree+0xd4>
        {
            if( pxLink->pxNextFreeBlock == NULL )
 80040ae:	69bb      	ldr	r3, [r7, #24]
 80040b0:	681b      	ldr	r3, [r3, #0]
 80040b2:	2b00      	cmp	r3, #0
 80040b4:	d118      	bne.n	80040e8 <vPortFree+0xd4>
            {
                /* The block is being returned to the heap - it is no longer
                 * allocated. */
                heapFREE_BLOCK( pxLink );
 80040b6:	69bb      	ldr	r3, [r7, #24]
 80040b8:	685b      	ldr	r3, [r3, #4]
 80040ba:	f023 4200 	bic.w	r2, r3, #2147483648	@ 0x80000000
 80040be:	69bb      	ldr	r3, [r7, #24]
 80040c0:	605a      	str	r2, [r3, #4]
                        ( void ) memset( puc + xHeapStructSize, 0, pxLink->xBlockSize - xHeapStructSize );
                    }
                }
                #endif

                vTaskSuspendAll();
 80040c2:	f7fe fd57 	bl	8002b74 <vTaskSuspendAll>
                {
                    /* Add this block to the list of free blocks. */
                    xFreeBytesRemaining += pxLink->xBlockSize;
 80040c6:	69bb      	ldr	r3, [r7, #24]
 80040c8:	685a      	ldr	r2, [r3, #4]
 80040ca:	4b0b      	ldr	r3, [pc, #44]	@ (80040f8 <vPortFree+0xe4>)
 80040cc:	681b      	ldr	r3, [r3, #0]
 80040ce:	4413      	add	r3, r2
 80040d0:	4a09      	ldr	r2, [pc, #36]	@ (80040f8 <vPortFree+0xe4>)
 80040d2:	6013      	str	r3, [r2, #0]
                    traceFREE( pv, pxLink->xBlockSize );
                    prvInsertBlockIntoFreeList( ( ( BlockLink_t * ) pxLink ) );
 80040d4:	69b8      	ldr	r0, [r7, #24]
 80040d6:	f000 f86d 	bl	80041b4 <prvInsertBlockIntoFreeList>
                    xNumberOfSuccessfulFrees++;
 80040da:	4b08      	ldr	r3, [pc, #32]	@ (80040fc <vPortFree+0xe8>)
 80040dc:	681b      	ldr	r3, [r3, #0]
 80040de:	3301      	adds	r3, #1
 80040e0:	4a06      	ldr	r2, [pc, #24]	@ (80040fc <vPortFree+0xe8>)
 80040e2:	6013      	str	r3, [r2, #0]
                }
                ( void ) xTaskResumeAll();
 80040e4:	f7fe fd58 	bl	8002b98 <xTaskResumeAll>
        else
        {
            mtCOVERAGE_TEST_MARKER();
        }
    }
}
 80040e8:	bf00      	nop
 80040ea:	3720      	adds	r7, #32
 80040ec:	46bd      	mov	sp, r7
 80040ee:	bd80      	pop	{r7, pc}
 80040f0:	20000198 	.word	0x20000198
 80040f4:	20012d97 	.word	0x20012d97
 80040f8:	20012da4 	.word	0x20012da4
 80040fc:	20012db0 	.word	0x20012db0

08004100 <prvHeapInit>:
    return pv;
}
/*-----------------------------------------------------------*/

static void prvHeapInit( void ) /* PRIVILEGED_FUNCTION */
{
 8004100:	b480      	push	{r7}
 8004102:	b085      	sub	sp, #20
 8004104:	af00      	add	r7, sp, #0
    BlockLink_t * pxFirstFreeBlock;
    portPOINTER_SIZE_TYPE uxStartAddress, uxEndAddress;
    size_t xTotalHeapSize = configTOTAL_HEAP_SIZE;
 8004106:	f44f 3396 	mov.w	r3, #76800	@ 0x12c00
 800410a:	60bb      	str	r3, [r7, #8]

    /* Ensure the heap starts on a correctly aligned boundary. */
    uxStartAddress = ( portPOINTER_SIZE_TYPE ) ucHeap;
 800410c:	4b24      	ldr	r3, [pc, #144]	@ (80041a0 <prvHeapInit+0xa0>)
 800410e:	60fb      	str	r3, [r7, #12]

    if( ( uxStartAddress & portBYTE_ALIGNMENT_MASK ) != 0 )
 8004110:	68fb      	ldr	r3, [r7, #12]
 8004112:	f003 0307 	and.w	r3, r3, #7
 8004116:	2b00      	cmp	r3, #0
 8004118:	d00c      	beq.n	8004134 <prvHeapInit+0x34>
    {
        uxStartAddress += ( portBYTE_ALIGNMENT - 1 );
 800411a:	68fb      	ldr	r3, [r7, #12]
 800411c:	3307      	adds	r3, #7
 800411e:	60fb      	str	r3, [r7, #12]
        uxStartAddress &= ~( ( portPOINTER_SIZE_TYPE ) portBYTE_ALIGNMENT_MASK );
 8004120:	68fb      	ldr	r3, [r7, #12]
 8004122:	f023 0307 	bic.w	r3, r3, #7
 8004126:	60fb      	str	r3, [r7, #12]
        xTotalHeapSize -= ( size_t ) ( uxStartAddress - ( portPOINTER_SIZE_TYPE ) ucHeap );
 8004128:	68ba      	ldr	r2, [r7, #8]
 800412a:	68fb      	ldr	r3, [r7, #12]
 800412c:	1ad3      	subs	r3, r2, r3
 800412e:	4a1c      	ldr	r2, [pc, #112]	@ (80041a0 <prvHeapInit+0xa0>)
 8004130:	4413      	add	r3, r2
 8004132:	60bb      	str	r3, [r7, #8]
    }
    #endif

    /* xStart is used to hold a pointer to the first item in the list of free
     * blocks.  The void cast is used to prevent compiler warnings. */
    xStart.pxNextFreeBlock = ( void * ) heapPROTECT_BLOCK_POINTER( uxStartAddress );
 8004134:	68fb      	ldr	r3, [r7, #12]
 8004136:	4a1b      	ldr	r2, [pc, #108]	@ (80041a4 <prvHeapInit+0xa4>)
 8004138:	6013      	str	r3, [r2, #0]
    xStart.xBlockSize = ( size_t ) 0;
 800413a:	4b1a      	ldr	r3, [pc, #104]	@ (80041a4 <prvHeapInit+0xa4>)
 800413c:	2200      	movs	r2, #0
 800413e:	605a      	str	r2, [r3, #4]

    /* pxEnd is used to mark the end of the list of free blocks and is inserted
     * at the end of the heap space. */
    uxEndAddress = uxStartAddress + ( portPOINTER_SIZE_TYPE ) xTotalHeapSize;
 8004140:	68fa      	ldr	r2, [r7, #12]
 8004142:	68bb      	ldr	r3, [r7, #8]
 8004144:	4413      	add	r3, r2
 8004146:	607b      	str	r3, [r7, #4]
    uxEndAddress -= ( portPOINTER_SIZE_TYPE ) xHeapStructSize;
 8004148:	2208      	movs	r2, #8
 800414a:	687b      	ldr	r3, [r7, #4]
 800414c:	1a9b      	subs	r3, r3, r2
 800414e:	607b      	str	r3, [r7, #4]
    uxEndAddress &= ~( ( portPOINTER_SIZE_TYPE ) portBYTE_ALIGNMENT_MASK );
 8004150:	687b      	ldr	r3, [r7, #4]
 8004152:	f023 0307 	bic.w	r3, r3, #7
 8004156:	607b      	str	r3, [r7, #4]
    pxEnd = ( BlockLink_t * ) uxEndAddress;
 8004158:	687b      	ldr	r3, [r7, #4]
 800415a:	4a13      	ldr	r2, [pc, #76]	@ (80041a8 <prvHeapInit+0xa8>)
 800415c:	6013      	str	r3, [r2, #0]
    pxEnd->xBlockSize = 0;
 800415e:	4b12      	ldr	r3, [pc, #72]	@ (80041a8 <prvHeapInit+0xa8>)
 8004160:	681b      	ldr	r3, [r3, #0]
 8004162:	2200      	movs	r2, #0
 8004164:	605a      	str	r2, [r3, #4]
    pxEnd->pxNextFreeBlock = heapPROTECT_BLOCK_POINTER( NULL );
 8004166:	4b10      	ldr	r3, [pc, #64]	@ (80041a8 <prvHeapInit+0xa8>)
 8004168:	681b      	ldr	r3, [r3, #0]
 800416a:	2200      	movs	r2, #0
 800416c:	601a      	str	r2, [r3, #0]

    /* To start with there is a single free block that is sized to take up the
     * entire heap space, minus the space taken by pxEnd. */
    pxFirstFreeBlock = ( BlockLink_t * ) uxStartAddress;
 800416e:	68fb      	ldr	r3, [r7, #12]
 8004170:	603b      	str	r3, [r7, #0]
    pxFirstFreeBlock->xBlockSize = ( size_t ) ( uxEndAddress - ( portPOINTER_SIZE_TYPE ) pxFirstFreeBlock );
 8004172:	683b      	ldr	r3, [r7, #0]
 8004174:	687a      	ldr	r2, [r7, #4]
 8004176:	1ad2      	subs	r2, r2, r3
 8004178:	683b      	ldr	r3, [r7, #0]
 800417a:	605a      	str	r2, [r3, #4]
    pxFirstFreeBlock->pxNextFreeBlock = heapPROTECT_BLOCK_POINTER( pxEnd );
 800417c:	4b0a      	ldr	r3, [pc, #40]	@ (80041a8 <prvHeapInit+0xa8>)
 800417e:	681a      	ldr	r2, [r3, #0]
 8004180:	683b      	ldr	r3, [r7, #0]
 8004182:	601a      	str	r2, [r3, #0]

    /* Only one block exists - and it covers the entire usable heap space. */
    xMinimumEverFreeBytesRemaining = pxFirstFreeBlock->xBlockSize;
 8004184:	683b      	ldr	r3, [r7, #0]
 8004186:	685b      	ldr	r3, [r3, #4]
 8004188:	4a08      	ldr	r2, [pc, #32]	@ (80041ac <prvHeapInit+0xac>)
 800418a:	6013      	str	r3, [r2, #0]
    xFreeBytesRemaining = pxFirstFreeBlock->xBlockSize;
 800418c:	683b      	ldr	r3, [r7, #0]
 800418e:	685b      	ldr	r3, [r3, #4]
 8004190:	4a07      	ldr	r2, [pc, #28]	@ (80041b0 <prvHeapInit+0xb0>)
 8004192:	6013      	str	r3, [r2, #0]
}
 8004194:	bf00      	nop
 8004196:	3714      	adds	r7, #20
 8004198:	46bd      	mov	sp, r7
 800419a:	f85d 7b04 	ldr.w	r7, [sp], #4
 800419e:	4770      	bx	lr
 80041a0:	20000198 	.word	0x20000198
 80041a4:	20012d98 	.word	0x20012d98
 80041a8:	20012da0 	.word	0x20012da0
 80041ac:	20012da8 	.word	0x20012da8
 80041b0:	20012da4 	.word	0x20012da4

080041b4 <prvInsertBlockIntoFreeList>:
/*-----------------------------------------------------------*/

static void prvInsertBlockIntoFreeList( BlockLink_t * pxBlockToInsert ) /* PRIVILEGED_FUNCTION */
{
 80041b4:	b480      	push	{r7}
 80041b6:	b087      	sub	sp, #28
 80041b8:	af00      	add	r7, sp, #0
 80041ba:	6078      	str	r0, [r7, #4]
    BlockLink_t * pxIterator;
    uint8_t * puc;

    /* Iterate through the list until a block is found that has a higher address
     * than the block being inserted. */
    for( pxIterator = &xStart; heapPROTECT_BLOCK_POINTER( pxIterator->pxNextFreeBlock ) < pxBlockToInsert; pxIterator = heapPROTECT_BLOCK_POINTER( pxIterator->pxNextFreeBlock ) )
 80041bc:	4b36      	ldr	r3, [pc, #216]	@ (8004298 <prvInsertBlockIntoFreeList+0xe4>)
 80041be:	617b      	str	r3, [r7, #20]
 80041c0:	e002      	b.n	80041c8 <prvInsertBlockIntoFreeList+0x14>
 80041c2:	697b      	ldr	r3, [r7, #20]
 80041c4:	681b      	ldr	r3, [r3, #0]
 80041c6:	617b      	str	r3, [r7, #20]
 80041c8:	697b      	ldr	r3, [r7, #20]
 80041ca:	681b      	ldr	r3, [r3, #0]
 80041cc:	687a      	ldr	r2, [r7, #4]
 80041ce:	429a      	cmp	r2, r3
 80041d0:	d8f7      	bhi.n	80041c2 <prvInsertBlockIntoFreeList+0xe>
    {
        /* Nothing to do here, just iterate to the right position. */
    }

    if( pxIterator != &xStart )
 80041d2:	697b      	ldr	r3, [r7, #20]
 80041d4:	4a30      	ldr	r2, [pc, #192]	@ (8004298 <prvInsertBlockIntoFreeList+0xe4>)
 80041d6:	4293      	cmp	r3, r2
 80041d8:	d018      	beq.n	800420c <prvInsertBlockIntoFreeList+0x58>
    {
        heapVALIDATE_BLOCK_POINTER( pxIterator );
 80041da:	697b      	ldr	r3, [r7, #20]
 80041dc:	4a2f      	ldr	r2, [pc, #188]	@ (800429c <prvInsertBlockIntoFreeList+0xe8>)
 80041de:	4293      	cmp	r3, r2
 80041e0:	d305      	bcc.n	80041ee <prvInsertBlockIntoFreeList+0x3a>
 80041e2:	697b      	ldr	r3, [r7, #20]
 80041e4:	4a2e      	ldr	r2, [pc, #184]	@ (80042a0 <prvInsertBlockIntoFreeList+0xec>)
 80041e6:	4293      	cmp	r3, r2
 80041e8:	d801      	bhi.n	80041ee <prvInsertBlockIntoFreeList+0x3a>
 80041ea:	2301      	movs	r3, #1
 80041ec:	e000      	b.n	80041f0 <prvInsertBlockIntoFreeList+0x3c>
 80041ee:	2300      	movs	r3, #0
 80041f0:	2b00      	cmp	r3, #0
 80041f2:	d10b      	bne.n	800420c <prvInsertBlockIntoFreeList+0x58>
    __asm volatile
 80041f4:	f04f 0350 	mov.w	r3, #80	@ 0x50
 80041f8:	f383 8811 	msr	BASEPRI, r3
 80041fc:	f3bf 8f6f 	isb	sy
 8004200:	f3bf 8f4f 	dsb	sy
 8004204:	60fb      	str	r3, [r7, #12]
}
 8004206:	bf00      	nop
 8004208:	bf00      	nop
 800420a:	e7fd      	b.n	8004208 <prvInsertBlockIntoFreeList+0x54>
    }

    /* Do the block being inserted, and the block it is being inserted after
     * make a contiguous block of memory? */
    puc = ( uint8_t * ) pxIterator;
 800420c:	697b      	ldr	r3, [r7, #20]
 800420e:	613b      	str	r3, [r7, #16]

    if( ( puc + pxIterator->xBlockSize ) == ( uint8_t * ) pxBlockToInsert )
 8004210:	697b      	ldr	r3, [r7, #20]
 8004212:	685b      	ldr	r3, [r3, #4]
 8004214:	693a      	ldr	r2, [r7, #16]
 8004216:	4413      	add	r3, r2
 8004218:	687a      	ldr	r2, [r7, #4]
 800421a:	429a      	cmp	r2, r3
 800421c:	d108      	bne.n	8004230 <prvInsertBlockIntoFreeList+0x7c>
    {
        pxIterator->xBlockSize += pxBlockToInsert->xBlockSize;
 800421e:	697b      	ldr	r3, [r7, #20]
 8004220:	685a      	ldr	r2, [r3, #4]
 8004222:	687b      	ldr	r3, [r7, #4]
 8004224:	685b      	ldr	r3, [r3, #4]
 8004226:	441a      	add	r2, r3
 8004228:	697b      	ldr	r3, [r7, #20]
 800422a:	605a      	str	r2, [r3, #4]
        pxBlockToInsert = pxIterator;
 800422c:	697b      	ldr	r3, [r7, #20]
 800422e:	607b      	str	r3, [r7, #4]
        mtCOVERAGE_TEST_MARKER();
    }

    /* Do the block being inserted, and the block it is being inserted before
     * make a contiguous block of memory? */
    puc = ( uint8_t * ) pxBlockToInsert;
 8004230:	687b      	ldr	r3, [r7, #4]
 8004232:	613b      	str	r3, [r7, #16]

    if( ( puc + pxBlockToInsert->xBlockSize ) == ( uint8_t * ) heapPROTECT_BLOCK_POINTER( pxIterator->pxNextFreeBlock ) )
 8004234:	687b      	ldr	r3, [r7, #4]
 8004236:	685b      	ldr	r3, [r3, #4]
 8004238:	693a      	ldr	r2, [r7, #16]
 800423a:	441a      	add	r2, r3
 800423c:	697b      	ldr	r3, [r7, #20]
 800423e:	681b      	ldr	r3, [r3, #0]
 8004240:	429a      	cmp	r2, r3
 8004242:	d118      	bne.n	8004276 <prvInsertBlockIntoFreeList+0xc2>
    {
        if( heapPROTECT_BLOCK_POINTER( pxIterator->pxNextFreeBlock ) != pxEnd )
 8004244:	697b      	ldr	r3, [r7, #20]
 8004246:	681a      	ldr	r2, [r3, #0]
 8004248:	4b16      	ldr	r3, [pc, #88]	@ (80042a4 <prvInsertBlockIntoFreeList+0xf0>)
 800424a:	681b      	ldr	r3, [r3, #0]
 800424c:	429a      	cmp	r2, r3
 800424e:	d00d      	beq.n	800426c <prvInsertBlockIntoFreeList+0xb8>
        {
            /* Form one big block from the two blocks. */
            pxBlockToInsert->xBlockSize += heapPROTECT_BLOCK_POINTER( pxIterator->pxNextFreeBlock )->xBlockSize;
 8004250:	687b      	ldr	r3, [r7, #4]
 8004252:	685a      	ldr	r2, [r3, #4]
 8004254:	697b      	ldr	r3, [r7, #20]
 8004256:	681b      	ldr	r3, [r3, #0]
 8004258:	685b      	ldr	r3, [r3, #4]
 800425a:	441a      	add	r2, r3
 800425c:	687b      	ldr	r3, [r7, #4]
 800425e:	605a      	str	r2, [r3, #4]
            pxBlockToInsert->pxNextFreeBlock = heapPROTECT_BLOCK_POINTER( pxIterator->pxNextFreeBlock )->pxNextFreeBlock;
 8004260:	697b      	ldr	r3, [r7, #20]
 8004262:	681b      	ldr	r3, [r3, #0]
 8004264:	681a      	ldr	r2, [r3, #0]
 8004266:	687b      	ldr	r3, [r7, #4]
 8004268:	601a      	str	r2, [r3, #0]
 800426a:	e008      	b.n	800427e <prvInsertBlockIntoFreeList+0xca>
        }
        else
        {
            pxBlockToInsert->pxNextFreeBlock = heapPROTECT_BLOCK_POINTER( pxEnd );
 800426c:	4b0d      	ldr	r3, [pc, #52]	@ (80042a4 <prvInsertBlockIntoFreeList+0xf0>)
 800426e:	681a      	ldr	r2, [r3, #0]
 8004270:	687b      	ldr	r3, [r7, #4]
 8004272:	601a      	str	r2, [r3, #0]
 8004274:	e003      	b.n	800427e <prvInsertBlockIntoFreeList+0xca>
        }
    }
    else
    {
        pxBlockToInsert->pxNextFreeBlock = pxIterator->pxNextFreeBlock;
 8004276:	697b      	ldr	r3, [r7, #20]
 8004278:	681a      	ldr	r2, [r3, #0]
 800427a:	687b      	ldr	r3, [r7, #4]
 800427c:	601a      	str	r2, [r3, #0]

    /* If the block being inserted plugged a gab, so was merged with the block
     * before and the block after, then it's pxNextFreeBlock pointer will have
     * already been set, and should not be set here as that would make it point
     * to itself. */
    if( pxIterator != pxBlockToInsert )
 800427e:	697a      	ldr	r2, [r7, #20]
 8004280:	687b      	ldr	r3, [r7, #4]
 8004282:	429a      	cmp	r2, r3
 8004284:	d002      	beq.n	800428c <prvInsertBlockIntoFreeList+0xd8>
    {
        pxIterator->pxNextFreeBlock = heapPROTECT_BLOCK_POINTER( pxBlockToInsert );
 8004286:	697b      	ldr	r3, [r7, #20]
 8004288:	687a      	ldr	r2, [r7, #4]
 800428a:	601a      	str	r2, [r3, #0]
    }
    else
    {
        mtCOVERAGE_TEST_MARKER();
    }
}
 800428c:	bf00      	nop
 800428e:	371c      	adds	r7, #28
 8004290:	46bd      	mov	sp, r7
 8004292:	f85d 7b04 	ldr.w	r7, [sp], #4
 8004296:	4770      	bx	lr
 8004298:	20012d98 	.word	0x20012d98
 800429c:	20000198 	.word	0x20000198
 80042a0:	20012d97 	.word	0x20012d97
 80042a4:	20012da0 	.word	0x20012da0

080042a8 <_cbSendSystemDesc>:
*       _cbSendSystemDesc()
*
*  Function description
*    Sends SystemView description strings.
*/
static void _cbSendSystemDesc(void) {
 80042a8:	b580      	push	{r7, lr}
 80042aa:	af00      	add	r7, sp, #0
  SEGGER_SYSVIEW_SendSysDesc("N="SYSVIEW_APP_NAME",D="SYSVIEW_DEVICE_NAME",O=FreeRTOS");
 80042ac:	4803      	ldr	r0, [pc, #12]	@ (80042bc <_cbSendSystemDesc+0x14>)
 80042ae:	f001 fb27 	bl	8005900 <SEGGER_SYSVIEW_SendSysDesc>
  SEGGER_SYSVIEW_SendSysDesc("I#15=SysTick");
 80042b2:	4803      	ldr	r0, [pc, #12]	@ (80042c0 <_cbSendSystemDesc+0x18>)
 80042b4:	f001 fb24 	bl	8005900 <SEGGER_SYSVIEW_SendSysDesc>
}
 80042b8:	bf00      	nop
 80042ba:	bd80      	pop	{r7, pc}
 80042bc:	080061e0 	.word	0x080061e0
 80042c0:	08006224 	.word	0x08006224

080042c4 <SEGGER_SYSVIEW_Conf>:
*
*       Global functions
*
**********************************************************************
*/
void SEGGER_SYSVIEW_Conf(void) {
 80042c4:	b580      	push	{r7, lr}
 80042c6:	af00      	add	r7, sp, #0
  SEGGER_SYSVIEW_Init(SYSVIEW_TIMESTAMP_FREQ, SYSVIEW_CPU_FREQ, 
 80042c8:	4b06      	ldr	r3, [pc, #24]	@ (80042e4 <SEGGER_SYSVIEW_Conf+0x20>)
 80042ca:	6818      	ldr	r0, [r3, #0]
 80042cc:	4b05      	ldr	r3, [pc, #20]	@ (80042e4 <SEGGER_SYSVIEW_Conf+0x20>)
 80042ce:	6819      	ldr	r1, [r3, #0]
 80042d0:	4b05      	ldr	r3, [pc, #20]	@ (80042e8 <SEGGER_SYSVIEW_Conf+0x24>)
 80042d2:	4a06      	ldr	r2, [pc, #24]	@ (80042ec <SEGGER_SYSVIEW_Conf+0x28>)
 80042d4:	f000 fe22 	bl	8004f1c <SEGGER_SYSVIEW_Init>
                      &SYSVIEW_X_OS_TraceAPI, _cbSendSystemDesc);
  SEGGER_SYSVIEW_SetRAMBase(SYSVIEW_RAM_BASE);
 80042d8:	f04f 5080 	mov.w	r0, #268435456	@ 0x10000000
 80042dc:	f000 fe62 	bl	8004fa4 <SEGGER_SYSVIEW_SetRAMBase>
}
 80042e0:	bf00      	nop
 80042e2:	bd80      	pop	{r7, pc}
 80042e4:	20000000 	.word	0x20000000
 80042e8:	080042a9 	.word	0x080042a9
 80042ec:	080062c4 	.word	0x080062c4

080042f0 <_cbSendTaskList>:
*  Function description
*    This function is part of the link between FreeRTOS and SYSVIEW.
*    Called from SystemView when asked by the host, it uses SYSVIEW
*    functions to send the entire task list to the host.
*/
static void _cbSendTaskList(void) {
 80042f0:	b5f0      	push	{r4, r5, r6, r7, lr}
 80042f2:	b085      	sub	sp, #20
 80042f4:	af02      	add	r7, sp, #8
  unsigned n;

  for (n = 0; n < _NumTasks; n++) {
 80042f6:	2300      	movs	r3, #0
 80042f8:	607b      	str	r3, [r7, #4]
 80042fa:	e033      	b.n	8004364 <_cbSendTaskList+0x74>
#if INCLUDE_uxTaskGetStackHighWaterMark // Report Task Stack High Watermark
    _aTasks[n].uStackHighWaterMark = uxTaskGetStackHighWaterMark((TaskHandle_t)_aTasks[n].xHandle);
#endif
    SYSVIEW_SendTaskInfo((U32)_aTasks[n].xHandle, _aTasks[n].pcTaskName, (unsigned)_aTasks[n].uxCurrentPriority, (U32)_aTasks[n].pxStack, (unsigned)_aTasks[n].uStackHighWaterMark);
 80042fc:	491e      	ldr	r1, [pc, #120]	@ (8004378 <_cbSendTaskList+0x88>)
 80042fe:	687a      	ldr	r2, [r7, #4]
 8004300:	4613      	mov	r3, r2
 8004302:	009b      	lsls	r3, r3, #2
 8004304:	4413      	add	r3, r2
 8004306:	009b      	lsls	r3, r3, #2
 8004308:	440b      	add	r3, r1
 800430a:	6818      	ldr	r0, [r3, #0]
 800430c:	491a      	ldr	r1, [pc, #104]	@ (8004378 <_cbSendTaskList+0x88>)
 800430e:	687a      	ldr	r2, [r7, #4]
 8004310:	4613      	mov	r3, r2
 8004312:	009b      	lsls	r3, r3, #2
 8004314:	4413      	add	r3, r2
 8004316:	009b      	lsls	r3, r3, #2
 8004318:	440b      	add	r3, r1
 800431a:	3304      	adds	r3, #4
 800431c:	6819      	ldr	r1, [r3, #0]
 800431e:	4c16      	ldr	r4, [pc, #88]	@ (8004378 <_cbSendTaskList+0x88>)
 8004320:	687a      	ldr	r2, [r7, #4]
 8004322:	4613      	mov	r3, r2
 8004324:	009b      	lsls	r3, r3, #2
 8004326:	4413      	add	r3, r2
 8004328:	009b      	lsls	r3, r3, #2
 800432a:	4423      	add	r3, r4
 800432c:	3308      	adds	r3, #8
 800432e:	681c      	ldr	r4, [r3, #0]
 8004330:	4d11      	ldr	r5, [pc, #68]	@ (8004378 <_cbSendTaskList+0x88>)
 8004332:	687a      	ldr	r2, [r7, #4]
 8004334:	4613      	mov	r3, r2
 8004336:	009b      	lsls	r3, r3, #2
 8004338:	4413      	add	r3, r2
 800433a:	009b      	lsls	r3, r3, #2
 800433c:	442b      	add	r3, r5
 800433e:	330c      	adds	r3, #12
 8004340:	681d      	ldr	r5, [r3, #0]
 8004342:	4e0d      	ldr	r6, [pc, #52]	@ (8004378 <_cbSendTaskList+0x88>)
 8004344:	687a      	ldr	r2, [r7, #4]
 8004346:	4613      	mov	r3, r2
 8004348:	009b      	lsls	r3, r3, #2
 800434a:	4413      	add	r3, r2
 800434c:	009b      	lsls	r3, r3, #2
 800434e:	4433      	add	r3, r6
 8004350:	3310      	adds	r3, #16
 8004352:	681b      	ldr	r3, [r3, #0]
 8004354:	9300      	str	r3, [sp, #0]
 8004356:	462b      	mov	r3, r5
 8004358:	4622      	mov	r2, r4
 800435a:	f000 f979 	bl	8004650 <SYSVIEW_SendTaskInfo>
  for (n = 0; n < _NumTasks; n++) {
 800435e:	687b      	ldr	r3, [r7, #4]
 8004360:	3301      	adds	r3, #1
 8004362:	607b      	str	r3, [r7, #4]
 8004364:	4b05      	ldr	r3, [pc, #20]	@ (800437c <_cbSendTaskList+0x8c>)
 8004366:	681b      	ldr	r3, [r3, #0]
 8004368:	687a      	ldr	r2, [r7, #4]
 800436a:	429a      	cmp	r2, r3
 800436c:	d3c6      	bcc.n	80042fc <_cbSendTaskList+0xc>
  }
}
 800436e:	bf00      	nop
 8004370:	bf00      	nop
 8004372:	370c      	adds	r7, #12
 8004374:	46bd      	mov	sp, r7
 8004376:	bdf0      	pop	{r4, r5, r6, r7, pc}
 8004378:	20012db4 	.word	0x20012db4
 800437c:	20012e54 	.word	0x20012e54

08004380 <_cbGetTime>:
*  Function description
*    This function is part of the link between FreeRTOS and SYSVIEW.
*    Called from SystemView when asked by the host, returns the
*    current system time in micro seconds.
*/
static U64 _cbGetTime(void) {
 8004380:	e92d 4fb0 	stmdb	sp!, {r4, r5, r7, r8, r9, sl, fp, lr}
 8004384:	b082      	sub	sp, #8
 8004386:	af00      	add	r7, sp, #0
    Time = xTaskGetTickCountFromISR();
  } else {
    Time = xTaskGetTickCount();
  }
#else
  Time = xTaskGetTickCountFromISR();
 8004388:	f7fe fd18 	bl	8002dbc <xTaskGetTickCountFromISR>
 800438c:	4603      	mov	r3, r0
 800438e:	2200      	movs	r2, #0
 8004390:	469a      	mov	sl, r3
 8004392:	4693      	mov	fp, r2
 8004394:	e9c7 ab00 	strd	sl, fp, [r7]
#endif
  Time *= portTICK_PERIOD_MS;
  Time *= 1000;
 8004398:	e9d7 0100 	ldrd	r0, r1, [r7]
 800439c:	4602      	mov	r2, r0
 800439e:	460b      	mov	r3, r1
 80043a0:	f04f 0a00 	mov.w	sl, #0
 80043a4:	f04f 0b00 	mov.w	fp, #0
 80043a8:	ea4f 1b43 	mov.w	fp, r3, lsl #5
 80043ac:	ea4b 6bd2 	orr.w	fp, fp, r2, lsr #27
 80043b0:	ea4f 1a42 	mov.w	sl, r2, lsl #5
 80043b4:	4652      	mov	r2, sl
 80043b6:	465b      	mov	r3, fp
 80043b8:	1a14      	subs	r4, r2, r0
 80043ba:	eb63 0501 	sbc.w	r5, r3, r1
 80043be:	f04f 0200 	mov.w	r2, #0
 80043c2:	f04f 0300 	mov.w	r3, #0
 80043c6:	00ab      	lsls	r3, r5, #2
 80043c8:	ea43 7394 	orr.w	r3, r3, r4, lsr #30
 80043cc:	00a2      	lsls	r2, r4, #2
 80043ce:	4614      	mov	r4, r2
 80043d0:	461d      	mov	r5, r3
 80043d2:	eb14 0800 	adds.w	r8, r4, r0
 80043d6:	eb45 0901 	adc.w	r9, r5, r1
 80043da:	f04f 0200 	mov.w	r2, #0
 80043de:	f04f 0300 	mov.w	r3, #0
 80043e2:	ea4f 03c9 	mov.w	r3, r9, lsl #3
 80043e6:	ea43 7358 	orr.w	r3, r3, r8, lsr #29
 80043ea:	ea4f 02c8 	mov.w	r2, r8, lsl #3
 80043ee:	4690      	mov	r8, r2
 80043f0:	4699      	mov	r9, r3
 80043f2:	e9c7 8900 	strd	r8, r9, [r7]
  return Time;
 80043f6:	e9d7 2300 	ldrd	r2, r3, [r7]
}
 80043fa:	4610      	mov	r0, r2
 80043fc:	4619      	mov	r1, r3
 80043fe:	3708      	adds	r7, #8
 8004400:	46bd      	mov	sp, r7
 8004402:	e8bd 8fb0 	ldmia.w	sp!, {r4, r5, r7, r8, r9, sl, fp, pc}
	...

08004408 <SYSVIEW_AddTask>:
*       SYSVIEW_AddTask()
*
*  Function description
*    Add a task to the internal list and record its information.
*/
void SYSVIEW_AddTask(U32 xHandle, const char* pcTaskName, unsigned uxCurrentPriority, U32  pxStack, unsigned uStackHighWaterMark) {
 8004408:	b580      	push	{r7, lr}
 800440a:	b086      	sub	sp, #24
 800440c:	af02      	add	r7, sp, #8
 800440e:	60f8      	str	r0, [r7, #12]
 8004410:	60b9      	str	r1, [r7, #8]
 8004412:	607a      	str	r2, [r7, #4]
 8004414:	603b      	str	r3, [r7, #0]
  
  if (memcmp(pcTaskName, "IDLE", 5) == 0) {
 8004416:	2205      	movs	r2, #5
 8004418:	492b      	ldr	r1, [pc, #172]	@ (80044c8 <SYSVIEW_AddTask+0xc0>)
 800441a:	68b8      	ldr	r0, [r7, #8]
 800441c:	f001 fe68 	bl	80060f0 <memcmp>
 8004420:	4603      	mov	r3, r0
 8004422:	2b00      	cmp	r3, #0
 8004424:	d04b      	beq.n	80044be <SYSVIEW_AddTask+0xb6>
    return;
  }
  
  if (_NumTasks >= SYSVIEW_FREERTOS_MAX_NOF_TASKS) {
 8004426:	4b29      	ldr	r3, [pc, #164]	@ (80044cc <SYSVIEW_AddTask+0xc4>)
 8004428:	681b      	ldr	r3, [r3, #0]
 800442a:	2b07      	cmp	r3, #7
 800442c:	d903      	bls.n	8004436 <SYSVIEW_AddTask+0x2e>
    SEGGER_SYSVIEW_Warn("SYSTEMVIEW: Could not record task information. Maximum number of tasks reached.");
 800442e:	4828      	ldr	r0, [pc, #160]	@ (80044d0 <SYSVIEW_AddTask+0xc8>)
 8004430:	f001 fe02 	bl	8006038 <SEGGER_SYSVIEW_Warn>
    return;
 8004434:	e044      	b.n	80044c0 <SYSVIEW_AddTask+0xb8>
  }

  _aTasks[_NumTasks].xHandle = xHandle;
 8004436:	4b25      	ldr	r3, [pc, #148]	@ (80044cc <SYSVIEW_AddTask+0xc4>)
 8004438:	681a      	ldr	r2, [r3, #0]
 800443a:	4926      	ldr	r1, [pc, #152]	@ (80044d4 <SYSVIEW_AddTask+0xcc>)
 800443c:	4613      	mov	r3, r2
 800443e:	009b      	lsls	r3, r3, #2
 8004440:	4413      	add	r3, r2
 8004442:	009b      	lsls	r3, r3, #2
 8004444:	440b      	add	r3, r1
 8004446:	68fa      	ldr	r2, [r7, #12]
 8004448:	601a      	str	r2, [r3, #0]
  _aTasks[_NumTasks].pcTaskName = pcTaskName;
 800444a:	4b20      	ldr	r3, [pc, #128]	@ (80044cc <SYSVIEW_AddTask+0xc4>)
 800444c:	681a      	ldr	r2, [r3, #0]
 800444e:	4921      	ldr	r1, [pc, #132]	@ (80044d4 <SYSVIEW_AddTask+0xcc>)
 8004450:	4613      	mov	r3, r2
 8004452:	009b      	lsls	r3, r3, #2
 8004454:	4413      	add	r3, r2
 8004456:	009b      	lsls	r3, r3, #2
 8004458:	440b      	add	r3, r1
 800445a:	3304      	adds	r3, #4
 800445c:	68ba      	ldr	r2, [r7, #8]
 800445e:	601a      	str	r2, [r3, #0]
  _aTasks[_NumTasks].uxCurrentPriority = uxCurrentPriority;
 8004460:	4b1a      	ldr	r3, [pc, #104]	@ (80044cc <SYSVIEW_AddTask+0xc4>)
 8004462:	681a      	ldr	r2, [r3, #0]
 8004464:	491b      	ldr	r1, [pc, #108]	@ (80044d4 <SYSVIEW_AddTask+0xcc>)
 8004466:	4613      	mov	r3, r2
 8004468:	009b      	lsls	r3, r3, #2
 800446a:	4413      	add	r3, r2
 800446c:	009b      	lsls	r3, r3, #2
 800446e:	440b      	add	r3, r1
 8004470:	3308      	adds	r3, #8
 8004472:	687a      	ldr	r2, [r7, #4]
 8004474:	601a      	str	r2, [r3, #0]
  _aTasks[_NumTasks].pxStack = pxStack;
 8004476:	4b15      	ldr	r3, [pc, #84]	@ (80044cc <SYSVIEW_AddTask+0xc4>)
 8004478:	681a      	ldr	r2, [r3, #0]
 800447a:	4916      	ldr	r1, [pc, #88]	@ (80044d4 <SYSVIEW_AddTask+0xcc>)
 800447c:	4613      	mov	r3, r2
 800447e:	009b      	lsls	r3, r3, #2
 8004480:	4413      	add	r3, r2
 8004482:	009b      	lsls	r3, r3, #2
 8004484:	440b      	add	r3, r1
 8004486:	330c      	adds	r3, #12
 8004488:	683a      	ldr	r2, [r7, #0]
 800448a:	601a      	str	r2, [r3, #0]
  _aTasks[_NumTasks].uStackHighWaterMark = uStackHighWaterMark;
 800448c:	4b0f      	ldr	r3, [pc, #60]	@ (80044cc <SYSVIEW_AddTask+0xc4>)
 800448e:	681a      	ldr	r2, [r3, #0]
 8004490:	4910      	ldr	r1, [pc, #64]	@ (80044d4 <SYSVIEW_AddTask+0xcc>)
 8004492:	4613      	mov	r3, r2
 8004494:	009b      	lsls	r3, r3, #2
 8004496:	4413      	add	r3, r2
 8004498:	009b      	lsls	r3, r3, #2
 800449a:	440b      	add	r3, r1
 800449c:	3310      	adds	r3, #16
 800449e:	69ba      	ldr	r2, [r7, #24]
 80044a0:	601a      	str	r2, [r3, #0]

  _NumTasks++;
 80044a2:	4b0a      	ldr	r3, [pc, #40]	@ (80044cc <SYSVIEW_AddTask+0xc4>)
 80044a4:	681b      	ldr	r3, [r3, #0]
 80044a6:	3301      	adds	r3, #1
 80044a8:	4a08      	ldr	r2, [pc, #32]	@ (80044cc <SYSVIEW_AddTask+0xc4>)
 80044aa:	6013      	str	r3, [r2, #0]

  SYSVIEW_SendTaskInfo(xHandle, pcTaskName,uxCurrentPriority, pxStack, uStackHighWaterMark);
 80044ac:	69bb      	ldr	r3, [r7, #24]
 80044ae:	9300      	str	r3, [sp, #0]
 80044b0:	683b      	ldr	r3, [r7, #0]
 80044b2:	687a      	ldr	r2, [r7, #4]
 80044b4:	68b9      	ldr	r1, [r7, #8]
 80044b6:	68f8      	ldr	r0, [r7, #12]
 80044b8:	f000 f8ca 	bl	8004650 <SYSVIEW_SendTaskInfo>
 80044bc:	e000      	b.n	80044c0 <SYSVIEW_AddTask+0xb8>
    return;
 80044be:	bf00      	nop

}
 80044c0:	3710      	adds	r7, #16
 80044c2:	46bd      	mov	sp, r7
 80044c4:	bd80      	pop	{r7, pc}
 80044c6:	bf00      	nop
 80044c8:	08006234 	.word	0x08006234
 80044cc:	20012e54 	.word	0x20012e54
 80044d0:	0800623c 	.word	0x0800623c
 80044d4:	20012db4 	.word	0x20012db4

080044d8 <SYSVIEW_DeleteTask>:
*       SYSVIEW_DeleteTask()
*
*  Function description
*    Delete a task from the internal list.
*/
void SYSVIEW_DeleteTask(U32 xHandle) {
 80044d8:	b580      	push	{r7, lr}
 80044da:	b084      	sub	sp, #16
 80044dc:	af00      	add	r7, sp, #0
 80044de:	6078      	str	r0, [r7, #4]
  unsigned n;
  
  if (_NumTasks == 0) {
 80044e0:	4b59      	ldr	r3, [pc, #356]	@ (8004648 <SYSVIEW_DeleteTask+0x170>)
 80044e2:	681b      	ldr	r3, [r3, #0]
 80044e4:	2b00      	cmp	r3, #0
 80044e6:	f000 80ab 	beq.w	8004640 <SYSVIEW_DeleteTask+0x168>
    return; // Early out
  }  
  for (n = 0; n < _NumTasks; n++) {
 80044ea:	2300      	movs	r3, #0
 80044ec:	60fb      	str	r3, [r7, #12]
 80044ee:	e00d      	b.n	800450c <SYSVIEW_DeleteTask+0x34>
    if (_aTasks[n].xHandle == xHandle) {
 80044f0:	4956      	ldr	r1, [pc, #344]	@ (800464c <SYSVIEW_DeleteTask+0x174>)
 80044f2:	68fa      	ldr	r2, [r7, #12]
 80044f4:	4613      	mov	r3, r2
 80044f6:	009b      	lsls	r3, r3, #2
 80044f8:	4413      	add	r3, r2
 80044fa:	009b      	lsls	r3, r3, #2
 80044fc:	440b      	add	r3, r1
 80044fe:	681b      	ldr	r3, [r3, #0]
 8004500:	687a      	ldr	r2, [r7, #4]
 8004502:	429a      	cmp	r2, r3
 8004504:	d008      	beq.n	8004518 <SYSVIEW_DeleteTask+0x40>
  for (n = 0; n < _NumTasks; n++) {
 8004506:	68fb      	ldr	r3, [r7, #12]
 8004508:	3301      	adds	r3, #1
 800450a:	60fb      	str	r3, [r7, #12]
 800450c:	4b4e      	ldr	r3, [pc, #312]	@ (8004648 <SYSVIEW_DeleteTask+0x170>)
 800450e:	681b      	ldr	r3, [r3, #0]
 8004510:	68fa      	ldr	r2, [r7, #12]
 8004512:	429a      	cmp	r2, r3
 8004514:	d3ec      	bcc.n	80044f0 <SYSVIEW_DeleteTask+0x18>
 8004516:	e000      	b.n	800451a <SYSVIEW_DeleteTask+0x42>
      break;
 8004518:	bf00      	nop
    }
  }
  if (n == (_NumTasks - 1)) {  
 800451a:	4b4b      	ldr	r3, [pc, #300]	@ (8004648 <SYSVIEW_DeleteTask+0x170>)
 800451c:	681b      	ldr	r3, [r3, #0]
 800451e:	3b01      	subs	r3, #1
 8004520:	68fa      	ldr	r2, [r7, #12]
 8004522:	429a      	cmp	r2, r3
 8004524:	d111      	bne.n	800454a <SYSVIEW_DeleteTask+0x72>
    //
    // Task is last item in list.
    // Simply zero the item and decrement number of tasks.
    //
    memset(&_aTasks[n], 0, sizeof(_aTasks[n]));
 8004526:	68fa      	ldr	r2, [r7, #12]
 8004528:	4613      	mov	r3, r2
 800452a:	009b      	lsls	r3, r3, #2
 800452c:	4413      	add	r3, r2
 800452e:	009b      	lsls	r3, r3, #2
 8004530:	4a46      	ldr	r2, [pc, #280]	@ (800464c <SYSVIEW_DeleteTask+0x174>)
 8004532:	4413      	add	r3, r2
 8004534:	2214      	movs	r2, #20
 8004536:	2100      	movs	r1, #0
 8004538:	4618      	mov	r0, r3
 800453a:	f001 fde9 	bl	8006110 <memset>
    _NumTasks--;
 800453e:	4b42      	ldr	r3, [pc, #264]	@ (8004648 <SYSVIEW_DeleteTask+0x170>)
 8004540:	681b      	ldr	r3, [r3, #0]
 8004542:	3b01      	subs	r3, #1
 8004544:	4a40      	ldr	r2, [pc, #256]	@ (8004648 <SYSVIEW_DeleteTask+0x170>)
 8004546:	6013      	str	r3, [r2, #0]
 8004548:	e07b      	b.n	8004642 <SYSVIEW_DeleteTask+0x16a>
  } else if (n < _NumTasks) {
 800454a:	4b3f      	ldr	r3, [pc, #252]	@ (8004648 <SYSVIEW_DeleteTask+0x170>)
 800454c:	681b      	ldr	r3, [r3, #0]
 800454e:	68fa      	ldr	r2, [r7, #12]
 8004550:	429a      	cmp	r2, r3
 8004552:	d276      	bcs.n	8004642 <SYSVIEW_DeleteTask+0x16a>
    //
    // Task is in the middle of the list.
    // Move last item to current position and decrement number of tasks.
    // Order of tasks does not really matter, so no need to move all following items.
    //
    _aTasks[n].xHandle             = _aTasks[_NumTasks - 1].xHandle;
 8004554:	4b3c      	ldr	r3, [pc, #240]	@ (8004648 <SYSVIEW_DeleteTask+0x170>)
 8004556:	681b      	ldr	r3, [r3, #0]
 8004558:	1e5a      	subs	r2, r3, #1
 800455a:	493c      	ldr	r1, [pc, #240]	@ (800464c <SYSVIEW_DeleteTask+0x174>)
 800455c:	4613      	mov	r3, r2
 800455e:	009b      	lsls	r3, r3, #2
 8004560:	4413      	add	r3, r2
 8004562:	009b      	lsls	r3, r3, #2
 8004564:	440b      	add	r3, r1
 8004566:	6819      	ldr	r1, [r3, #0]
 8004568:	4838      	ldr	r0, [pc, #224]	@ (800464c <SYSVIEW_DeleteTask+0x174>)
 800456a:	68fa      	ldr	r2, [r7, #12]
 800456c:	4613      	mov	r3, r2
 800456e:	009b      	lsls	r3, r3, #2
 8004570:	4413      	add	r3, r2
 8004572:	009b      	lsls	r3, r3, #2
 8004574:	4403      	add	r3, r0
 8004576:	6019      	str	r1, [r3, #0]
    _aTasks[n].pcTaskName          = _aTasks[_NumTasks - 1].pcTaskName;
 8004578:	4b33      	ldr	r3, [pc, #204]	@ (8004648 <SYSVIEW_DeleteTask+0x170>)
 800457a:	681b      	ldr	r3, [r3, #0]
 800457c:	1e5a      	subs	r2, r3, #1
 800457e:	4933      	ldr	r1, [pc, #204]	@ (800464c <SYSVIEW_DeleteTask+0x174>)
 8004580:	4613      	mov	r3, r2
 8004582:	009b      	lsls	r3, r3, #2
 8004584:	4413      	add	r3, r2
 8004586:	009b      	lsls	r3, r3, #2
 8004588:	440b      	add	r3, r1
 800458a:	3304      	adds	r3, #4
 800458c:	6819      	ldr	r1, [r3, #0]
 800458e:	482f      	ldr	r0, [pc, #188]	@ (800464c <SYSVIEW_DeleteTask+0x174>)
 8004590:	68fa      	ldr	r2, [r7, #12]
 8004592:	4613      	mov	r3, r2
 8004594:	009b      	lsls	r3, r3, #2
 8004596:	4413      	add	r3, r2
 8004598:	009b      	lsls	r3, r3, #2
 800459a:	4403      	add	r3, r0
 800459c:	3304      	adds	r3, #4
 800459e:	6019      	str	r1, [r3, #0]
    _aTasks[n].uxCurrentPriority   = _aTasks[_NumTasks - 1].uxCurrentPriority;
 80045a0:	4b29      	ldr	r3, [pc, #164]	@ (8004648 <SYSVIEW_DeleteTask+0x170>)
 80045a2:	681b      	ldr	r3, [r3, #0]
 80045a4:	1e5a      	subs	r2, r3, #1
 80045a6:	4929      	ldr	r1, [pc, #164]	@ (800464c <SYSVIEW_DeleteTask+0x174>)
 80045a8:	4613      	mov	r3, r2
 80045aa:	009b      	lsls	r3, r3, #2
 80045ac:	4413      	add	r3, r2
 80045ae:	009b      	lsls	r3, r3, #2
 80045b0:	440b      	add	r3, r1
 80045b2:	3308      	adds	r3, #8
 80045b4:	6819      	ldr	r1, [r3, #0]
 80045b6:	4825      	ldr	r0, [pc, #148]	@ (800464c <SYSVIEW_DeleteTask+0x174>)
 80045b8:	68fa      	ldr	r2, [r7, #12]
 80045ba:	4613      	mov	r3, r2
 80045bc:	009b      	lsls	r3, r3, #2
 80045be:	4413      	add	r3, r2
 80045c0:	009b      	lsls	r3, r3, #2
 80045c2:	4403      	add	r3, r0
 80045c4:	3308      	adds	r3, #8
 80045c6:	6019      	str	r1, [r3, #0]
    _aTasks[n].pxStack             = _aTasks[_NumTasks - 1].pxStack;
 80045c8:	4b1f      	ldr	r3, [pc, #124]	@ (8004648 <SYSVIEW_DeleteTask+0x170>)
 80045ca:	681b      	ldr	r3, [r3, #0]
 80045cc:	1e5a      	subs	r2, r3, #1
 80045ce:	491f      	ldr	r1, [pc, #124]	@ (800464c <SYSVIEW_DeleteTask+0x174>)
 80045d0:	4613      	mov	r3, r2
 80045d2:	009b      	lsls	r3, r3, #2
 80045d4:	4413      	add	r3, r2
 80045d6:	009b      	lsls	r3, r3, #2
 80045d8:	440b      	add	r3, r1
 80045da:	330c      	adds	r3, #12
 80045dc:	6819      	ldr	r1, [r3, #0]
 80045de:	481b      	ldr	r0, [pc, #108]	@ (800464c <SYSVIEW_DeleteTask+0x174>)
 80045e0:	68fa      	ldr	r2, [r7, #12]
 80045e2:	4613      	mov	r3, r2
 80045e4:	009b      	lsls	r3, r3, #2
 80045e6:	4413      	add	r3, r2
 80045e8:	009b      	lsls	r3, r3, #2
 80045ea:	4403      	add	r3, r0
 80045ec:	330c      	adds	r3, #12
 80045ee:	6019      	str	r1, [r3, #0]
    _aTasks[n].uStackHighWaterMark = _aTasks[_NumTasks - 1].uStackHighWaterMark;
 80045f0:	4b15      	ldr	r3, [pc, #84]	@ (8004648 <SYSVIEW_DeleteTask+0x170>)
 80045f2:	681b      	ldr	r3, [r3, #0]
 80045f4:	1e5a      	subs	r2, r3, #1
 80045f6:	4915      	ldr	r1, [pc, #84]	@ (800464c <SYSVIEW_DeleteTask+0x174>)
 80045f8:	4613      	mov	r3, r2
 80045fa:	009b      	lsls	r3, r3, #2
 80045fc:	4413      	add	r3, r2
 80045fe:	009b      	lsls	r3, r3, #2
 8004600:	440b      	add	r3, r1
 8004602:	3310      	adds	r3, #16
 8004604:	6819      	ldr	r1, [r3, #0]
 8004606:	4811      	ldr	r0, [pc, #68]	@ (800464c <SYSVIEW_DeleteTask+0x174>)
 8004608:	68fa      	ldr	r2, [r7, #12]
 800460a:	4613      	mov	r3, r2
 800460c:	009b      	lsls	r3, r3, #2
 800460e:	4413      	add	r3, r2
 8004610:	009b      	lsls	r3, r3, #2
 8004612:	4403      	add	r3, r0
 8004614:	3310      	adds	r3, #16
 8004616:	6019      	str	r1, [r3, #0]
    memset(&_aTasks[_NumTasks - 1], 0, sizeof(_aTasks[_NumTasks - 1]));
 8004618:	4b0b      	ldr	r3, [pc, #44]	@ (8004648 <SYSVIEW_DeleteTask+0x170>)
 800461a:	681b      	ldr	r3, [r3, #0]
 800461c:	1e5a      	subs	r2, r3, #1
 800461e:	4613      	mov	r3, r2
 8004620:	009b      	lsls	r3, r3, #2
 8004622:	4413      	add	r3, r2
 8004624:	009b      	lsls	r3, r3, #2
 8004626:	4a09      	ldr	r2, [pc, #36]	@ (800464c <SYSVIEW_DeleteTask+0x174>)
 8004628:	4413      	add	r3, r2
 800462a:	2214      	movs	r2, #20
 800462c:	2100      	movs	r1, #0
 800462e:	4618      	mov	r0, r3
 8004630:	f001 fd6e 	bl	8006110 <memset>
    _NumTasks--;
 8004634:	4b04      	ldr	r3, [pc, #16]	@ (8004648 <SYSVIEW_DeleteTask+0x170>)
 8004636:	681b      	ldr	r3, [r3, #0]
 8004638:	3b01      	subs	r3, #1
 800463a:	4a03      	ldr	r2, [pc, #12]	@ (8004648 <SYSVIEW_DeleteTask+0x170>)
 800463c:	6013      	str	r3, [r2, #0]
 800463e:	e000      	b.n	8004642 <SYSVIEW_DeleteTask+0x16a>
    return; // Early out
 8004640:	bf00      	nop
  }
}
 8004642:	3710      	adds	r7, #16
 8004644:	46bd      	mov	sp, r7
 8004646:	bd80      	pop	{r7, pc}
 8004648:	20012e54 	.word	0x20012e54
 800464c:	20012db4 	.word	0x20012db4

08004650 <SYSVIEW_SendTaskInfo>:
*       SYSVIEW_SendTaskInfo()
*
*  Function description
*    Record task information.
*/
void SYSVIEW_SendTaskInfo(U32 TaskID, const char* sName, unsigned Prio, U32 StackBase, unsigned StackSize) {
 8004650:	b580      	push	{r7, lr}
 8004652:	b08a      	sub	sp, #40	@ 0x28
 8004654:	af00      	add	r7, sp, #0
 8004656:	60f8      	str	r0, [r7, #12]
 8004658:	60b9      	str	r1, [r7, #8]
 800465a:	607a      	str	r2, [r7, #4]
 800465c:	603b      	str	r3, [r7, #0]
  SEGGER_SYSVIEW_TASKINFO TaskInfo;

  memset(&TaskInfo, 0, sizeof(TaskInfo)); // Fill all elements with 0 to allow extending the structure in future version without breaking the code
 800465e:	f107 0310 	add.w	r3, r7, #16
 8004662:	2218      	movs	r2, #24
 8004664:	2100      	movs	r1, #0
 8004666:	4618      	mov	r0, r3
 8004668:	f001 fd52 	bl	8006110 <memset>
  TaskInfo.TaskID     = TaskID;
 800466c:	68fb      	ldr	r3, [r7, #12]
 800466e:	613b      	str	r3, [r7, #16]
  TaskInfo.sName      = sName;
 8004670:	68bb      	ldr	r3, [r7, #8]
 8004672:	617b      	str	r3, [r7, #20]
  TaskInfo.Prio       = Prio;
 8004674:	687b      	ldr	r3, [r7, #4]
 8004676:	61bb      	str	r3, [r7, #24]
  TaskInfo.StackBase  = StackBase;
 8004678:	683b      	ldr	r3, [r7, #0]
 800467a:	61fb      	str	r3, [r7, #28]
  TaskInfo.StackSize  = StackSize;
 800467c:	6b3b      	ldr	r3, [r7, #48]	@ 0x30
 800467e:	623b      	str	r3, [r7, #32]
  SEGGER_SYSVIEW_SendTaskInfo(&TaskInfo);
 8004680:	f107 0310 	add.w	r3, r7, #16
 8004684:	4618      	mov	r0, r3
 8004686:	f001 f843 	bl	8005710 <SEGGER_SYSVIEW_SendTaskInfo>
}
 800468a:	bf00      	nop
 800468c:	3728      	adds	r7, #40	@ 0x28
 800468e:	46bd      	mov	sp, r7
 8004690:	bd80      	pop	{r7, pc}
	...

08004694 <_DoInit>:
      if (pRTTCBInit->acID[0] != 'S') {                                                      \
        _DoInit();                                                                           \
      }                                                                                      \
    } while (0)

static void _DoInit(void) {
 8004694:	b580      	push	{r7, lr}
 8004696:	b082      	sub	sp, #8
 8004698:	af00      	add	r7, sp, #0
  static const char _aInitStr[] = "\0\0\0\0\0\0TTR REGGES";  // Init complete ID string to make sure that things also work if RTT is linked to a no-init memory area
  unsigned i;
  //
  // Initialize control block
  //
  p                     = (volatile SEGGER_RTT_CB*)((uintptr_t)&_SEGGER_RTT + SEGGER_RTT_UNCACHED_OFF);  // Access control block uncached so that nothing in the cache ever becomes dirty and all changes are visible in HW directly
 800469a:	4b26      	ldr	r3, [pc, #152]	@ (8004734 <_DoInit+0xa0>)
 800469c:	603b      	str	r3, [r7, #0]
  memset((SEGGER_RTT_CB*)p, 0, sizeof(_SEGGER_RTT));         // Make sure that the RTT CB is always zero initialized.
 800469e:	22a8      	movs	r2, #168	@ 0xa8
 80046a0:	2100      	movs	r1, #0
 80046a2:	6838      	ldr	r0, [r7, #0]
 80046a4:	f001 fd34 	bl	8006110 <memset>
  p->MaxNumUpBuffers    = SEGGER_RTT_MAX_NUM_UP_BUFFERS;
 80046a8:	683b      	ldr	r3, [r7, #0]
 80046aa:	2203      	movs	r2, #3
 80046ac:	611a      	str	r2, [r3, #16]
  p->MaxNumDownBuffers  = SEGGER_RTT_MAX_NUM_DOWN_BUFFERS;
 80046ae:	683b      	ldr	r3, [r7, #0]
 80046b0:	2203      	movs	r2, #3
 80046b2:	615a      	str	r2, [r3, #20]
  //
  // Initialize up buffer 0
  //
  p->aUp[0].sName         = "Terminal";
 80046b4:	683b      	ldr	r3, [r7, #0]
 80046b6:	4a20      	ldr	r2, [pc, #128]	@ (8004738 <_DoInit+0xa4>)
 80046b8:	619a      	str	r2, [r3, #24]
  p->aUp[0].pBuffer       = _acUpBuffer;
 80046ba:	683b      	ldr	r3, [r7, #0]
 80046bc:	4a1f      	ldr	r2, [pc, #124]	@ (800473c <_DoInit+0xa8>)
 80046be:	61da      	str	r2, [r3, #28]
  p->aUp[0].SizeOfBuffer  = BUFFER_SIZE_UP;
 80046c0:	683b      	ldr	r3, [r7, #0]
 80046c2:	f44f 6280 	mov.w	r2, #1024	@ 0x400
 80046c6:	621a      	str	r2, [r3, #32]
  p->aUp[0].RdOff         = 0u;
 80046c8:	683b      	ldr	r3, [r7, #0]
 80046ca:	2200      	movs	r2, #0
 80046cc:	629a      	str	r2, [r3, #40]	@ 0x28
  p->aUp[0].WrOff         = 0u;
 80046ce:	683b      	ldr	r3, [r7, #0]
 80046d0:	2200      	movs	r2, #0
 80046d2:	625a      	str	r2, [r3, #36]	@ 0x24
  p->aUp[0].Flags         = SEGGER_RTT_MODE_DEFAULT;
 80046d4:	683b      	ldr	r3, [r7, #0]
 80046d6:	2200      	movs	r2, #0
 80046d8:	62da      	str	r2, [r3, #44]	@ 0x2c
  //
  // Initialize down buffer 0
  //
  p->aDown[0].sName         = "Terminal";
 80046da:	683b      	ldr	r3, [r7, #0]
 80046dc:	4a16      	ldr	r2, [pc, #88]	@ (8004738 <_DoInit+0xa4>)
 80046de:	661a      	str	r2, [r3, #96]	@ 0x60
  p->aDown[0].pBuffer       = _acDownBuffer;
 80046e0:	683b      	ldr	r3, [r7, #0]
 80046e2:	4a17      	ldr	r2, [pc, #92]	@ (8004740 <_DoInit+0xac>)
 80046e4:	665a      	str	r2, [r3, #100]	@ 0x64
  p->aDown[0].SizeOfBuffer  = BUFFER_SIZE_DOWN;
 80046e6:	683b      	ldr	r3, [r7, #0]
 80046e8:	2210      	movs	r2, #16
 80046ea:	669a      	str	r2, [r3, #104]	@ 0x68
  p->aDown[0].RdOff         = 0u;
 80046ec:	683b      	ldr	r3, [r7, #0]
 80046ee:	2200      	movs	r2, #0
 80046f0:	671a      	str	r2, [r3, #112]	@ 0x70
  p->aDown[0].WrOff         = 0u;
 80046f2:	683b      	ldr	r3, [r7, #0]
 80046f4:	2200      	movs	r2, #0
 80046f6:	66da      	str	r2, [r3, #108]	@ 0x6c
  p->aDown[0].Flags         = SEGGER_RTT_MODE_DEFAULT;
 80046f8:	683b      	ldr	r3, [r7, #0]
 80046fa:	2200      	movs	r2, #0
 80046fc:	675a      	str	r2, [r3, #116]	@ 0x74
  //
  // Finish initialization of the control block.
  // Copy Id string backwards to make sure that "SEGGER RTT" is not found in initializer memory (usually flash),
  // as this would cause J-Link to "find" the control block at a wrong address.
  //
  RTT__DMB();                       // Force order of memory accesses for cores that may perform out-of-order memory accesses
 80046fe:	f3bf 8f5f 	dmb	sy
  for (i = 0; i < sizeof(_aInitStr) - 1; ++i) {
 8004702:	2300      	movs	r3, #0
 8004704:	607b      	str	r3, [r7, #4]
 8004706:	e00c      	b.n	8004722 <_DoInit+0x8e>
    p->acID[i] = _aInitStr[sizeof(_aInitStr) - 2 - i];  // Skip terminating \0 at the end of the array
 8004708:	687b      	ldr	r3, [r7, #4]
 800470a:	f1c3 030f 	rsb	r3, r3, #15
 800470e:	4a0d      	ldr	r2, [pc, #52]	@ (8004744 <_DoInit+0xb0>)
 8004710:	5cd1      	ldrb	r1, [r2, r3]
 8004712:	683a      	ldr	r2, [r7, #0]
 8004714:	687b      	ldr	r3, [r7, #4]
 8004716:	4413      	add	r3, r2
 8004718:	460a      	mov	r2, r1
 800471a:	701a      	strb	r2, [r3, #0]
  for (i = 0; i < sizeof(_aInitStr) - 1; ++i) {
 800471c:	687b      	ldr	r3, [r7, #4]
 800471e:	3301      	adds	r3, #1
 8004720:	607b      	str	r3, [r7, #4]
 8004722:	687b      	ldr	r3, [r7, #4]
 8004724:	2b0f      	cmp	r3, #15
 8004726:	d9ef      	bls.n	8004708 <_DoInit+0x74>
  }
  RTT__DMB();                       // Force order of memory accesses for cores that may perform out-of-order memory accesses
 8004728:	f3bf 8f5f 	dmb	sy
}
 800472c:	bf00      	nop
 800472e:	3708      	adds	r7, #8
 8004730:	46bd      	mov	sp, r7
 8004732:	bd80      	pop	{r7, pc}
 8004734:	20012e58 	.word	0x20012e58
 8004738:	0800628c 	.word	0x0800628c
 800473c:	20012f00 	.word	0x20012f00
 8004740:	20013300 	.word	0x20013300
 8004744:	080062cc 	.word	0x080062cc

08004748 <SEGGER_RTT_ReadNoLock>:
*    BufferSize   Size of the target application buffer.
*
*  Return value
*    Number of bytes that have been read.
*/
unsigned SEGGER_RTT_ReadNoLock(unsigned BufferIndex, void* pData, unsigned BufferSize) {
 8004748:	b580      	push	{r7, lr}
 800474a:	b08c      	sub	sp, #48	@ 0x30
 800474c:	af00      	add	r7, sp, #0
 800474e:	60f8      	str	r0, [r7, #12]
 8004750:	60b9      	str	r1, [r7, #8]
 8004752:	607a      	str	r2, [r7, #4]
  unsigned                WrOff;
  unsigned char*          pBuffer;
  SEGGER_RTT_BUFFER_DOWN* pRing;
  volatile char*          pSrc;
  //
  INIT();
 8004754:	4b3e      	ldr	r3, [pc, #248]	@ (8004850 <SEGGER_RTT_ReadNoLock+0x108>)
 8004756:	623b      	str	r3, [r7, #32]
 8004758:	6a3b      	ldr	r3, [r7, #32]
 800475a:	781b      	ldrb	r3, [r3, #0]
 800475c:	b2db      	uxtb	r3, r3
 800475e:	2b53      	cmp	r3, #83	@ 0x53
 8004760:	d001      	beq.n	8004766 <SEGGER_RTT_ReadNoLock+0x1e>
 8004762:	f7ff ff97 	bl	8004694 <_DoInit>
  pRing = (SEGGER_RTT_BUFFER_DOWN*)((uintptr_t)&_SEGGER_RTT.aDown[BufferIndex] + SEGGER_RTT_UNCACHED_OFF);  // Access uncached to make sure we see changes made by the J-Link side and all of our changes go into HW directly
 8004766:	68fa      	ldr	r2, [r7, #12]
 8004768:	4613      	mov	r3, r2
 800476a:	005b      	lsls	r3, r3, #1
 800476c:	4413      	add	r3, r2
 800476e:	00db      	lsls	r3, r3, #3
 8004770:	3360      	adds	r3, #96	@ 0x60
 8004772:	4a37      	ldr	r2, [pc, #220]	@ (8004850 <SEGGER_RTT_ReadNoLock+0x108>)
 8004774:	4413      	add	r3, r2
 8004776:	61fb      	str	r3, [r7, #28]
  pBuffer = (unsigned char*)pData;
 8004778:	68bb      	ldr	r3, [r7, #8]
 800477a:	627b      	str	r3, [r7, #36]	@ 0x24
  RdOff = pRing->RdOff;
 800477c:	69fb      	ldr	r3, [r7, #28]
 800477e:	691b      	ldr	r3, [r3, #16]
 8004780:	62bb      	str	r3, [r7, #40]	@ 0x28
  WrOff = pRing->WrOff;
 8004782:	69fb      	ldr	r3, [r7, #28]
 8004784:	68db      	ldr	r3, [r3, #12]
 8004786:	61bb      	str	r3, [r7, #24]
  NumBytesRead = 0u;
 8004788:	2300      	movs	r3, #0
 800478a:	62fb      	str	r3, [r7, #44]	@ 0x2c
  //
  // Read from current read position to wrap-around of buffer, first
  //
  if (RdOff > WrOff) {
 800478c:	6aba      	ldr	r2, [r7, #40]	@ 0x28
 800478e:	69bb      	ldr	r3, [r7, #24]
 8004790:	429a      	cmp	r2, r3
 8004792:	d92b      	bls.n	80047ec <SEGGER_RTT_ReadNoLock+0xa4>
    NumBytesRem = pRing->SizeOfBuffer - RdOff;
 8004794:	69fb      	ldr	r3, [r7, #28]
 8004796:	689a      	ldr	r2, [r3, #8]
 8004798:	6abb      	ldr	r3, [r7, #40]	@ 0x28
 800479a:	1ad3      	subs	r3, r2, r3
 800479c:	617b      	str	r3, [r7, #20]
    NumBytesRem = MIN(NumBytesRem, BufferSize);
 800479e:	697a      	ldr	r2, [r7, #20]
 80047a0:	687b      	ldr	r3, [r7, #4]
 80047a2:	4293      	cmp	r3, r2
 80047a4:	bf28      	it	cs
 80047a6:	4613      	movcs	r3, r2
 80047a8:	617b      	str	r3, [r7, #20]
    pSrc = (pRing->pBuffer + RdOff) + SEGGER_RTT_UNCACHED_OFF;
 80047aa:	69fb      	ldr	r3, [r7, #28]
 80047ac:	685a      	ldr	r2, [r3, #4]
 80047ae:	6abb      	ldr	r3, [r7, #40]	@ 0x28
 80047b0:	4413      	add	r3, r2
 80047b2:	613b      	str	r3, [r7, #16]
    RdOff        += NumBytesRem;
    while (NumBytesRem--) {
      *pBuffer++ = *pSrc++;
    };
#else
    SEGGER_RTT_MEMCPY(pBuffer, (void*)pSrc, NumBytesRem);
 80047b4:	697a      	ldr	r2, [r7, #20]
 80047b6:	6939      	ldr	r1, [r7, #16]
 80047b8:	6a78      	ldr	r0, [r7, #36]	@ 0x24
 80047ba:	f001 fcd5 	bl	8006168 <memcpy>
    NumBytesRead += NumBytesRem;
 80047be:	6afa      	ldr	r2, [r7, #44]	@ 0x2c
 80047c0:	697b      	ldr	r3, [r7, #20]
 80047c2:	4413      	add	r3, r2
 80047c4:	62fb      	str	r3, [r7, #44]	@ 0x2c
    pBuffer      += NumBytesRem;
 80047c6:	6a7a      	ldr	r2, [r7, #36]	@ 0x24
 80047c8:	697b      	ldr	r3, [r7, #20]
 80047ca:	4413      	add	r3, r2
 80047cc:	627b      	str	r3, [r7, #36]	@ 0x24
    BufferSize   -= NumBytesRem;
 80047ce:	687a      	ldr	r2, [r7, #4]
 80047d0:	697b      	ldr	r3, [r7, #20]
 80047d2:	1ad3      	subs	r3, r2, r3
 80047d4:	607b      	str	r3, [r7, #4]
    RdOff        += NumBytesRem;
 80047d6:	6aba      	ldr	r2, [r7, #40]	@ 0x28
 80047d8:	697b      	ldr	r3, [r7, #20]
 80047da:	4413      	add	r3, r2
 80047dc:	62bb      	str	r3, [r7, #40]	@ 0x28
#endif
    //
    // Handle wrap-around of buffer
    //
    if (RdOff == pRing->SizeOfBuffer) {
 80047de:	69fb      	ldr	r3, [r7, #28]
 80047e0:	689b      	ldr	r3, [r3, #8]
 80047e2:	6aba      	ldr	r2, [r7, #40]	@ 0x28
 80047e4:	429a      	cmp	r2, r3
 80047e6:	d101      	bne.n	80047ec <SEGGER_RTT_ReadNoLock+0xa4>
      RdOff = 0u;
 80047e8:	2300      	movs	r3, #0
 80047ea:	62bb      	str	r3, [r7, #40]	@ 0x28
    }
  }
  //
  // Read remaining items of buffer
  //
  NumBytesRem = WrOff - RdOff;
 80047ec:	69ba      	ldr	r2, [r7, #24]
 80047ee:	6abb      	ldr	r3, [r7, #40]	@ 0x28
 80047f0:	1ad3      	subs	r3, r2, r3
 80047f2:	617b      	str	r3, [r7, #20]
  NumBytesRem = MIN(NumBytesRem, BufferSize);
 80047f4:	697a      	ldr	r2, [r7, #20]
 80047f6:	687b      	ldr	r3, [r7, #4]
 80047f8:	4293      	cmp	r3, r2
 80047fa:	bf28      	it	cs
 80047fc:	4613      	movcs	r3, r2
 80047fe:	617b      	str	r3, [r7, #20]
  if (NumBytesRem > 0u) {
 8004800:	697b      	ldr	r3, [r7, #20]
 8004802:	2b00      	cmp	r3, #0
 8004804:	d019      	beq.n	800483a <SEGGER_RTT_ReadNoLock+0xf2>
    pSrc = (pRing->pBuffer + RdOff) + SEGGER_RTT_UNCACHED_OFF;
 8004806:	69fb      	ldr	r3, [r7, #28]
 8004808:	685a      	ldr	r2, [r3, #4]
 800480a:	6abb      	ldr	r3, [r7, #40]	@ 0x28
 800480c:	4413      	add	r3, r2
 800480e:	613b      	str	r3, [r7, #16]
    RdOff        += NumBytesRem;
    while (NumBytesRem--) {
      *pBuffer++ = *pSrc++;
    };
#else
    SEGGER_RTT_MEMCPY(pBuffer, (void*)pSrc, NumBytesRem);
 8004810:	697a      	ldr	r2, [r7, #20]
 8004812:	6939      	ldr	r1, [r7, #16]
 8004814:	6a78      	ldr	r0, [r7, #36]	@ 0x24
 8004816:	f001 fca7 	bl	8006168 <memcpy>
    NumBytesRead += NumBytesRem;
 800481a:	6afa      	ldr	r2, [r7, #44]	@ 0x2c
 800481c:	697b      	ldr	r3, [r7, #20]
 800481e:	4413      	add	r3, r2
 8004820:	62fb      	str	r3, [r7, #44]	@ 0x2c
    pBuffer      += NumBytesRem;
 8004822:	6a7a      	ldr	r2, [r7, #36]	@ 0x24
 8004824:	697b      	ldr	r3, [r7, #20]
 8004826:	4413      	add	r3, r2
 8004828:	627b      	str	r3, [r7, #36]	@ 0x24
    BufferSize   -= NumBytesRem;
 800482a:	687a      	ldr	r2, [r7, #4]
 800482c:	697b      	ldr	r3, [r7, #20]
 800482e:	1ad3      	subs	r3, r2, r3
 8004830:	607b      	str	r3, [r7, #4]
    RdOff        += NumBytesRem;
 8004832:	6aba      	ldr	r2, [r7, #40]	@ 0x28
 8004834:	697b      	ldr	r3, [r7, #20]
 8004836:	4413      	add	r3, r2
 8004838:	62bb      	str	r3, [r7, #40]	@ 0x28
#endif
  }
  if (NumBytesRead) {
 800483a:	6afb      	ldr	r3, [r7, #44]	@ 0x2c
 800483c:	2b00      	cmp	r3, #0
 800483e:	d002      	beq.n	8004846 <SEGGER_RTT_ReadNoLock+0xfe>
    pRing->RdOff = RdOff;
 8004840:	69fb      	ldr	r3, [r7, #28]
 8004842:	6aba      	ldr	r2, [r7, #40]	@ 0x28
 8004844:	611a      	str	r2, [r3, #16]
  }
  //
  return NumBytesRead;
 8004846:	6afb      	ldr	r3, [r7, #44]	@ 0x2c
}
 8004848:	4618      	mov	r0, r3
 800484a:	3730      	adds	r7, #48	@ 0x30
 800484c:	46bd      	mov	sp, r7
 800484e:	bd80      	pop	{r7, pc}
 8004850:	20012e58 	.word	0x20012e58

08004854 <SEGGER_RTT_AllocUpBuffer>:
*
*  Return value
*    >= 0 - O.K. Buffer Index
*     < 0 - Error
*/
int SEGGER_RTT_AllocUpBuffer(const char* sName, void* pBuffer, unsigned BufferSize, unsigned Flags) {
 8004854:	b580      	push	{r7, lr}
 8004856:	b088      	sub	sp, #32
 8004858:	af00      	add	r7, sp, #0
 800485a:	60f8      	str	r0, [r7, #12]
 800485c:	60b9      	str	r1, [r7, #8]
 800485e:	607a      	str	r2, [r7, #4]
 8004860:	603b      	str	r3, [r7, #0]
  int BufferIndex;
  volatile SEGGER_RTT_CB* pRTTCB;

  INIT();
 8004862:	4b3d      	ldr	r3, [pc, #244]	@ (8004958 <SEGGER_RTT_AllocUpBuffer+0x104>)
 8004864:	61bb      	str	r3, [r7, #24]
 8004866:	69bb      	ldr	r3, [r7, #24]
 8004868:	781b      	ldrb	r3, [r3, #0]
 800486a:	b2db      	uxtb	r3, r3
 800486c:	2b53      	cmp	r3, #83	@ 0x53
 800486e:	d001      	beq.n	8004874 <SEGGER_RTT_AllocUpBuffer+0x20>
 8004870:	f7ff ff10 	bl	8004694 <_DoInit>
  SEGGER_RTT_LOCK();
 8004874:	f3ef 8311 	mrs	r3, BASEPRI
 8004878:	f04f 0120 	mov.w	r1, #32
 800487c:	f381 8811 	msr	BASEPRI, r1
 8004880:	617b      	str	r3, [r7, #20]
  pRTTCB = (volatile SEGGER_RTT_CB*)((uintptr_t)&_SEGGER_RTT + SEGGER_RTT_UNCACHED_OFF);  // Access RTTCB uncached to make sure we see changes made by the J-Link side and all of our changes go into HW directly
 8004882:	4b35      	ldr	r3, [pc, #212]	@ (8004958 <SEGGER_RTT_AllocUpBuffer+0x104>)
 8004884:	613b      	str	r3, [r7, #16]
  BufferIndex = 0;
 8004886:	2300      	movs	r3, #0
 8004888:	61fb      	str	r3, [r7, #28]
  do {
    if (pRTTCB->aUp[BufferIndex].pBuffer == NULL) {
 800488a:	6939      	ldr	r1, [r7, #16]
 800488c:	69fb      	ldr	r3, [r7, #28]
 800488e:	1c5a      	adds	r2, r3, #1
 8004890:	4613      	mov	r3, r2
 8004892:	005b      	lsls	r3, r3, #1
 8004894:	4413      	add	r3, r2
 8004896:	00db      	lsls	r3, r3, #3
 8004898:	440b      	add	r3, r1
 800489a:	3304      	adds	r3, #4
 800489c:	681b      	ldr	r3, [r3, #0]
 800489e:	2b00      	cmp	r3, #0
 80048a0:	d008      	beq.n	80048b4 <SEGGER_RTT_AllocUpBuffer+0x60>
      break;
    }
    BufferIndex++;
 80048a2:	69fb      	ldr	r3, [r7, #28]
 80048a4:	3301      	adds	r3, #1
 80048a6:	61fb      	str	r3, [r7, #28]
  } while (BufferIndex < pRTTCB->MaxNumUpBuffers);
 80048a8:	693b      	ldr	r3, [r7, #16]
 80048aa:	691b      	ldr	r3, [r3, #16]
 80048ac:	69fa      	ldr	r2, [r7, #28]
 80048ae:	429a      	cmp	r2, r3
 80048b0:	dbeb      	blt.n	800488a <SEGGER_RTT_AllocUpBuffer+0x36>
 80048b2:	e000      	b.n	80048b6 <SEGGER_RTT_AllocUpBuffer+0x62>
      break;
 80048b4:	bf00      	nop
  if (BufferIndex < pRTTCB->MaxNumUpBuffers) {
 80048b6:	693b      	ldr	r3, [r7, #16]
 80048b8:	691b      	ldr	r3, [r3, #16]
 80048ba:	69fa      	ldr	r2, [r7, #28]
 80048bc:	429a      	cmp	r2, r3
 80048be:	da3f      	bge.n	8004940 <SEGGER_RTT_AllocUpBuffer+0xec>
    pRTTCB->aUp[BufferIndex].sName        = sName;
 80048c0:	6939      	ldr	r1, [r7, #16]
 80048c2:	69fb      	ldr	r3, [r7, #28]
 80048c4:	1c5a      	adds	r2, r3, #1
 80048c6:	4613      	mov	r3, r2
 80048c8:	005b      	lsls	r3, r3, #1
 80048ca:	4413      	add	r3, r2
 80048cc:	00db      	lsls	r3, r3, #3
 80048ce:	440b      	add	r3, r1
 80048d0:	68fa      	ldr	r2, [r7, #12]
 80048d2:	601a      	str	r2, [r3, #0]
    pRTTCB->aUp[BufferIndex].pBuffer      = (char*)pBuffer;
 80048d4:	6939      	ldr	r1, [r7, #16]
 80048d6:	69fb      	ldr	r3, [r7, #28]
 80048d8:	1c5a      	adds	r2, r3, #1
 80048da:	4613      	mov	r3, r2
 80048dc:	005b      	lsls	r3, r3, #1
 80048de:	4413      	add	r3, r2
 80048e0:	00db      	lsls	r3, r3, #3
 80048e2:	440b      	add	r3, r1
 80048e4:	3304      	adds	r3, #4
 80048e6:	68ba      	ldr	r2, [r7, #8]
 80048e8:	601a      	str	r2, [r3, #0]
    pRTTCB->aUp[BufferIndex].SizeOfBuffer = BufferSize;
 80048ea:	6939      	ldr	r1, [r7, #16]
 80048ec:	69fa      	ldr	r2, [r7, #28]
 80048ee:	4613      	mov	r3, r2
 80048f0:	005b      	lsls	r3, r3, #1
 80048f2:	4413      	add	r3, r2
 80048f4:	00db      	lsls	r3, r3, #3
 80048f6:	440b      	add	r3, r1
 80048f8:	3320      	adds	r3, #32
 80048fa:	687a      	ldr	r2, [r7, #4]
 80048fc:	601a      	str	r2, [r3, #0]
    pRTTCB->aUp[BufferIndex].RdOff        = 0u;
 80048fe:	6939      	ldr	r1, [r7, #16]
 8004900:	69fa      	ldr	r2, [r7, #28]
 8004902:	4613      	mov	r3, r2
 8004904:	005b      	lsls	r3, r3, #1
 8004906:	4413      	add	r3, r2
 8004908:	00db      	lsls	r3, r3, #3
 800490a:	440b      	add	r3, r1
 800490c:	3328      	adds	r3, #40	@ 0x28
 800490e:	2200      	movs	r2, #0
 8004910:	601a      	str	r2, [r3, #0]
    pRTTCB->aUp[BufferIndex].WrOff        = 0u;
 8004912:	6939      	ldr	r1, [r7, #16]
 8004914:	69fa      	ldr	r2, [r7, #28]
 8004916:	4613      	mov	r3, r2
 8004918:	005b      	lsls	r3, r3, #1
 800491a:	4413      	add	r3, r2
 800491c:	00db      	lsls	r3, r3, #3
 800491e:	440b      	add	r3, r1
 8004920:	3324      	adds	r3, #36	@ 0x24
 8004922:	2200      	movs	r2, #0
 8004924:	601a      	str	r2, [r3, #0]
    pRTTCB->aUp[BufferIndex].Flags        = Flags;
 8004926:	6939      	ldr	r1, [r7, #16]
 8004928:	69fa      	ldr	r2, [r7, #28]
 800492a:	4613      	mov	r3, r2
 800492c:	005b      	lsls	r3, r3, #1
 800492e:	4413      	add	r3, r2
 8004930:	00db      	lsls	r3, r3, #3
 8004932:	440b      	add	r3, r1
 8004934:	332c      	adds	r3, #44	@ 0x2c
 8004936:	683a      	ldr	r2, [r7, #0]
 8004938:	601a      	str	r2, [r3, #0]
    RTT__DMB();                     // Force data write to be complete before writing the <WrOff>, in case CPU is allowed to change the order of memory accesses
 800493a:	f3bf 8f5f 	dmb	sy
 800493e:	e002      	b.n	8004946 <SEGGER_RTT_AllocUpBuffer+0xf2>
  } else {
    BufferIndex = -1;
 8004940:	f04f 33ff 	mov.w	r3, #4294967295	@ 0xffffffff
 8004944:	61fb      	str	r3, [r7, #28]
  }
  SEGGER_RTT_UNLOCK();
 8004946:	697b      	ldr	r3, [r7, #20]
 8004948:	f383 8811 	msr	BASEPRI, r3
  return BufferIndex;
 800494c:	69fb      	ldr	r3, [r7, #28]
}
 800494e:	4618      	mov	r0, r3
 8004950:	3720      	adds	r7, #32
 8004952:	46bd      	mov	sp, r7
 8004954:	bd80      	pop	{r7, pc}
 8004956:	bf00      	nop
 8004958:	20012e58 	.word	0x20012e58

0800495c <SEGGER_RTT_ConfigDownBuffer>:
*  Additional information
*    Buffer 0 is configured on compile-time.
*    May only be called once per buffer.
*    Buffer name and flags can be reconfigured using the appropriate functions.
*/
int SEGGER_RTT_ConfigDownBuffer(unsigned BufferIndex, const char* sName, void* pBuffer, unsigned BufferSize, unsigned Flags) {
 800495c:	b580      	push	{r7, lr}
 800495e:	b08a      	sub	sp, #40	@ 0x28
 8004960:	af00      	add	r7, sp, #0
 8004962:	60f8      	str	r0, [r7, #12]
 8004964:	60b9      	str	r1, [r7, #8]
 8004966:	607a      	str	r2, [r7, #4]
 8004968:	603b      	str	r3, [r7, #0]
  int r;
  volatile SEGGER_RTT_CB* pRTTCB;
  volatile SEGGER_RTT_BUFFER_DOWN* pDown;

  INIT();
 800496a:	4b21      	ldr	r3, [pc, #132]	@ (80049f0 <SEGGER_RTT_ConfigDownBuffer+0x94>)
 800496c:	623b      	str	r3, [r7, #32]
 800496e:	6a3b      	ldr	r3, [r7, #32]
 8004970:	781b      	ldrb	r3, [r3, #0]
 8004972:	b2db      	uxtb	r3, r3
 8004974:	2b53      	cmp	r3, #83	@ 0x53
 8004976:	d001      	beq.n	800497c <SEGGER_RTT_ConfigDownBuffer+0x20>
 8004978:	f7ff fe8c 	bl	8004694 <_DoInit>
  pRTTCB = (volatile SEGGER_RTT_CB*)((uintptr_t)&_SEGGER_RTT + SEGGER_RTT_UNCACHED_OFF);  // Access RTTCB uncached to make sure we see changes made by the J-Link side and all of our changes go into HW directly
 800497c:	4b1c      	ldr	r3, [pc, #112]	@ (80049f0 <SEGGER_RTT_ConfigDownBuffer+0x94>)
 800497e:	61fb      	str	r3, [r7, #28]
  if (BufferIndex < SEGGER_RTT_MAX_NUM_DOWN_BUFFERS) {
 8004980:	68fb      	ldr	r3, [r7, #12]
 8004982:	2b02      	cmp	r3, #2
 8004984:	d82c      	bhi.n	80049e0 <SEGGER_RTT_ConfigDownBuffer+0x84>
    SEGGER_RTT_LOCK();
 8004986:	f3ef 8311 	mrs	r3, BASEPRI
 800498a:	f04f 0120 	mov.w	r1, #32
 800498e:	f381 8811 	msr	BASEPRI, r1
 8004992:	61bb      	str	r3, [r7, #24]
    pDown = &pRTTCB->aDown[BufferIndex];
 8004994:	68fa      	ldr	r2, [r7, #12]
 8004996:	4613      	mov	r3, r2
 8004998:	005b      	lsls	r3, r3, #1
 800499a:	4413      	add	r3, r2
 800499c:	00db      	lsls	r3, r3, #3
 800499e:	3360      	adds	r3, #96	@ 0x60
 80049a0:	69fa      	ldr	r2, [r7, #28]
 80049a2:	4413      	add	r3, r2
 80049a4:	617b      	str	r3, [r7, #20]
    if (BufferIndex) {
 80049a6:	68fb      	ldr	r3, [r7, #12]
 80049a8:	2b00      	cmp	r3, #0
 80049aa:	d00e      	beq.n	80049ca <SEGGER_RTT_ConfigDownBuffer+0x6e>
      pDown->sName        = sName;
 80049ac:	697b      	ldr	r3, [r7, #20]
 80049ae:	68ba      	ldr	r2, [r7, #8]
 80049b0:	601a      	str	r2, [r3, #0]
      pDown->pBuffer      = (char*)pBuffer;
 80049b2:	697b      	ldr	r3, [r7, #20]
 80049b4:	687a      	ldr	r2, [r7, #4]
 80049b6:	605a      	str	r2, [r3, #4]
      pDown->SizeOfBuffer = BufferSize;
 80049b8:	697b      	ldr	r3, [r7, #20]
 80049ba:	683a      	ldr	r2, [r7, #0]
 80049bc:	609a      	str	r2, [r3, #8]
      pDown->RdOff        = 0u;
 80049be:	697b      	ldr	r3, [r7, #20]
 80049c0:	2200      	movs	r2, #0
 80049c2:	611a      	str	r2, [r3, #16]
      pDown->WrOff        = 0u;
 80049c4:	697b      	ldr	r3, [r7, #20]
 80049c6:	2200      	movs	r2, #0
 80049c8:	60da      	str	r2, [r3, #12]
    }
    pDown->Flags          = Flags;
 80049ca:	697b      	ldr	r3, [r7, #20]
 80049cc:	6b3a      	ldr	r2, [r7, #48]	@ 0x30
 80049ce:	615a      	str	r2, [r3, #20]
    RTT__DMB();                     // Force data write to be complete before writing the <WrOff>, in case CPU is allowed to change the order of memory accesses
 80049d0:	f3bf 8f5f 	dmb	sy
    SEGGER_RTT_UNLOCK();
 80049d4:	69bb      	ldr	r3, [r7, #24]
 80049d6:	f383 8811 	msr	BASEPRI, r3
    r =  0;
 80049da:	2300      	movs	r3, #0
 80049dc:	627b      	str	r3, [r7, #36]	@ 0x24
 80049de:	e002      	b.n	80049e6 <SEGGER_RTT_ConfigDownBuffer+0x8a>
  } else {
    r = -1;
 80049e0:	f04f 33ff 	mov.w	r3, #4294967295	@ 0xffffffff
 80049e4:	627b      	str	r3, [r7, #36]	@ 0x24
  }
  return r;
 80049e6:	6a7b      	ldr	r3, [r7, #36]	@ 0x24
}
 80049e8:	4618      	mov	r0, r3
 80049ea:	3728      	adds	r7, #40	@ 0x28
 80049ec:	46bd      	mov	sp, r7
 80049ee:	bd80      	pop	{r7, pc}
 80049f0:	20012e58 	.word	0x20012e58

080049f4 <_EncodeStr>:
*  Additional information
*    The string is encoded as a count byte followed by the contents
*    of the string.
*    No more than 1 + Limit bytes will be encoded to the payload.
*/
static U8 *_EncodeStr(U8 *pPayload, const char *pText, unsigned int Limit) {
 80049f4:	b480      	push	{r7}
 80049f6:	b087      	sub	sp, #28
 80049f8:	af00      	add	r7, sp, #0
 80049fa:	60f8      	str	r0, [r7, #12]
 80049fc:	60b9      	str	r1, [r7, #8]
 80049fe:	607a      	str	r2, [r7, #4]
  U8* pLen;
  const char* sStart;

  if (pText == NULL) {
 8004a00:	68bb      	ldr	r3, [r7, #8]
 8004a02:	2b00      	cmp	r3, #0
 8004a04:	d105      	bne.n	8004a12 <_EncodeStr+0x1e>
    *pPayload++ = (U8)0;
 8004a06:	68fb      	ldr	r3, [r7, #12]
 8004a08:	1c5a      	adds	r2, r3, #1
 8004a0a:	60fa      	str	r2, [r7, #12]
 8004a0c:	2200      	movs	r2, #0
 8004a0e:	701a      	strb	r2, [r3, #0]
 8004a10:	e022      	b.n	8004a58 <_EncodeStr+0x64>
  } else {
    sStart = pText; // Remember start of string.
 8004a12:	68bb      	ldr	r3, [r7, #8]
 8004a14:	617b      	str	r3, [r7, #20]
    //
    // Save space to store count byte(s).
    //
    pLen = pPayload++;
 8004a16:	68fb      	ldr	r3, [r7, #12]
 8004a18:	1c5a      	adds	r2, r3, #1
 8004a1a:	60fa      	str	r2, [r7, #12]
 8004a1c:	613b      	str	r3, [r7, #16]
    pPayload += 2;
#endif
    //
    // Limit string to maximum length and copy into payload buffer.
    //
    if (Limit > SEGGER_SYSVIEW_MAX_STRING_LEN) {
 8004a1e:	687b      	ldr	r3, [r7, #4]
 8004a20:	2b80      	cmp	r3, #128	@ 0x80
 8004a22:	d90a      	bls.n	8004a3a <_EncodeStr+0x46>
      Limit = SEGGER_SYSVIEW_MAX_STRING_LEN;
 8004a24:	2380      	movs	r3, #128	@ 0x80
 8004a26:	607b      	str	r3, [r7, #4]
    }
    while ((Limit-- > 0) && (*pText != '\0')) {
 8004a28:	e007      	b.n	8004a3a <_EncodeStr+0x46>
      *pPayload++ = *pText++;
 8004a2a:	68ba      	ldr	r2, [r7, #8]
 8004a2c:	1c53      	adds	r3, r2, #1
 8004a2e:	60bb      	str	r3, [r7, #8]
 8004a30:	68fb      	ldr	r3, [r7, #12]
 8004a32:	1c59      	adds	r1, r3, #1
 8004a34:	60f9      	str	r1, [r7, #12]
 8004a36:	7812      	ldrb	r2, [r2, #0]
 8004a38:	701a      	strb	r2, [r3, #0]
    while ((Limit-- > 0) && (*pText != '\0')) {
 8004a3a:	687b      	ldr	r3, [r7, #4]
 8004a3c:	1e5a      	subs	r2, r3, #1
 8004a3e:	607a      	str	r2, [r7, #4]
 8004a40:	2b00      	cmp	r3, #0
 8004a42:	d003      	beq.n	8004a4c <_EncodeStr+0x58>
 8004a44:	68bb      	ldr	r3, [r7, #8]
 8004a46:	781b      	ldrb	r3, [r3, #0]
 8004a48:	2b00      	cmp	r3, #0
 8004a4a:	d1ee      	bne.n	8004a2a <_EncodeStr+0x36>
    Limit = (unsigned int)(pText - sStart);
    *pLen++ = (U8)255;
    *pLen++ = (U8)((Limit >> 8) & 255);
    *pLen++ = (U8)(Limit & 255);
#else   // Length always encodes in 1 byte
    *pLen = (U8)(pText - sStart);
 8004a4c:	68ba      	ldr	r2, [r7, #8]
 8004a4e:	697b      	ldr	r3, [r7, #20]
 8004a50:	1ad3      	subs	r3, r2, r3
 8004a52:	b2da      	uxtb	r2, r3
 8004a54:	693b      	ldr	r3, [r7, #16]
 8004a56:	701a      	strb	r2, [r3, #0]
#endif
  }
  //
  return pPayload;
 8004a58:	68fb      	ldr	r3, [r7, #12]
}
 8004a5a:	4618      	mov	r0, r3
 8004a5c:	371c      	adds	r7, #28
 8004a5e:	46bd      	mov	sp, r7
 8004a60:	f85d 7b04 	ldr.w	r7, [sp], #4
 8004a64:	4770      	bx	lr

08004a66 <_PreparePacket>:
*  Additional information
*    The payload length and evnetId are not initialized.
*    PreparePacket only reserves space for them and they are
*    computed and filled in by the sending function.
*/
static U8* _PreparePacket(U8* pPacket) {
 8004a66:	b480      	push	{r7}
 8004a68:	b083      	sub	sp, #12
 8004a6a:	af00      	add	r7, sp, #0
 8004a6c:	6078      	str	r0, [r7, #4]
  return pPacket + _MAX_ID_BYTES + _MAX_DATA_BYTES;
 8004a6e:	687b      	ldr	r3, [r7, #4]
 8004a70:	3307      	adds	r3, #7
}
 8004a72:	4618      	mov	r0, r3
 8004a74:	370c      	adds	r7, #12
 8004a76:	46bd      	mov	sp, r7
 8004a78:	f85d 7b04 	ldr.w	r7, [sp], #4
 8004a7c:	4770      	bx	lr
	...

08004a80 <_HandleIncomingPacket>:
*    This function is called each time after sending a packet.
*    Processing incoming packets is done asynchronous. SystemView might
*    already have sent event packets after the host has sent a command.
*/
#if (SEGGER_SYSVIEW_POST_MORTEM_MODE != 1)
static void _HandleIncomingPacket(void) {
 8004a80:	b580      	push	{r7, lr}
 8004a82:	b082      	sub	sp, #8
 8004a84:	af00      	add	r7, sp, #0
  U8  Cmd;
  unsigned int Status;
  //
  Status = SEGGER_RTT_ReadNoLock(CHANNEL_ID_DOWN, &Cmd, 1);
 8004a86:	4b34      	ldr	r3, [pc, #208]	@ (8004b58 <_HandleIncomingPacket+0xd8>)
 8004a88:	7e1b      	ldrb	r3, [r3, #24]
 8004a8a:	4618      	mov	r0, r3
 8004a8c:	1cfb      	adds	r3, r7, #3
 8004a8e:	2201      	movs	r2, #1
 8004a90:	4619      	mov	r1, r3
 8004a92:	f7ff fe59 	bl	8004748 <SEGGER_RTT_ReadNoLock>
 8004a96:	6078      	str	r0, [r7, #4]
  if (Status > 0) {
 8004a98:	687b      	ldr	r3, [r7, #4]
 8004a9a:	2b00      	cmp	r3, #0
 8004a9c:	d057      	beq.n	8004b4e <_HandleIncomingPacket+0xce>
    switch (Cmd) {
 8004a9e:	78fb      	ldrb	r3, [r7, #3]
 8004aa0:	2b80      	cmp	r3, #128	@ 0x80
 8004aa2:	d031      	beq.n	8004b08 <_HandleIncomingPacket+0x88>
 8004aa4:	2b80      	cmp	r3, #128	@ 0x80
 8004aa6:	dc40      	bgt.n	8004b2a <_HandleIncomingPacket+0xaa>
 8004aa8:	2b07      	cmp	r3, #7
 8004aaa:	dc15      	bgt.n	8004ad8 <_HandleIncomingPacket+0x58>
 8004aac:	2b00      	cmp	r3, #0
 8004aae:	dd3c      	ble.n	8004b2a <_HandleIncomingPacket+0xaa>
 8004ab0:	3b01      	subs	r3, #1
 8004ab2:	2b06      	cmp	r3, #6
 8004ab4:	d839      	bhi.n	8004b2a <_HandleIncomingPacket+0xaa>
 8004ab6:	a201      	add	r2, pc, #4	@ (adr r2, 8004abc <_HandleIncomingPacket+0x3c>)
 8004ab8:	f852 f023 	ldr.w	pc, [r2, r3, lsl #2]
 8004abc:	08004adf 	.word	0x08004adf
 8004ac0:	08004ae5 	.word	0x08004ae5
 8004ac4:	08004aeb 	.word	0x08004aeb
 8004ac8:	08004af1 	.word	0x08004af1
 8004acc:	08004af7 	.word	0x08004af7
 8004ad0:	08004afd 	.word	0x08004afd
 8004ad4:	08004b03 	.word	0x08004b03
 8004ad8:	2b7f      	cmp	r3, #127	@ 0x7f
 8004ada:	d033      	beq.n	8004b44 <_HandleIncomingPacket+0xc4>
 8004adc:	e025      	b.n	8004b2a <_HandleIncomingPacket+0xaa>
    case SEGGER_SYSVIEW_COMMAND_ID_START:
      SEGGER_SYSVIEW_Start();
 8004ade:	f000 fc9d 	bl	800541c <SEGGER_SYSVIEW_Start>
      break;
 8004ae2:	e034      	b.n	8004b4e <_HandleIncomingPacket+0xce>
    case SEGGER_SYSVIEW_COMMAND_ID_STOP:
      SEGGER_SYSVIEW_Stop();
 8004ae4:	f000 fd54 	bl	8005590 <SEGGER_SYSVIEW_Stop>
      break;
 8004ae8:	e031      	b.n	8004b4e <_HandleIncomingPacket+0xce>
    case SEGGER_SYSVIEW_COMMAND_ID_GET_SYSTIME:
      SEGGER_SYSVIEW_RecordSystime();
 8004aea:	f000 ff2d 	bl	8005948 <SEGGER_SYSVIEW_RecordSystime>
      break;
 8004aee:	e02e      	b.n	8004b4e <_HandleIncomingPacket+0xce>
    case SEGGER_SYSVIEW_COMMAND_ID_GET_TASKLIST:
      SEGGER_SYSVIEW_SendTaskList();
 8004af0:	f000 fef2 	bl	80058d8 <SEGGER_SYSVIEW_SendTaskList>
      break;
 8004af4:	e02b      	b.n	8004b4e <_HandleIncomingPacket+0xce>
    case SEGGER_SYSVIEW_COMMAND_ID_GET_SYSDESC:
      SEGGER_SYSVIEW_GetSysDesc();
 8004af6:	f000 fd71 	bl	80055dc <SEGGER_SYSVIEW_GetSysDesc>
      break;
 8004afa:	e028      	b.n	8004b4e <_HandleIncomingPacket+0xce>
    case SEGGER_SYSVIEW_COMMAND_ID_GET_NUMMODULES:
      SEGGER_SYSVIEW_SendNumModules();
 8004afc:	f001 fa5e 	bl	8005fbc <SEGGER_SYSVIEW_SendNumModules>
      break;
 8004b00:	e025      	b.n	8004b4e <_HandleIncomingPacket+0xce>
    case SEGGER_SYSVIEW_COMMAND_ID_GET_MODULEDESC:
      SEGGER_SYSVIEW_SendModuleDescription();
 8004b02:	f001 fa3d 	bl	8005f80 <SEGGER_SYSVIEW_SendModuleDescription>
      break;
 8004b06:	e022      	b.n	8004b4e <_HandleIncomingPacket+0xce>
    case SEGGER_SYSVIEW_COMMAND_ID_GET_MODULE:
      Status = SEGGER_RTT_ReadNoLock(CHANNEL_ID_DOWN, &Cmd, 1);
 8004b08:	4b13      	ldr	r3, [pc, #76]	@ (8004b58 <_HandleIncomingPacket+0xd8>)
 8004b0a:	7e1b      	ldrb	r3, [r3, #24]
 8004b0c:	4618      	mov	r0, r3
 8004b0e:	1cfb      	adds	r3, r7, #3
 8004b10:	2201      	movs	r2, #1
 8004b12:	4619      	mov	r1, r3
 8004b14:	f7ff fe18 	bl	8004748 <SEGGER_RTT_ReadNoLock>
 8004b18:	6078      	str	r0, [r7, #4]
      if (Status > 0) {
 8004b1a:	687b      	ldr	r3, [r7, #4]
 8004b1c:	2b00      	cmp	r3, #0
 8004b1e:	d013      	beq.n	8004b48 <_HandleIncomingPacket+0xc8>
        SEGGER_SYSVIEW_SendModule(Cmd);
 8004b20:	78fb      	ldrb	r3, [r7, #3]
 8004b22:	4618      	mov	r0, r3
 8004b24:	f001 f9a2 	bl	8005e6c <SEGGER_SYSVIEW_SendModule>
      }
      break;
 8004b28:	e00e      	b.n	8004b48 <_HandleIncomingPacket+0xc8>
    case SEGGER_SYSVIEW_COMMAND_ID_HEARTBEAT:
      break;
    default:
      if (Cmd >= 128) { // Unknown extended command. Dummy read its parameter.
 8004b2a:	78fb      	ldrb	r3, [r7, #3]
 8004b2c:	b25b      	sxtb	r3, r3
 8004b2e:	2b00      	cmp	r3, #0
 8004b30:	da0c      	bge.n	8004b4c <_HandleIncomingPacket+0xcc>
        SEGGER_RTT_ReadNoLock(CHANNEL_ID_DOWN, &Cmd, 1);
 8004b32:	4b09      	ldr	r3, [pc, #36]	@ (8004b58 <_HandleIncomingPacket+0xd8>)
 8004b34:	7e1b      	ldrb	r3, [r3, #24]
 8004b36:	4618      	mov	r0, r3
 8004b38:	1cfb      	adds	r3, r7, #3
 8004b3a:	2201      	movs	r2, #1
 8004b3c:	4619      	mov	r1, r3
 8004b3e:	f7ff fe03 	bl	8004748 <SEGGER_RTT_ReadNoLock>
      }
      break;
 8004b42:	e003      	b.n	8004b4c <_HandleIncomingPacket+0xcc>
      break;
 8004b44:	bf00      	nop
 8004b46:	e002      	b.n	8004b4e <_HandleIncomingPacket+0xce>
      break;
 8004b48:	bf00      	nop
 8004b4a:	e000      	b.n	8004b4e <_HandleIncomingPacket+0xce>
      break;
 8004b4c:	bf00      	nop
    }
  }
}
 8004b4e:	bf00      	nop
 8004b50:	3708      	adds	r7, #8
 8004b52:	46bd      	mov	sp, r7
 8004b54:	bd80      	pop	{r7, pc}
 8004b56:	bf00      	nop
 8004b58:	20014318 	.word	0x20014318

08004b5c <_TrySendOverflowPacket>:
*    !=0:  Success, Message sent (stored in RTT-Buffer)
*    ==0:  Buffer full, Message *NOT* stored
*
*/
#if (SEGGER_SYSVIEW_POST_MORTEM_MODE != 1)
static int _TrySendOverflowPacket(void) {
 8004b5c:	b580      	push	{r7, lr}
 8004b5e:	b08c      	sub	sp, #48	@ 0x30
 8004b60:	af00      	add	r7, sp, #0
  I32 Delta;
  int Status;
  U8  aPacket[11];
  U8* pPayload;

  aPacket[0] = SYSVIEW_EVTID_OVERFLOW;      // 1
 8004b62:	2301      	movs	r3, #1
 8004b64:	713b      	strb	r3, [r7, #4]
  pPayload   = &aPacket[1];
 8004b66:	1d3b      	adds	r3, r7, #4
 8004b68:	3301      	adds	r3, #1
 8004b6a:	61fb      	str	r3, [r7, #28]
  ENCODE_U32(pPayload, _SYSVIEW_Globals.DropCount);
 8004b6c:	69fb      	ldr	r3, [r7, #28]
 8004b6e:	62fb      	str	r3, [r7, #44]	@ 0x2c
 8004b70:	4b31      	ldr	r3, [pc, #196]	@ (8004c38 <_TrySendOverflowPacket+0xdc>)
 8004b72:	695b      	ldr	r3, [r3, #20]
 8004b74:	62bb      	str	r3, [r7, #40]	@ 0x28
 8004b76:	e00b      	b.n	8004b90 <_TrySendOverflowPacket+0x34>
 8004b78:	6abb      	ldr	r3, [r7, #40]	@ 0x28
 8004b7a:	b2da      	uxtb	r2, r3
 8004b7c:	6afb      	ldr	r3, [r7, #44]	@ 0x2c
 8004b7e:	1c59      	adds	r1, r3, #1
 8004b80:	62f9      	str	r1, [r7, #44]	@ 0x2c
 8004b82:	f062 027f 	orn	r2, r2, #127	@ 0x7f
 8004b86:	b2d2      	uxtb	r2, r2
 8004b88:	701a      	strb	r2, [r3, #0]
 8004b8a:	6abb      	ldr	r3, [r7, #40]	@ 0x28
 8004b8c:	09db      	lsrs	r3, r3, #7
 8004b8e:	62bb      	str	r3, [r7, #40]	@ 0x28
 8004b90:	6abb      	ldr	r3, [r7, #40]	@ 0x28
 8004b92:	2b7f      	cmp	r3, #127	@ 0x7f
 8004b94:	d8f0      	bhi.n	8004b78 <_TrySendOverflowPacket+0x1c>
 8004b96:	6afb      	ldr	r3, [r7, #44]	@ 0x2c
 8004b98:	1c5a      	adds	r2, r3, #1
 8004b9a:	62fa      	str	r2, [r7, #44]	@ 0x2c
 8004b9c:	6aba      	ldr	r2, [r7, #40]	@ 0x28
 8004b9e:	b2d2      	uxtb	r2, r2
 8004ba0:	701a      	strb	r2, [r3, #0]
 8004ba2:	6afb      	ldr	r3, [r7, #44]	@ 0x2c
 8004ba4:	61fb      	str	r3, [r7, #28]
  //
  // Compute time stamp delta and append it to packet.
  //
  TimeStamp  = SEGGER_SYSVIEW_GET_TIMESTAMP();
 8004ba6:	4b25      	ldr	r3, [pc, #148]	@ (8004c3c <_TrySendOverflowPacket+0xe0>)
 8004ba8:	681b      	ldr	r3, [r3, #0]
 8004baa:	61bb      	str	r3, [r7, #24]
  Delta = (I32)(TimeStamp - _SYSVIEW_Globals.LastTxTimeStamp);
 8004bac:	4b22      	ldr	r3, [pc, #136]	@ (8004c38 <_TrySendOverflowPacket+0xdc>)
 8004bae:	68db      	ldr	r3, [r3, #12]
 8004bb0:	69ba      	ldr	r2, [r7, #24]
 8004bb2:	1ad3      	subs	r3, r2, r3
 8004bb4:	617b      	str	r3, [r7, #20]
  MAKE_DELTA_32BIT(Delta);
  ENCODE_U32(pPayload, Delta);
 8004bb6:	69fb      	ldr	r3, [r7, #28]
 8004bb8:	627b      	str	r3, [r7, #36]	@ 0x24
 8004bba:	697b      	ldr	r3, [r7, #20]
 8004bbc:	623b      	str	r3, [r7, #32]
 8004bbe:	e00b      	b.n	8004bd8 <_TrySendOverflowPacket+0x7c>
 8004bc0:	6a3b      	ldr	r3, [r7, #32]
 8004bc2:	b2da      	uxtb	r2, r3
 8004bc4:	6a7b      	ldr	r3, [r7, #36]	@ 0x24
 8004bc6:	1c59      	adds	r1, r3, #1
 8004bc8:	6279      	str	r1, [r7, #36]	@ 0x24
 8004bca:	f062 027f 	orn	r2, r2, #127	@ 0x7f
 8004bce:	b2d2      	uxtb	r2, r2
 8004bd0:	701a      	strb	r2, [r3, #0]
 8004bd2:	6a3b      	ldr	r3, [r7, #32]
 8004bd4:	09db      	lsrs	r3, r3, #7
 8004bd6:	623b      	str	r3, [r7, #32]
 8004bd8:	6a3b      	ldr	r3, [r7, #32]
 8004bda:	2b7f      	cmp	r3, #127	@ 0x7f
 8004bdc:	d8f0      	bhi.n	8004bc0 <_TrySendOverflowPacket+0x64>
 8004bde:	6a7b      	ldr	r3, [r7, #36]	@ 0x24
 8004be0:	1c5a      	adds	r2, r3, #1
 8004be2:	627a      	str	r2, [r7, #36]	@ 0x24
 8004be4:	6a3a      	ldr	r2, [r7, #32]
 8004be6:	b2d2      	uxtb	r2, r2
 8004be8:	701a      	strb	r2, [r3, #0]
 8004bea:	6a7b      	ldr	r3, [r7, #36]	@ 0x24
 8004bec:	61fb      	str	r3, [r7, #28]
  //
  // Try to store packet in RTT buffer and update time stamp when this was successful
  //
  Status = (int)SEGGER_RTT_WriteSkipNoLock(CHANNEL_ID_UP, aPacket, (unsigned int)(pPayload - aPacket));
 8004bee:	4b12      	ldr	r3, [pc, #72]	@ (8004c38 <_TrySendOverflowPacket+0xdc>)
 8004bf0:	785b      	ldrb	r3, [r3, #1]
 8004bf2:	4618      	mov	r0, r3
 8004bf4:	1d3b      	adds	r3, r7, #4
 8004bf6:	69fa      	ldr	r2, [r7, #28]
 8004bf8:	1ad3      	subs	r3, r2, r3
 8004bfa:	461a      	mov	r2, r3
 8004bfc:	1d3b      	adds	r3, r7, #4
 8004bfe:	4619      	mov	r1, r3
 8004c00:	f7fb fae6 	bl	80001d0 <SEGGER_RTT_ASM_WriteSkipNoLock>
 8004c04:	4603      	mov	r3, r0
 8004c06:	613b      	str	r3, [r7, #16]
  SEGGER_SYSVIEW_ON_EVENT_RECORDED(pPayload - aPacket);
  if (Status) {
 8004c08:	693b      	ldr	r3, [r7, #16]
 8004c0a:	2b00      	cmp	r3, #0
 8004c0c:	d009      	beq.n	8004c22 <_TrySendOverflowPacket+0xc6>
    _SYSVIEW_Globals.LastTxTimeStamp = TimeStamp;
 8004c0e:	4a0a      	ldr	r2, [pc, #40]	@ (8004c38 <_TrySendOverflowPacket+0xdc>)
 8004c10:	69bb      	ldr	r3, [r7, #24]
 8004c12:	60d3      	str	r3, [r2, #12]
    _SYSVIEW_Globals.EnableState--; // EnableState has been 2, will be 1. Always.
 8004c14:	4b08      	ldr	r3, [pc, #32]	@ (8004c38 <_TrySendOverflowPacket+0xdc>)
 8004c16:	781b      	ldrb	r3, [r3, #0]
 8004c18:	3b01      	subs	r3, #1
 8004c1a:	b2da      	uxtb	r2, r3
 8004c1c:	4b06      	ldr	r3, [pc, #24]	@ (8004c38 <_TrySendOverflowPacket+0xdc>)
 8004c1e:	701a      	strb	r2, [r3, #0]
 8004c20:	e004      	b.n	8004c2c <_TrySendOverflowPacket+0xd0>
  } else {
    _SYSVIEW_Globals.DropCount++;
 8004c22:	4b05      	ldr	r3, [pc, #20]	@ (8004c38 <_TrySendOverflowPacket+0xdc>)
 8004c24:	695b      	ldr	r3, [r3, #20]
 8004c26:	3301      	adds	r3, #1
 8004c28:	4a03      	ldr	r2, [pc, #12]	@ (8004c38 <_TrySendOverflowPacket+0xdc>)
 8004c2a:	6153      	str	r3, [r2, #20]
  }
  //
  return Status;
 8004c2c:	693b      	ldr	r3, [r7, #16]
}
 8004c2e:	4618      	mov	r0, r3
 8004c30:	3730      	adds	r7, #48	@ 0x30
 8004c32:	46bd      	mov	sp, r7
 8004c34:	bd80      	pop	{r7, pc}
 8004c36:	bf00      	nop
 8004c38:	20014318 	.word	0x20014318
 8004c3c:	e0001004 	.word	0xe0001004

08004c40 <_SendPacket>:
*                   There must be at least 4 bytes free to prepend Id and Length.
*    pEndPacket   - Pointer to end of packet payload.
*    EventId      - Id of the event to send.
*
*/
static void _SendPacket(U8* pStartPacket, U8* pEndPacket, unsigned int EventId) {
 8004c40:	b580      	push	{r7, lr}
 8004c42:	b08a      	sub	sp, #40	@ 0x28
 8004c44:	af00      	add	r7, sp, #0
 8004c46:	60f8      	str	r0, [r7, #12]
 8004c48:	60b9      	str	r1, [r7, #8]
 8004c4a:	607a      	str	r2, [r7, #4]
#if (SEGGER_SYSVIEW_POST_MORTEM_MODE == 1)
  if (_SYSVIEW_Globals.EnableState == 0) {
    goto SendDone;
  }
#else
  if (_SYSVIEW_Globals.EnableState == 1) {  // Enabled, no dropped packets remaining
 8004c4c:	4b98      	ldr	r3, [pc, #608]	@ (8004eb0 <_SendPacket+0x270>)
 8004c4e:	781b      	ldrb	r3, [r3, #0]
 8004c50:	2b01      	cmp	r3, #1
 8004c52:	d010      	beq.n	8004c76 <_SendPacket+0x36>
    goto Send;
  }
  if (_SYSVIEW_Globals.EnableState == 0) {
 8004c54:	4b96      	ldr	r3, [pc, #600]	@ (8004eb0 <_SendPacket+0x270>)
 8004c56:	781b      	ldrb	r3, [r3, #0]
 8004c58:	2b00      	cmp	r3, #0
 8004c5a:	f000 812d 	beq.w	8004eb8 <_SendPacket+0x278>
  //
  // Handle buffer full situations:
  // Have packets been dropped before because buffer was full?
  // In this case try to send and overflow packet.
  //
  if (_SYSVIEW_Globals.EnableState == 2) {
 8004c5e:	4b94      	ldr	r3, [pc, #592]	@ (8004eb0 <_SendPacket+0x270>)
 8004c60:	781b      	ldrb	r3, [r3, #0]
 8004c62:	2b02      	cmp	r3, #2
 8004c64:	d109      	bne.n	8004c7a <_SendPacket+0x3a>
    _TrySendOverflowPacket();
 8004c66:	f7ff ff79 	bl	8004b5c <_TrySendOverflowPacket>
    if (_SYSVIEW_Globals.EnableState != 1) {
 8004c6a:	4b91      	ldr	r3, [pc, #580]	@ (8004eb0 <_SendPacket+0x270>)
 8004c6c:	781b      	ldrb	r3, [r3, #0]
 8004c6e:	2b01      	cmp	r3, #1
 8004c70:	f040 8124 	bne.w	8004ebc <_SendPacket+0x27c>
      goto SendDone;
    }
  }
Send:
 8004c74:	e001      	b.n	8004c7a <_SendPacket+0x3a>
    goto Send;
 8004c76:	bf00      	nop
 8004c78:	e000      	b.n	8004c7c <_SendPacket+0x3c>
Send:
 8004c7a:	bf00      	nop
#endif
  //
  // Check if event is disabled from being recorded.
  //
  if (EventId < 32) {
 8004c7c:	687b      	ldr	r3, [r7, #4]
 8004c7e:	2b1f      	cmp	r3, #31
 8004c80:	d809      	bhi.n	8004c96 <_SendPacket+0x56>
    if (_SYSVIEW_Globals.DisabledEvents & ((U32)1u << EventId)) {
 8004c82:	4b8b      	ldr	r3, [pc, #556]	@ (8004eb0 <_SendPacket+0x270>)
 8004c84:	69da      	ldr	r2, [r3, #28]
 8004c86:	687b      	ldr	r3, [r7, #4]
 8004c88:	fa22 f303 	lsr.w	r3, r2, r3
 8004c8c:	f003 0301 	and.w	r3, r3, #1
 8004c90:	2b00      	cmp	r3, #0
 8004c92:	f040 8115 	bne.w	8004ec0 <_SendPacket+0x280>
  //
  // Prepare actual packet.
  // If it is a known packet, prepend eventId only,
  // otherwise prepend packet length and eventId.
  //
  if (EventId < 24) {
 8004c96:	687b      	ldr	r3, [r7, #4]
 8004c98:	2b17      	cmp	r3, #23
 8004c9a:	d807      	bhi.n	8004cac <_SendPacket+0x6c>
    *--pStartPacket = (U8)EventId;
 8004c9c:	68fb      	ldr	r3, [r7, #12]
 8004c9e:	3b01      	subs	r3, #1
 8004ca0:	60fb      	str	r3, [r7, #12]
 8004ca2:	687b      	ldr	r3, [r7, #4]
 8004ca4:	b2da      	uxtb	r2, r3
 8004ca6:	68fb      	ldr	r3, [r7, #12]
 8004ca8:	701a      	strb	r2, [r3, #0]
 8004caa:	e0c4      	b.n	8004e36 <_SendPacket+0x1f6>
  } else {
    //
    // Get data length and prepend it.
    //
    NumBytes = (unsigned int)(pEndPacket - pStartPacket);
 8004cac:	68ba      	ldr	r2, [r7, #8]
 8004cae:	68fb      	ldr	r3, [r7, #12]
 8004cb0:	1ad3      	subs	r3, r2, r3
 8004cb2:	61fb      	str	r3, [r7, #28]
        *--pStartPacket = (U8)((NumBytes >>  7) | 0x80);
        *--pStartPacket = (U8)(NumBytes | 0x80);
      }
    }
#else
    if (NumBytes > 127) {
 8004cb4:	69fb      	ldr	r3, [r7, #28]
 8004cb6:	2b7f      	cmp	r3, #127	@ 0x7f
 8004cb8:	d912      	bls.n	8004ce0 <_SendPacket+0xa0>
      *--pStartPacket = (U8)(NumBytes >> 7);
 8004cba:	69fb      	ldr	r3, [r7, #28]
 8004cbc:	09da      	lsrs	r2, r3, #7
 8004cbe:	68fb      	ldr	r3, [r7, #12]
 8004cc0:	3b01      	subs	r3, #1
 8004cc2:	60fb      	str	r3, [r7, #12]
 8004cc4:	b2d2      	uxtb	r2, r2
 8004cc6:	68fb      	ldr	r3, [r7, #12]
 8004cc8:	701a      	strb	r2, [r3, #0]
      *--pStartPacket = (U8)(NumBytes | 0x80);
 8004cca:	69fb      	ldr	r3, [r7, #28]
 8004ccc:	b2db      	uxtb	r3, r3
 8004cce:	68fa      	ldr	r2, [r7, #12]
 8004cd0:	3a01      	subs	r2, #1
 8004cd2:	60fa      	str	r2, [r7, #12]
 8004cd4:	f063 037f 	orn	r3, r3, #127	@ 0x7f
 8004cd8:	b2da      	uxtb	r2, r3
 8004cda:	68fb      	ldr	r3, [r7, #12]
 8004cdc:	701a      	strb	r2, [r3, #0]
 8004cde:	e006      	b.n	8004cee <_SendPacket+0xae>
    } else {
      *--pStartPacket = (U8)NumBytes;
 8004ce0:	68fb      	ldr	r3, [r7, #12]
 8004ce2:	3b01      	subs	r3, #1
 8004ce4:	60fb      	str	r3, [r7, #12]
 8004ce6:	69fb      	ldr	r3, [r7, #28]
 8004ce8:	b2da      	uxtb	r2, r3
 8004cea:	68fb      	ldr	r3, [r7, #12]
 8004cec:	701a      	strb	r2, [r3, #0]
#endif
    //
    // Prepend EventId.
    //
#if SEGGER_SYSVIEW_SUPPORT_LONG_ID
    if (EventId < 127) {
 8004cee:	687b      	ldr	r3, [r7, #4]
 8004cf0:	2b7e      	cmp	r3, #126	@ 0x7e
 8004cf2:	d807      	bhi.n	8004d04 <_SendPacket+0xc4>
      *--pStartPacket = (U8)EventId;
 8004cf4:	68fb      	ldr	r3, [r7, #12]
 8004cf6:	3b01      	subs	r3, #1
 8004cf8:	60fb      	str	r3, [r7, #12]
 8004cfa:	687b      	ldr	r3, [r7, #4]
 8004cfc:	b2da      	uxtb	r2, r3
 8004cfe:	68fb      	ldr	r3, [r7, #12]
 8004d00:	701a      	strb	r2, [r3, #0]
 8004d02:	e098      	b.n	8004e36 <_SendPacket+0x1f6>
    } else {
      //
      // Backwards U32 encode EventId.
      //
      if (EventId < (1u << 14)) { // Encodes in 2 bytes
 8004d04:	687b      	ldr	r3, [r7, #4]
 8004d06:	f5b3 4f80 	cmp.w	r3, #16384	@ 0x4000
 8004d0a:	d212      	bcs.n	8004d32 <_SendPacket+0xf2>
        *--pStartPacket = (U8)(EventId >>  7);
 8004d0c:	687b      	ldr	r3, [r7, #4]
 8004d0e:	09da      	lsrs	r2, r3, #7
 8004d10:	68fb      	ldr	r3, [r7, #12]
 8004d12:	3b01      	subs	r3, #1
 8004d14:	60fb      	str	r3, [r7, #12]
 8004d16:	b2d2      	uxtb	r2, r2
 8004d18:	68fb      	ldr	r3, [r7, #12]
 8004d1a:	701a      	strb	r2, [r3, #0]
        *--pStartPacket = (U8)(EventId | 0x80);
 8004d1c:	687b      	ldr	r3, [r7, #4]
 8004d1e:	b2db      	uxtb	r3, r3
 8004d20:	68fa      	ldr	r2, [r7, #12]
 8004d22:	3a01      	subs	r2, #1
 8004d24:	60fa      	str	r2, [r7, #12]
 8004d26:	f063 037f 	orn	r3, r3, #127	@ 0x7f
 8004d2a:	b2da      	uxtb	r2, r3
 8004d2c:	68fb      	ldr	r3, [r7, #12]
 8004d2e:	701a      	strb	r2, [r3, #0]
 8004d30:	e081      	b.n	8004e36 <_SendPacket+0x1f6>
      } else if (EventId < (1ul << 21)) {    // Encodes in 3 bytes
 8004d32:	687b      	ldr	r3, [r7, #4]
 8004d34:	f5b3 1f00 	cmp.w	r3, #2097152	@ 0x200000
 8004d38:	d21d      	bcs.n	8004d76 <_SendPacket+0x136>
        *--pStartPacket = (U8)(EventId >> 14);
 8004d3a:	687b      	ldr	r3, [r7, #4]
 8004d3c:	0b9a      	lsrs	r2, r3, #14
 8004d3e:	68fb      	ldr	r3, [r7, #12]
 8004d40:	3b01      	subs	r3, #1
 8004d42:	60fb      	str	r3, [r7, #12]
 8004d44:	b2d2      	uxtb	r2, r2
 8004d46:	68fb      	ldr	r3, [r7, #12]
 8004d48:	701a      	strb	r2, [r3, #0]
        *--pStartPacket = (U8)((EventId >>  7) | 0x80);
 8004d4a:	687b      	ldr	r3, [r7, #4]
 8004d4c:	09db      	lsrs	r3, r3, #7
 8004d4e:	b2db      	uxtb	r3, r3
 8004d50:	68fa      	ldr	r2, [r7, #12]
 8004d52:	3a01      	subs	r2, #1
 8004d54:	60fa      	str	r2, [r7, #12]
 8004d56:	f063 037f 	orn	r3, r3, #127	@ 0x7f
 8004d5a:	b2da      	uxtb	r2, r3
 8004d5c:	68fb      	ldr	r3, [r7, #12]
 8004d5e:	701a      	strb	r2, [r3, #0]
        *--pStartPacket = (U8)(EventId | 0x80);
 8004d60:	687b      	ldr	r3, [r7, #4]
 8004d62:	b2db      	uxtb	r3, r3
 8004d64:	68fa      	ldr	r2, [r7, #12]
 8004d66:	3a01      	subs	r2, #1
 8004d68:	60fa      	str	r2, [r7, #12]
 8004d6a:	f063 037f 	orn	r3, r3, #127	@ 0x7f
 8004d6e:	b2da      	uxtb	r2, r3
 8004d70:	68fb      	ldr	r3, [r7, #12]
 8004d72:	701a      	strb	r2, [r3, #0]
 8004d74:	e05f      	b.n	8004e36 <_SendPacket+0x1f6>
      } else if (EventId < (1ul << 28)) {    // Encodes in 4 bytes
 8004d76:	687b      	ldr	r3, [r7, #4]
 8004d78:	f1b3 5f80 	cmp.w	r3, #268435456	@ 0x10000000
 8004d7c:	d228      	bcs.n	8004dd0 <_SendPacket+0x190>
        *--pStartPacket = (U8)(EventId >> 21);
 8004d7e:	687b      	ldr	r3, [r7, #4]
 8004d80:	0d5a      	lsrs	r2, r3, #21
 8004d82:	68fb      	ldr	r3, [r7, #12]
 8004d84:	3b01      	subs	r3, #1
 8004d86:	60fb      	str	r3, [r7, #12]
 8004d88:	b2d2      	uxtb	r2, r2
 8004d8a:	68fb      	ldr	r3, [r7, #12]
 8004d8c:	701a      	strb	r2, [r3, #0]
        *--pStartPacket = (U8)((EventId >> 14) | 0x80);
 8004d8e:	687b      	ldr	r3, [r7, #4]
 8004d90:	0b9b      	lsrs	r3, r3, #14
 8004d92:	b2db      	uxtb	r3, r3
 8004d94:	68fa      	ldr	r2, [r7, #12]
 8004d96:	3a01      	subs	r2, #1
 8004d98:	60fa      	str	r2, [r7, #12]
 8004d9a:	f063 037f 	orn	r3, r3, #127	@ 0x7f
 8004d9e:	b2da      	uxtb	r2, r3
 8004da0:	68fb      	ldr	r3, [r7, #12]
 8004da2:	701a      	strb	r2, [r3, #0]
        *--pStartPacket = (U8)((EventId >>  7) | 0x80);
 8004da4:	687b      	ldr	r3, [r7, #4]
 8004da6:	09db      	lsrs	r3, r3, #7
 8004da8:	b2db      	uxtb	r3, r3
 8004daa:	68fa      	ldr	r2, [r7, #12]
 8004dac:	3a01      	subs	r2, #1
 8004dae:	60fa      	str	r2, [r7, #12]
 8004db0:	f063 037f 	orn	r3, r3, #127	@ 0x7f
 8004db4:	b2da      	uxtb	r2, r3
 8004db6:	68fb      	ldr	r3, [r7, #12]
 8004db8:	701a      	strb	r2, [r3, #0]
        *--pStartPacket = (U8)(EventId | 0x80);
 8004dba:	687b      	ldr	r3, [r7, #4]
 8004dbc:	b2db      	uxtb	r3, r3
 8004dbe:	68fa      	ldr	r2, [r7, #12]
 8004dc0:	3a01      	subs	r2, #1
 8004dc2:	60fa      	str	r2, [r7, #12]
 8004dc4:	f063 037f 	orn	r3, r3, #127	@ 0x7f
 8004dc8:	b2da      	uxtb	r2, r3
 8004dca:	68fb      	ldr	r3, [r7, #12]
 8004dcc:	701a      	strb	r2, [r3, #0]
 8004dce:	e032      	b.n	8004e36 <_SendPacket+0x1f6>
      } else {                              // Encodes in 5 bytes
        *--pStartPacket = (U8)(EventId >> 28);
 8004dd0:	687b      	ldr	r3, [r7, #4]
 8004dd2:	0f1a      	lsrs	r2, r3, #28
 8004dd4:	68fb      	ldr	r3, [r7, #12]
 8004dd6:	3b01      	subs	r3, #1
 8004dd8:	60fb      	str	r3, [r7, #12]
 8004dda:	b2d2      	uxtb	r2, r2
 8004ddc:	68fb      	ldr	r3, [r7, #12]
 8004dde:	701a      	strb	r2, [r3, #0]
        *--pStartPacket = (U8)((EventId >> 21) | 0x80);
 8004de0:	687b      	ldr	r3, [r7, #4]
 8004de2:	0d5b      	lsrs	r3, r3, #21
 8004de4:	b2db      	uxtb	r3, r3
 8004de6:	68fa      	ldr	r2, [r7, #12]
 8004de8:	3a01      	subs	r2, #1
 8004dea:	60fa      	str	r2, [r7, #12]
 8004dec:	f063 037f 	orn	r3, r3, #127	@ 0x7f
 8004df0:	b2da      	uxtb	r2, r3
 8004df2:	68fb      	ldr	r3, [r7, #12]
 8004df4:	701a      	strb	r2, [r3, #0]
        *--pStartPacket = (U8)((EventId >> 14) | 0x80);
 8004df6:	687b      	ldr	r3, [r7, #4]
 8004df8:	0b9b      	lsrs	r3, r3, #14
 8004dfa:	b2db      	uxtb	r3, r3
 8004dfc:	68fa      	ldr	r2, [r7, #12]
 8004dfe:	3a01      	subs	r2, #1
 8004e00:	60fa      	str	r2, [r7, #12]
 8004e02:	f063 037f 	orn	r3, r3, #127	@ 0x7f
 8004e06:	b2da      	uxtb	r2, r3
 8004e08:	68fb      	ldr	r3, [r7, #12]
 8004e0a:	701a      	strb	r2, [r3, #0]
        *--pStartPacket = (U8)((EventId >>  7) | 0x80);
 8004e0c:	687b      	ldr	r3, [r7, #4]
 8004e0e:	09db      	lsrs	r3, r3, #7
 8004e10:	b2db      	uxtb	r3, r3
 8004e12:	68fa      	ldr	r2, [r7, #12]
 8004e14:	3a01      	subs	r2, #1
 8004e16:	60fa      	str	r2, [r7, #12]
 8004e18:	f063 037f 	orn	r3, r3, #127	@ 0x7f
 8004e1c:	b2da      	uxtb	r2, r3
 8004e1e:	68fb      	ldr	r3, [r7, #12]
 8004e20:	701a      	strb	r2, [r3, #0]
        *--pStartPacket = (U8)(EventId | 0x80);
 8004e22:	687b      	ldr	r3, [r7, #4]
 8004e24:	b2db      	uxtb	r3, r3
 8004e26:	68fa      	ldr	r2, [r7, #12]
 8004e28:	3a01      	subs	r2, #1
 8004e2a:	60fa      	str	r2, [r7, #12]
 8004e2c:	f063 037f 	orn	r3, r3, #127	@ 0x7f
 8004e30:	b2da      	uxtb	r2, r3
 8004e32:	68fb      	ldr	r3, [r7, #12]
 8004e34:	701a      	strb	r2, [r3, #0]
#endif
  }
  //
  // Compute time stamp delta and append it to packet.
  //
  TimeStamp  = SEGGER_SYSVIEW_GET_TIMESTAMP();
 8004e36:	4b1f      	ldr	r3, [pc, #124]	@ (8004eb4 <_SendPacket+0x274>)
 8004e38:	681b      	ldr	r3, [r3, #0]
 8004e3a:	61bb      	str	r3, [r7, #24]
  Delta = TimeStamp - _SYSVIEW_Globals.LastTxTimeStamp;
 8004e3c:	4b1c      	ldr	r3, [pc, #112]	@ (8004eb0 <_SendPacket+0x270>)
 8004e3e:	68db      	ldr	r3, [r3, #12]
 8004e40:	69ba      	ldr	r2, [r7, #24]
 8004e42:	1ad3      	subs	r3, r2, r3
 8004e44:	617b      	str	r3, [r7, #20]
  MAKE_DELTA_32BIT(Delta);
  ENCODE_U32(pEndPacket, Delta);
 8004e46:	68bb      	ldr	r3, [r7, #8]
 8004e48:	627b      	str	r3, [r7, #36]	@ 0x24
 8004e4a:	697b      	ldr	r3, [r7, #20]
 8004e4c:	623b      	str	r3, [r7, #32]
 8004e4e:	e00b      	b.n	8004e68 <_SendPacket+0x228>
 8004e50:	6a3b      	ldr	r3, [r7, #32]
 8004e52:	b2da      	uxtb	r2, r3
 8004e54:	6a7b      	ldr	r3, [r7, #36]	@ 0x24
 8004e56:	1c59      	adds	r1, r3, #1
 8004e58:	6279      	str	r1, [r7, #36]	@ 0x24
 8004e5a:	f062 027f 	orn	r2, r2, #127	@ 0x7f
 8004e5e:	b2d2      	uxtb	r2, r2
 8004e60:	701a      	strb	r2, [r3, #0]
 8004e62:	6a3b      	ldr	r3, [r7, #32]
 8004e64:	09db      	lsrs	r3, r3, #7
 8004e66:	623b      	str	r3, [r7, #32]
 8004e68:	6a3b      	ldr	r3, [r7, #32]
 8004e6a:	2b7f      	cmp	r3, #127	@ 0x7f
 8004e6c:	d8f0      	bhi.n	8004e50 <_SendPacket+0x210>
 8004e6e:	6a7b      	ldr	r3, [r7, #36]	@ 0x24
 8004e70:	1c5a      	adds	r2, r3, #1
 8004e72:	627a      	str	r2, [r7, #36]	@ 0x24
 8004e74:	6a3a      	ldr	r2, [r7, #32]
 8004e76:	b2d2      	uxtb	r2, r2
 8004e78:	701a      	strb	r2, [r3, #0]
 8004e7a:	6a7b      	ldr	r3, [r7, #36]	@ 0x24
 8004e7c:	60bb      	str	r3, [r7, #8]
  _SYSVIEW_Globals.LastTxTimeStamp = TimeStamp;
#else
  //
  // Try to store packet in RTT buffer and update time stamp when this was successful
  //
  Status = SEGGER_RTT_WriteSkipNoLock(CHANNEL_ID_UP, pStartPacket, (unsigned int)(pEndPacket - pStartPacket));
 8004e7e:	4b0c      	ldr	r3, [pc, #48]	@ (8004eb0 <_SendPacket+0x270>)
 8004e80:	785b      	ldrb	r3, [r3, #1]
 8004e82:	4618      	mov	r0, r3
 8004e84:	68ba      	ldr	r2, [r7, #8]
 8004e86:	68fb      	ldr	r3, [r7, #12]
 8004e88:	1ad3      	subs	r3, r2, r3
 8004e8a:	461a      	mov	r2, r3
 8004e8c:	68f9      	ldr	r1, [r7, #12]
 8004e8e:	f7fb f99f 	bl	80001d0 <SEGGER_RTT_ASM_WriteSkipNoLock>
 8004e92:	6138      	str	r0, [r7, #16]
  SEGGER_SYSVIEW_ON_EVENT_RECORDED(pEndPacket - pStartPacket);
  if (Status) {
 8004e94:	693b      	ldr	r3, [r7, #16]
 8004e96:	2b00      	cmp	r3, #0
 8004e98:	d003      	beq.n	8004ea2 <_SendPacket+0x262>
    _SYSVIEW_Globals.LastTxTimeStamp = TimeStamp;
 8004e9a:	4a05      	ldr	r2, [pc, #20]	@ (8004eb0 <_SendPacket+0x270>)
 8004e9c:	69bb      	ldr	r3, [r7, #24]
 8004e9e:	60d3      	str	r3, [r2, #12]
 8004ea0:	e00f      	b.n	8004ec2 <_SendPacket+0x282>
  } else {
    _SYSVIEW_Globals.EnableState++; // EnableState has been 1, will be 2. Always.
 8004ea2:	4b03      	ldr	r3, [pc, #12]	@ (8004eb0 <_SendPacket+0x270>)
 8004ea4:	781b      	ldrb	r3, [r3, #0]
 8004ea6:	3301      	adds	r3, #1
 8004ea8:	b2da      	uxtb	r2, r3
 8004eaa:	4b01      	ldr	r3, [pc, #4]	@ (8004eb0 <_SendPacket+0x270>)
 8004eac:	701a      	strb	r2, [r3, #0]
 8004eae:	e008      	b.n	8004ec2 <_SendPacket+0x282>
 8004eb0:	20014318 	.word	0x20014318
 8004eb4:	e0001004 	.word	0xe0001004
    goto SendDone;
 8004eb8:	bf00      	nop
 8004eba:	e002      	b.n	8004ec2 <_SendPacket+0x282>
      goto SendDone;
 8004ebc:	bf00      	nop
 8004ebe:	e000      	b.n	8004ec2 <_SendPacket+0x282>
      goto SendDone;
 8004ec0:	bf00      	nop
  //
  // Check if host is sending data which needs to be processed.
  // Note that since this code is called for every packet, it is very time critical, so we do
  // only what is really needed here, which is checking if there is any data
  //
  if (SEGGER_RTT_HASDATA(CHANNEL_ID_DOWN)) {
 8004ec2:	4b14      	ldr	r3, [pc, #80]	@ (8004f14 <_SendPacket+0x2d4>)
 8004ec4:	7e1b      	ldrb	r3, [r3, #24]
 8004ec6:	4619      	mov	r1, r3
 8004ec8:	4a13      	ldr	r2, [pc, #76]	@ (8004f18 <_SendPacket+0x2d8>)
 8004eca:	460b      	mov	r3, r1
 8004ecc:	005b      	lsls	r3, r3, #1
 8004ece:	440b      	add	r3, r1
 8004ed0:	00db      	lsls	r3, r3, #3
 8004ed2:	4413      	add	r3, r2
 8004ed4:	336c      	adds	r3, #108	@ 0x6c
 8004ed6:	681a      	ldr	r2, [r3, #0]
 8004ed8:	4b0e      	ldr	r3, [pc, #56]	@ (8004f14 <_SendPacket+0x2d4>)
 8004eda:	7e1b      	ldrb	r3, [r3, #24]
 8004edc:	4618      	mov	r0, r3
 8004ede:	490e      	ldr	r1, [pc, #56]	@ (8004f18 <_SendPacket+0x2d8>)
 8004ee0:	4603      	mov	r3, r0
 8004ee2:	005b      	lsls	r3, r3, #1
 8004ee4:	4403      	add	r3, r0
 8004ee6:	00db      	lsls	r3, r3, #3
 8004ee8:	440b      	add	r3, r1
 8004eea:	3370      	adds	r3, #112	@ 0x70
 8004eec:	681b      	ldr	r3, [r3, #0]
 8004eee:	429a      	cmp	r2, r3
 8004ef0:	d00b      	beq.n	8004f0a <_SendPacket+0x2ca>
    if (_SYSVIEW_Globals.RecursionCnt == 0) {   // Avoid uncontrolled nesting. This way, this routine can call itself once, but no more often than that.
 8004ef2:	4b08      	ldr	r3, [pc, #32]	@ (8004f14 <_SendPacket+0x2d4>)
 8004ef4:	789b      	ldrb	r3, [r3, #2]
 8004ef6:	2b00      	cmp	r3, #0
 8004ef8:	d107      	bne.n	8004f0a <_SendPacket+0x2ca>
      _SYSVIEW_Globals.RecursionCnt = 1;
 8004efa:	4b06      	ldr	r3, [pc, #24]	@ (8004f14 <_SendPacket+0x2d4>)
 8004efc:	2201      	movs	r2, #1
 8004efe:	709a      	strb	r2, [r3, #2]
      _HandleIncomingPacket();
 8004f00:	f7ff fdbe 	bl	8004a80 <_HandleIncomingPacket>
      _SYSVIEW_Globals.RecursionCnt = 0;
 8004f04:	4b03      	ldr	r3, [pc, #12]	@ (8004f14 <_SendPacket+0x2d4>)
 8004f06:	2200      	movs	r2, #0
 8004f08:	709a      	strb	r2, [r3, #2]
#endif
  //
#if (SEGGER_SYSVIEW_USE_STATIC_BUFFER == 0)
  SEGGER_SYSVIEW_UNLOCK();  // We are done. Unlock and return
#endif
}
 8004f0a:	bf00      	nop
 8004f0c:	3728      	adds	r7, #40	@ 0x28
 8004f0e:	46bd      	mov	sp, r7
 8004f10:	bd80      	pop	{r7, pc}
 8004f12:	bf00      	nop
 8004f14:	20014318 	.word	0x20014318
 8004f18:	20012e58 	.word	0x20012e58

08004f1c <SEGGER_SYSVIEW_Init>:
*    The channel is assigned the label "SysView" for client software
*    to identify the SystemView channel.
*
*    The channel is configured with the macro SEGGER_SYSVIEW_RTT_CHANNEL.
*/
void SEGGER_SYSVIEW_Init(U32 SysFreq, U32 CPUFreq, const SEGGER_SYSVIEW_OS_API *pOSAPI, SEGGER_SYSVIEW_SEND_SYS_DESC_FUNC pfSendSysDesc) {
 8004f1c:	b580      	push	{r7, lr}
 8004f1e:	b086      	sub	sp, #24
 8004f20:	af02      	add	r7, sp, #8
 8004f22:	60f8      	str	r0, [r7, #12]
 8004f24:	60b9      	str	r1, [r7, #8]
 8004f26:	607a      	str	r2, [r7, #4]
 8004f28:	603b      	str	r3, [r7, #0]
#else // (SEGGER_SYSVIEW_POST_MORTEM_MODE == 1)
#if SEGGER_SYSVIEW_RTT_CHANNEL > 0
  SEGGER_RTT_ConfigUpBuffer   (SEGGER_SYSVIEW_RTT_CHANNEL, "SysView", &_UpBuffer[0],   sizeof(_UpBuffer),   SEGGER_RTT_MODE_NO_BLOCK_SKIP);
  SEGGER_RTT_ConfigDownBuffer (SEGGER_SYSVIEW_RTT_CHANNEL, "SysView", &_DownBuffer[0], sizeof(_DownBuffer), SEGGER_RTT_MODE_NO_BLOCK_SKIP);
#else
  _SYSVIEW_Globals.UpChannel = (U8)SEGGER_RTT_AllocUpBuffer  ("SysView", &_UpBuffer[0],   sizeof(_UpBuffer),   SEGGER_RTT_MODE_NO_BLOCK_SKIP);
 8004f2a:	2300      	movs	r3, #0
 8004f2c:	f44f 5280 	mov.w	r2, #4096	@ 0x1000
 8004f30:	4917      	ldr	r1, [pc, #92]	@ (8004f90 <SEGGER_SYSVIEW_Init+0x74>)
 8004f32:	4818      	ldr	r0, [pc, #96]	@ (8004f94 <SEGGER_SYSVIEW_Init+0x78>)
 8004f34:	f7ff fc8e 	bl	8004854 <SEGGER_RTT_AllocUpBuffer>
 8004f38:	4603      	mov	r3, r0
 8004f3a:	b2da      	uxtb	r2, r3
 8004f3c:	4b16      	ldr	r3, [pc, #88]	@ (8004f98 <SEGGER_SYSVIEW_Init+0x7c>)
 8004f3e:	705a      	strb	r2, [r3, #1]
  _SYSVIEW_Globals.DownChannel = _SYSVIEW_Globals.UpChannel;
 8004f40:	4b15      	ldr	r3, [pc, #84]	@ (8004f98 <SEGGER_SYSVIEW_Init+0x7c>)
 8004f42:	785a      	ldrb	r2, [r3, #1]
 8004f44:	4b14      	ldr	r3, [pc, #80]	@ (8004f98 <SEGGER_SYSVIEW_Init+0x7c>)
 8004f46:	761a      	strb	r2, [r3, #24]
  SEGGER_RTT_ConfigDownBuffer (_SYSVIEW_Globals.DownChannel, "SysView", &_DownBuffer[0], sizeof(_DownBuffer), SEGGER_RTT_MODE_NO_BLOCK_SKIP);
 8004f48:	4b13      	ldr	r3, [pc, #76]	@ (8004f98 <SEGGER_SYSVIEW_Init+0x7c>)
 8004f4a:	7e1b      	ldrb	r3, [r3, #24]
 8004f4c:	4618      	mov	r0, r3
 8004f4e:	2300      	movs	r3, #0
 8004f50:	9300      	str	r3, [sp, #0]
 8004f52:	2308      	movs	r3, #8
 8004f54:	4a11      	ldr	r2, [pc, #68]	@ (8004f9c <SEGGER_SYSVIEW_Init+0x80>)
 8004f56:	490f      	ldr	r1, [pc, #60]	@ (8004f94 <SEGGER_SYSVIEW_Init+0x78>)
 8004f58:	f7ff fd00 	bl	800495c <SEGGER_RTT_ConfigDownBuffer>
#endif
  _SYSVIEW_Globals.RAMBaseAddress   = SEGGER_SYSVIEW_ID_BASE;
 8004f5c:	4b0e      	ldr	r3, [pc, #56]	@ (8004f98 <SEGGER_SYSVIEW_Init+0x7c>)
 8004f5e:	2200      	movs	r2, #0
 8004f60:	611a      	str	r2, [r3, #16]
  _SYSVIEW_Globals.LastTxTimeStamp  = SEGGER_SYSVIEW_GET_TIMESTAMP();
 8004f62:	4b0f      	ldr	r3, [pc, #60]	@ (8004fa0 <SEGGER_SYSVIEW_Init+0x84>)
 8004f64:	681b      	ldr	r3, [r3, #0]
 8004f66:	4a0c      	ldr	r2, [pc, #48]	@ (8004f98 <SEGGER_SYSVIEW_Init+0x7c>)
 8004f68:	60d3      	str	r3, [r2, #12]
  _SYSVIEW_Globals.pOSAPI           = pOSAPI;
 8004f6a:	4a0b      	ldr	r2, [pc, #44]	@ (8004f98 <SEGGER_SYSVIEW_Init+0x7c>)
 8004f6c:	687b      	ldr	r3, [r7, #4]
 8004f6e:	6213      	str	r3, [r2, #32]
  _SYSVIEW_Globals.SysFreq          = SysFreq;
 8004f70:	4a09      	ldr	r2, [pc, #36]	@ (8004f98 <SEGGER_SYSVIEW_Init+0x7c>)
 8004f72:	68fb      	ldr	r3, [r7, #12]
 8004f74:	6053      	str	r3, [r2, #4]
  _SYSVIEW_Globals.CPUFreq          = CPUFreq;
 8004f76:	4a08      	ldr	r2, [pc, #32]	@ (8004f98 <SEGGER_SYSVIEW_Init+0x7c>)
 8004f78:	68bb      	ldr	r3, [r7, #8]
 8004f7a:	6093      	str	r3, [r2, #8]
  _SYSVIEW_Globals.pfSendSysDesc    = pfSendSysDesc;
 8004f7c:	4a06      	ldr	r2, [pc, #24]	@ (8004f98 <SEGGER_SYSVIEW_Init+0x7c>)
 8004f7e:	683b      	ldr	r3, [r7, #0]
 8004f80:	6253      	str	r3, [r2, #36]	@ 0x24
  _SYSVIEW_Globals.EnableState      = 0;
 8004f82:	4b05      	ldr	r3, [pc, #20]	@ (8004f98 <SEGGER_SYSVIEW_Init+0x7c>)
 8004f84:	2200      	movs	r2, #0
 8004f86:	701a      	strb	r2, [r3, #0]
#endif  // (SEGGER_SYSVIEW_POST_MORTEM_MODE == 1)
}
 8004f88:	bf00      	nop
 8004f8a:	3710      	adds	r7, #16
 8004f8c:	46bd      	mov	sp, r7
 8004f8e:	bd80      	pop	{r7, pc}
 8004f90:	20013310 	.word	0x20013310
 8004f94:	080062a0 	.word	0x080062a0
 8004f98:	20014318 	.word	0x20014318
 8004f9c:	20014310 	.word	0x20014310
 8004fa0:	e0001004 	.word	0xe0001004

08004fa4 <SEGGER_SYSVIEW_SetRAMBase>:
*     to save bandwidth.
*
*  Parameters
*    RAMBaseAddress - Lowest RAM Address. (i.e. 0x20000000 on most Cortex-M)
*/
void SEGGER_SYSVIEW_SetRAMBase(U32 RAMBaseAddress) {
 8004fa4:	b480      	push	{r7}
 8004fa6:	b083      	sub	sp, #12
 8004fa8:	af00      	add	r7, sp, #0
 8004faa:	6078      	str	r0, [r7, #4]
  _SYSVIEW_Globals.RAMBaseAddress = RAMBaseAddress;
 8004fac:	4a04      	ldr	r2, [pc, #16]	@ (8004fc0 <SEGGER_SYSVIEW_SetRAMBase+0x1c>)
 8004fae:	687b      	ldr	r3, [r7, #4]
 8004fb0:	6113      	str	r3, [r2, #16]
}
 8004fb2:	bf00      	nop
 8004fb4:	370c      	adds	r7, #12
 8004fb6:	46bd      	mov	sp, r7
 8004fb8:	f85d 7b04 	ldr.w	r7, [sp], #4
 8004fbc:	4770      	bx	lr
 8004fbe:	bf00      	nop
 8004fc0:	20014318 	.word	0x20014318

08004fc4 <SEGGER_SYSVIEW_RecordVoid>:
*    Formats and sends a SystemView packet with an empty payload.
*
*  Parameters
*    EventID - SystemView event ID.
*/
void SEGGER_SYSVIEW_RecordVoid(unsigned int EventID) {
 8004fc4:	b580      	push	{r7, lr}
 8004fc6:	b084      	sub	sp, #16
 8004fc8:	af00      	add	r7, sp, #0
 8004fca:	6078      	str	r0, [r7, #4]
  U8* pPayloadStart;
  RECORD_START(SEGGER_SYSVIEW_INFO_SIZE);
 8004fcc:	f3ef 8311 	mrs	r3, BASEPRI
 8004fd0:	f04f 0120 	mov.w	r1, #32
 8004fd4:	f381 8811 	msr	BASEPRI, r1
 8004fd8:	60fb      	str	r3, [r7, #12]
 8004fda:	4808      	ldr	r0, [pc, #32]	@ (8004ffc <SEGGER_SYSVIEW_RecordVoid+0x38>)
 8004fdc:	f7ff fd43 	bl	8004a66 <_PreparePacket>
 8004fe0:	60b8      	str	r0, [r7, #8]
  //
  _SendPacket(pPayloadStart, pPayloadStart, EventID);
 8004fe2:	687a      	ldr	r2, [r7, #4]
 8004fe4:	68b9      	ldr	r1, [r7, #8]
 8004fe6:	68b8      	ldr	r0, [r7, #8]
 8004fe8:	f7ff fe2a 	bl	8004c40 <_SendPacket>
  RECORD_END();
 8004fec:	68fb      	ldr	r3, [r7, #12]
 8004fee:	f383 8811 	msr	BASEPRI, r3
}
 8004ff2:	bf00      	nop
 8004ff4:	3710      	adds	r7, #16
 8004ff6:	46bd      	mov	sp, r7
 8004ff8:	bd80      	pop	{r7, pc}
 8004ffa:	bf00      	nop
 8004ffc:	20014348 	.word	0x20014348

08005000 <SEGGER_SYSVIEW_RecordU32>:
*
*  Parameters
*    EventID - SystemView event ID.
*    Value   - The 32-bit parameter encoded to SystemView packet payload.
*/
void SEGGER_SYSVIEW_RecordU32(unsigned int EventID, U32 Value) {
 8005000:	b580      	push	{r7, lr}
 8005002:	b088      	sub	sp, #32
 8005004:	af00      	add	r7, sp, #0
 8005006:	6078      	str	r0, [r7, #4]
 8005008:	6039      	str	r1, [r7, #0]
  U8* pPayload;
  U8* pPayloadStart;
  RECORD_START(SEGGER_SYSVIEW_INFO_SIZE + SEGGER_SYSVIEW_QUANTA_U32);
 800500a:	f3ef 8311 	mrs	r3, BASEPRI
 800500e:	f04f 0120 	mov.w	r1, #32
 8005012:	f381 8811 	msr	BASEPRI, r1
 8005016:	617b      	str	r3, [r7, #20]
 8005018:	4816      	ldr	r0, [pc, #88]	@ (8005074 <SEGGER_SYSVIEW_RecordU32+0x74>)
 800501a:	f7ff fd24 	bl	8004a66 <_PreparePacket>
 800501e:	6138      	str	r0, [r7, #16]
  //
  pPayload = pPayloadStart;
 8005020:	693b      	ldr	r3, [r7, #16]
 8005022:	60fb      	str	r3, [r7, #12]
  ENCODE_U32(pPayload, Value);
 8005024:	68fb      	ldr	r3, [r7, #12]
 8005026:	61fb      	str	r3, [r7, #28]
 8005028:	683b      	ldr	r3, [r7, #0]
 800502a:	61bb      	str	r3, [r7, #24]
 800502c:	e00b      	b.n	8005046 <SEGGER_SYSVIEW_RecordU32+0x46>
 800502e:	69bb      	ldr	r3, [r7, #24]
 8005030:	b2da      	uxtb	r2, r3
 8005032:	69fb      	ldr	r3, [r7, #28]
 8005034:	1c59      	adds	r1, r3, #1
 8005036:	61f9      	str	r1, [r7, #28]
 8005038:	f062 027f 	orn	r2, r2, #127	@ 0x7f
 800503c:	b2d2      	uxtb	r2, r2
 800503e:	701a      	strb	r2, [r3, #0]
 8005040:	69bb      	ldr	r3, [r7, #24]
 8005042:	09db      	lsrs	r3, r3, #7
 8005044:	61bb      	str	r3, [r7, #24]
 8005046:	69bb      	ldr	r3, [r7, #24]
 8005048:	2b7f      	cmp	r3, #127	@ 0x7f
 800504a:	d8f0      	bhi.n	800502e <SEGGER_SYSVIEW_RecordU32+0x2e>
 800504c:	69fb      	ldr	r3, [r7, #28]
 800504e:	1c5a      	adds	r2, r3, #1
 8005050:	61fa      	str	r2, [r7, #28]
 8005052:	69ba      	ldr	r2, [r7, #24]
 8005054:	b2d2      	uxtb	r2, r2
 8005056:	701a      	strb	r2, [r3, #0]
 8005058:	69fb      	ldr	r3, [r7, #28]
 800505a:	60fb      	str	r3, [r7, #12]
  _SendPacket(pPayloadStart, pPayload, EventID);
 800505c:	687a      	ldr	r2, [r7, #4]
 800505e:	68f9      	ldr	r1, [r7, #12]
 8005060:	6938      	ldr	r0, [r7, #16]
 8005062:	f7ff fded 	bl	8004c40 <_SendPacket>
  RECORD_END();
 8005066:	697b      	ldr	r3, [r7, #20]
 8005068:	f383 8811 	msr	BASEPRI, r3
}
 800506c:	bf00      	nop
 800506e:	3720      	adds	r7, #32
 8005070:	46bd      	mov	sp, r7
 8005072:	bd80      	pop	{r7, pc}
 8005074:	20014348 	.word	0x20014348

08005078 <SEGGER_SYSVIEW_RecordU32x2>:
*  Parameters
*    EventID - SystemView event ID.
*    Para0   - The 32-bit parameter encoded to SystemView packet payload.
*    Para1   - The 32-bit parameter encoded to SystemView packet payload.
*/
void SEGGER_SYSVIEW_RecordU32x2(unsigned int EventID, U32 Para0, U32 Para1) {
 8005078:	b580      	push	{r7, lr}
 800507a:	b08c      	sub	sp, #48	@ 0x30
 800507c:	af00      	add	r7, sp, #0
 800507e:	60f8      	str	r0, [r7, #12]
 8005080:	60b9      	str	r1, [r7, #8]
 8005082:	607a      	str	r2, [r7, #4]
  U8* pPayload;
  U8* pPayloadStart;
  RECORD_START(SEGGER_SYSVIEW_INFO_SIZE + 2 * SEGGER_SYSVIEW_QUANTA_U32);
 8005084:	f3ef 8311 	mrs	r3, BASEPRI
 8005088:	f04f 0120 	mov.w	r1, #32
 800508c:	f381 8811 	msr	BASEPRI, r1
 8005090:	61fb      	str	r3, [r7, #28]
 8005092:	4825      	ldr	r0, [pc, #148]	@ (8005128 <SEGGER_SYSVIEW_RecordU32x2+0xb0>)
 8005094:	f7ff fce7 	bl	8004a66 <_PreparePacket>
 8005098:	61b8      	str	r0, [r7, #24]
  //
  pPayload = pPayloadStart;
 800509a:	69bb      	ldr	r3, [r7, #24]
 800509c:	617b      	str	r3, [r7, #20]
  ENCODE_U32(pPayload, Para0);
 800509e:	697b      	ldr	r3, [r7, #20]
 80050a0:	62fb      	str	r3, [r7, #44]	@ 0x2c
 80050a2:	68bb      	ldr	r3, [r7, #8]
 80050a4:	62bb      	str	r3, [r7, #40]	@ 0x28
 80050a6:	e00b      	b.n	80050c0 <SEGGER_SYSVIEW_RecordU32x2+0x48>
 80050a8:	6abb      	ldr	r3, [r7, #40]	@ 0x28
 80050aa:	b2da      	uxtb	r2, r3
 80050ac:	6afb      	ldr	r3, [r7, #44]	@ 0x2c
 80050ae:	1c59      	adds	r1, r3, #1
 80050b0:	62f9      	str	r1, [r7, #44]	@ 0x2c
 80050b2:	f062 027f 	orn	r2, r2, #127	@ 0x7f
 80050b6:	b2d2      	uxtb	r2, r2
 80050b8:	701a      	strb	r2, [r3, #0]
 80050ba:	6abb      	ldr	r3, [r7, #40]	@ 0x28
 80050bc:	09db      	lsrs	r3, r3, #7
 80050be:	62bb      	str	r3, [r7, #40]	@ 0x28
 80050c0:	6abb      	ldr	r3, [r7, #40]	@ 0x28
 80050c2:	2b7f      	cmp	r3, #127	@ 0x7f
 80050c4:	d8f0      	bhi.n	80050a8 <SEGGER_SYSVIEW_RecordU32x2+0x30>
 80050c6:	6afb      	ldr	r3, [r7, #44]	@ 0x2c
 80050c8:	1c5a      	adds	r2, r3, #1
 80050ca:	62fa      	str	r2, [r7, #44]	@ 0x2c
 80050cc:	6aba      	ldr	r2, [r7, #40]	@ 0x28
 80050ce:	b2d2      	uxtb	r2, r2
 80050d0:	701a      	strb	r2, [r3, #0]
 80050d2:	6afb      	ldr	r3, [r7, #44]	@ 0x2c
 80050d4:	617b      	str	r3, [r7, #20]
  ENCODE_U32(pPayload, Para1);
 80050d6:	697b      	ldr	r3, [r7, #20]
 80050d8:	627b      	str	r3, [r7, #36]	@ 0x24
 80050da:	687b      	ldr	r3, [r7, #4]
 80050dc:	623b      	str	r3, [r7, #32]
 80050de:	e00b      	b.n	80050f8 <SEGGER_SYSVIEW_RecordU32x2+0x80>
 80050e0:	6a3b      	ldr	r3, [r7, #32]
 80050e2:	b2da      	uxtb	r2, r3
 80050e4:	6a7b      	ldr	r3, [r7, #36]	@ 0x24
 80050e6:	1c59      	adds	r1, r3, #1
 80050e8:	6279      	str	r1, [r7, #36]	@ 0x24
 80050ea:	f062 027f 	orn	r2, r2, #127	@ 0x7f
 80050ee:	b2d2      	uxtb	r2, r2
 80050f0:	701a      	strb	r2, [r3, #0]
 80050f2:	6a3b      	ldr	r3, [r7, #32]
 80050f4:	09db      	lsrs	r3, r3, #7
 80050f6:	623b      	str	r3, [r7, #32]
 80050f8:	6a3b      	ldr	r3, [r7, #32]
 80050fa:	2b7f      	cmp	r3, #127	@ 0x7f
 80050fc:	d8f0      	bhi.n	80050e0 <SEGGER_SYSVIEW_RecordU32x2+0x68>
 80050fe:	6a7b      	ldr	r3, [r7, #36]	@ 0x24
 8005100:	1c5a      	adds	r2, r3, #1
 8005102:	627a      	str	r2, [r7, #36]	@ 0x24
 8005104:	6a3a      	ldr	r2, [r7, #32]
 8005106:	b2d2      	uxtb	r2, r2
 8005108:	701a      	strb	r2, [r3, #0]
 800510a:	6a7b      	ldr	r3, [r7, #36]	@ 0x24
 800510c:	617b      	str	r3, [r7, #20]
  _SendPacket(pPayloadStart, pPayload, EventID);
 800510e:	68fa      	ldr	r2, [r7, #12]
 8005110:	6979      	ldr	r1, [r7, #20]
 8005112:	69b8      	ldr	r0, [r7, #24]
 8005114:	f7ff fd94 	bl	8004c40 <_SendPacket>
  RECORD_END();
 8005118:	69fb      	ldr	r3, [r7, #28]
 800511a:	f383 8811 	msr	BASEPRI, r3
}
 800511e:	bf00      	nop
 8005120:	3730      	adds	r7, #48	@ 0x30
 8005122:	46bd      	mov	sp, r7
 8005124:	bd80      	pop	{r7, pc}
 8005126:	bf00      	nop
 8005128:	20014348 	.word	0x20014348

0800512c <SEGGER_SYSVIEW_RecordU32x5>:
*    Para1   - The 32-bit parameter encoded to SystemView packet payload.
*    Para2   - The 32-bit parameter encoded to SystemView packet payload.
*    Para3   - The 32-bit parameter encoded to SystemView packet payload.
*    Para4   - The 32-bit parameter encoded to SystemView packet payload.
*/
void SEGGER_SYSVIEW_RecordU32x5(unsigned int EventID, U32 Para0, U32 Para1, U32 Para2, U32 Para3, U32 Para4) {
 800512c:	b580      	push	{r7, lr}
 800512e:	b092      	sub	sp, #72	@ 0x48
 8005130:	af00      	add	r7, sp, #0
 8005132:	60f8      	str	r0, [r7, #12]
 8005134:	60b9      	str	r1, [r7, #8]
 8005136:	607a      	str	r2, [r7, #4]
 8005138:	603b      	str	r3, [r7, #0]
  U8* pPayload;
  U8* pPayloadStart;
  RECORD_START(SEGGER_SYSVIEW_INFO_SIZE + 5 * SEGGER_SYSVIEW_QUANTA_U32);
 800513a:	f3ef 8311 	mrs	r3, BASEPRI
 800513e:	f04f 0120 	mov.w	r1, #32
 8005142:	f381 8811 	msr	BASEPRI, r1
 8005146:	61fb      	str	r3, [r7, #28]
 8005148:	484e      	ldr	r0, [pc, #312]	@ (8005284 <SEGGER_SYSVIEW_RecordU32x5+0x158>)
 800514a:	f7ff fc8c 	bl	8004a66 <_PreparePacket>
 800514e:	61b8      	str	r0, [r7, #24]
  //
  pPayload = pPayloadStart;
 8005150:	69bb      	ldr	r3, [r7, #24]
 8005152:	617b      	str	r3, [r7, #20]
  ENCODE_U32(pPayload, Para0);
 8005154:	697b      	ldr	r3, [r7, #20]
 8005156:	647b      	str	r3, [r7, #68]	@ 0x44
 8005158:	68bb      	ldr	r3, [r7, #8]
 800515a:	643b      	str	r3, [r7, #64]	@ 0x40
 800515c:	e00b      	b.n	8005176 <SEGGER_SYSVIEW_RecordU32x5+0x4a>
 800515e:	6c3b      	ldr	r3, [r7, #64]	@ 0x40
 8005160:	b2da      	uxtb	r2, r3
 8005162:	6c7b      	ldr	r3, [r7, #68]	@ 0x44
 8005164:	1c59      	adds	r1, r3, #1
 8005166:	6479      	str	r1, [r7, #68]	@ 0x44
 8005168:	f062 027f 	orn	r2, r2, #127	@ 0x7f
 800516c:	b2d2      	uxtb	r2, r2
 800516e:	701a      	strb	r2, [r3, #0]
 8005170:	6c3b      	ldr	r3, [r7, #64]	@ 0x40
 8005172:	09db      	lsrs	r3, r3, #7
 8005174:	643b      	str	r3, [r7, #64]	@ 0x40
 8005176:	6c3b      	ldr	r3, [r7, #64]	@ 0x40
 8005178:	2b7f      	cmp	r3, #127	@ 0x7f
 800517a:	d8f0      	bhi.n	800515e <SEGGER_SYSVIEW_RecordU32x5+0x32>
 800517c:	6c7b      	ldr	r3, [r7, #68]	@ 0x44
 800517e:	1c5a      	adds	r2, r3, #1
 8005180:	647a      	str	r2, [r7, #68]	@ 0x44
 8005182:	6c3a      	ldr	r2, [r7, #64]	@ 0x40
 8005184:	b2d2      	uxtb	r2, r2
 8005186:	701a      	strb	r2, [r3, #0]
 8005188:	6c7b      	ldr	r3, [r7, #68]	@ 0x44
 800518a:	617b      	str	r3, [r7, #20]
  ENCODE_U32(pPayload, Para1);
 800518c:	697b      	ldr	r3, [r7, #20]
 800518e:	63fb      	str	r3, [r7, #60]	@ 0x3c
 8005190:	687b      	ldr	r3, [r7, #4]
 8005192:	63bb      	str	r3, [r7, #56]	@ 0x38
 8005194:	e00b      	b.n	80051ae <SEGGER_SYSVIEW_RecordU32x5+0x82>
 8005196:	6bbb      	ldr	r3, [r7, #56]	@ 0x38
 8005198:	b2da      	uxtb	r2, r3
 800519a:	6bfb      	ldr	r3, [r7, #60]	@ 0x3c
 800519c:	1c59      	adds	r1, r3, #1
 800519e:	63f9      	str	r1, [r7, #60]	@ 0x3c
 80051a0:	f062 027f 	orn	r2, r2, #127	@ 0x7f
 80051a4:	b2d2      	uxtb	r2, r2
 80051a6:	701a      	strb	r2, [r3, #0]
 80051a8:	6bbb      	ldr	r3, [r7, #56]	@ 0x38
 80051aa:	09db      	lsrs	r3, r3, #7
 80051ac:	63bb      	str	r3, [r7, #56]	@ 0x38
 80051ae:	6bbb      	ldr	r3, [r7, #56]	@ 0x38
 80051b0:	2b7f      	cmp	r3, #127	@ 0x7f
 80051b2:	d8f0      	bhi.n	8005196 <SEGGER_SYSVIEW_RecordU32x5+0x6a>
 80051b4:	6bfb      	ldr	r3, [r7, #60]	@ 0x3c
 80051b6:	1c5a      	adds	r2, r3, #1
 80051b8:	63fa      	str	r2, [r7, #60]	@ 0x3c
 80051ba:	6bba      	ldr	r2, [r7, #56]	@ 0x38
 80051bc:	b2d2      	uxtb	r2, r2
 80051be:	701a      	strb	r2, [r3, #0]
 80051c0:	6bfb      	ldr	r3, [r7, #60]	@ 0x3c
 80051c2:	617b      	str	r3, [r7, #20]
  ENCODE_U32(pPayload, Para2);
 80051c4:	697b      	ldr	r3, [r7, #20]
 80051c6:	637b      	str	r3, [r7, #52]	@ 0x34
 80051c8:	683b      	ldr	r3, [r7, #0]
 80051ca:	633b      	str	r3, [r7, #48]	@ 0x30
 80051cc:	e00b      	b.n	80051e6 <SEGGER_SYSVIEW_RecordU32x5+0xba>
 80051ce:	6b3b      	ldr	r3, [r7, #48]	@ 0x30
 80051d0:	b2da      	uxtb	r2, r3
 80051d2:	6b7b      	ldr	r3, [r7, #52]	@ 0x34
 80051d4:	1c59      	adds	r1, r3, #1
 80051d6:	6379      	str	r1, [r7, #52]	@ 0x34
 80051d8:	f062 027f 	orn	r2, r2, #127	@ 0x7f
 80051dc:	b2d2      	uxtb	r2, r2
 80051de:	701a      	strb	r2, [r3, #0]
 80051e0:	6b3b      	ldr	r3, [r7, #48]	@ 0x30
 80051e2:	09db      	lsrs	r3, r3, #7
 80051e4:	633b      	str	r3, [r7, #48]	@ 0x30
 80051e6:	6b3b      	ldr	r3, [r7, #48]	@ 0x30
 80051e8:	2b7f      	cmp	r3, #127	@ 0x7f
 80051ea:	d8f0      	bhi.n	80051ce <SEGGER_SYSVIEW_RecordU32x5+0xa2>
 80051ec:	6b7b      	ldr	r3, [r7, #52]	@ 0x34
 80051ee:	1c5a      	adds	r2, r3, #1
 80051f0:	637a      	str	r2, [r7, #52]	@ 0x34
 80051f2:	6b3a      	ldr	r2, [r7, #48]	@ 0x30
 80051f4:	b2d2      	uxtb	r2, r2
 80051f6:	701a      	strb	r2, [r3, #0]
 80051f8:	6b7b      	ldr	r3, [r7, #52]	@ 0x34
 80051fa:	617b      	str	r3, [r7, #20]
  ENCODE_U32(pPayload, Para3);
 80051fc:	697b      	ldr	r3, [r7, #20]
 80051fe:	62fb      	str	r3, [r7, #44]	@ 0x2c
 8005200:	6d3b      	ldr	r3, [r7, #80]	@ 0x50
 8005202:	62bb      	str	r3, [r7, #40]	@ 0x28
 8005204:	e00b      	b.n	800521e <SEGGER_SYSVIEW_RecordU32x5+0xf2>
 8005206:	6abb      	ldr	r3, [r7, #40]	@ 0x28
 8005208:	b2da      	uxtb	r2, r3
 800520a:	6afb      	ldr	r3, [r7, #44]	@ 0x2c
 800520c:	1c59      	adds	r1, r3, #1
 800520e:	62f9      	str	r1, [r7, #44]	@ 0x2c
 8005210:	f062 027f 	orn	r2, r2, #127	@ 0x7f
 8005214:	b2d2      	uxtb	r2, r2
 8005216:	701a      	strb	r2, [r3, #0]
 8005218:	6abb      	ldr	r3, [r7, #40]	@ 0x28
 800521a:	09db      	lsrs	r3, r3, #7
 800521c:	62bb      	str	r3, [r7, #40]	@ 0x28
 800521e:	6abb      	ldr	r3, [r7, #40]	@ 0x28
 8005220:	2b7f      	cmp	r3, #127	@ 0x7f
 8005222:	d8f0      	bhi.n	8005206 <SEGGER_SYSVIEW_RecordU32x5+0xda>
 8005224:	6afb      	ldr	r3, [r7, #44]	@ 0x2c
 8005226:	1c5a      	adds	r2, r3, #1
 8005228:	62fa      	str	r2, [r7, #44]	@ 0x2c
 800522a:	6aba      	ldr	r2, [r7, #40]	@ 0x28
 800522c:	b2d2      	uxtb	r2, r2
 800522e:	701a      	strb	r2, [r3, #0]
 8005230:	6afb      	ldr	r3, [r7, #44]	@ 0x2c
 8005232:	617b      	str	r3, [r7, #20]
  ENCODE_U32(pPayload, Para4);
 8005234:	697b      	ldr	r3, [r7, #20]
 8005236:	627b      	str	r3, [r7, #36]	@ 0x24
 8005238:	6d7b      	ldr	r3, [r7, #84]	@ 0x54
 800523a:	623b      	str	r3, [r7, #32]
 800523c:	e00b      	b.n	8005256 <SEGGER_SYSVIEW_RecordU32x5+0x12a>
 800523e:	6a3b      	ldr	r3, [r7, #32]
 8005240:	b2da      	uxtb	r2, r3
 8005242:	6a7b      	ldr	r3, [r7, #36]	@ 0x24
 8005244:	1c59      	adds	r1, r3, #1
 8005246:	6279      	str	r1, [r7, #36]	@ 0x24
 8005248:	f062 027f 	orn	r2, r2, #127	@ 0x7f
 800524c:	b2d2      	uxtb	r2, r2
 800524e:	701a      	strb	r2, [r3, #0]
 8005250:	6a3b      	ldr	r3, [r7, #32]
 8005252:	09db      	lsrs	r3, r3, #7
 8005254:	623b      	str	r3, [r7, #32]
 8005256:	6a3b      	ldr	r3, [r7, #32]
 8005258:	2b7f      	cmp	r3, #127	@ 0x7f
 800525a:	d8f0      	bhi.n	800523e <SEGGER_SYSVIEW_RecordU32x5+0x112>
 800525c:	6a7b      	ldr	r3, [r7, #36]	@ 0x24
 800525e:	1c5a      	adds	r2, r3, #1
 8005260:	627a      	str	r2, [r7, #36]	@ 0x24
 8005262:	6a3a      	ldr	r2, [r7, #32]
 8005264:	b2d2      	uxtb	r2, r2
 8005266:	701a      	strb	r2, [r3, #0]
 8005268:	6a7b      	ldr	r3, [r7, #36]	@ 0x24
 800526a:	617b      	str	r3, [r7, #20]
  _SendPacket(pPayloadStart, pPayload, EventID);
 800526c:	68fa      	ldr	r2, [r7, #12]
 800526e:	6979      	ldr	r1, [r7, #20]
 8005270:	69b8      	ldr	r0, [r7, #24]
 8005272:	f7ff fce5 	bl	8004c40 <_SendPacket>
  RECORD_END();
 8005276:	69fb      	ldr	r3, [r7, #28]
 8005278:	f383 8811 	msr	BASEPRI, r3
}
 800527c:	bf00      	nop
 800527e:	3748      	adds	r7, #72	@ 0x48
 8005280:	46bd      	mov	sp, r7
 8005282:	bd80      	pop	{r7, pc}
 8005284:	20014348 	.word	0x20014348

08005288 <SEGGER_SYSVIEW_RecordU32x6>:
*    Para2   - The 32-bit parameter encoded to SystemView packet payload.
*    Para3   - The 32-bit parameter encoded to SystemView packet payload.
*    Para4   - The 32-bit parameter encoded to SystemView packet payload.
*    Para5   - The 32-bit parameter encoded to SystemView packet payload.
*/
void SEGGER_SYSVIEW_RecordU32x6(unsigned int EventID, U32 Para0, U32 Para1, U32 Para2, U32 Para3, U32 Para4, U32 Para5) {
 8005288:	b580      	push	{r7, lr}
 800528a:	b094      	sub	sp, #80	@ 0x50
 800528c:	af00      	add	r7, sp, #0
 800528e:	60f8      	str	r0, [r7, #12]
 8005290:	60b9      	str	r1, [r7, #8]
 8005292:	607a      	str	r2, [r7, #4]
 8005294:	603b      	str	r3, [r7, #0]
  U8* pPayload;
  U8* pPayloadStart;
  RECORD_START(SEGGER_SYSVIEW_INFO_SIZE + 6 * SEGGER_SYSVIEW_QUANTA_U32);
 8005296:	f3ef 8311 	mrs	r3, BASEPRI
 800529a:	f04f 0120 	mov.w	r1, #32
 800529e:	f381 8811 	msr	BASEPRI, r1
 80052a2:	61fb      	str	r3, [r7, #28]
 80052a4:	485c      	ldr	r0, [pc, #368]	@ (8005418 <SEGGER_SYSVIEW_RecordU32x6+0x190>)
 80052a6:	f7ff fbde 	bl	8004a66 <_PreparePacket>
 80052aa:	61b8      	str	r0, [r7, #24]
  //
  pPayload = pPayloadStart;
 80052ac:	69bb      	ldr	r3, [r7, #24]
 80052ae:	617b      	str	r3, [r7, #20]
  ENCODE_U32(pPayload, Para0);
 80052b0:	697b      	ldr	r3, [r7, #20]
 80052b2:	64fb      	str	r3, [r7, #76]	@ 0x4c
 80052b4:	68bb      	ldr	r3, [r7, #8]
 80052b6:	64bb      	str	r3, [r7, #72]	@ 0x48
 80052b8:	e00b      	b.n	80052d2 <SEGGER_SYSVIEW_RecordU32x6+0x4a>
 80052ba:	6cbb      	ldr	r3, [r7, #72]	@ 0x48
 80052bc:	b2da      	uxtb	r2, r3
 80052be:	6cfb      	ldr	r3, [r7, #76]	@ 0x4c
 80052c0:	1c59      	adds	r1, r3, #1
 80052c2:	64f9      	str	r1, [r7, #76]	@ 0x4c
 80052c4:	f062 027f 	orn	r2, r2, #127	@ 0x7f
 80052c8:	b2d2      	uxtb	r2, r2
 80052ca:	701a      	strb	r2, [r3, #0]
 80052cc:	6cbb      	ldr	r3, [r7, #72]	@ 0x48
 80052ce:	09db      	lsrs	r3, r3, #7
 80052d0:	64bb      	str	r3, [r7, #72]	@ 0x48
 80052d2:	6cbb      	ldr	r3, [r7, #72]	@ 0x48
 80052d4:	2b7f      	cmp	r3, #127	@ 0x7f
 80052d6:	d8f0      	bhi.n	80052ba <SEGGER_SYSVIEW_RecordU32x6+0x32>
 80052d8:	6cfb      	ldr	r3, [r7, #76]	@ 0x4c
 80052da:	1c5a      	adds	r2, r3, #1
 80052dc:	64fa      	str	r2, [r7, #76]	@ 0x4c
 80052de:	6cba      	ldr	r2, [r7, #72]	@ 0x48
 80052e0:	b2d2      	uxtb	r2, r2
 80052e2:	701a      	strb	r2, [r3, #0]
 80052e4:	6cfb      	ldr	r3, [r7, #76]	@ 0x4c
 80052e6:	617b      	str	r3, [r7, #20]
  ENCODE_U32(pPayload, Para1);
 80052e8:	697b      	ldr	r3, [r7, #20]
 80052ea:	647b      	str	r3, [r7, #68]	@ 0x44
 80052ec:	687b      	ldr	r3, [r7, #4]
 80052ee:	643b      	str	r3, [r7, #64]	@ 0x40
 80052f0:	e00b      	b.n	800530a <SEGGER_SYSVIEW_RecordU32x6+0x82>
 80052f2:	6c3b      	ldr	r3, [r7, #64]	@ 0x40
 80052f4:	b2da      	uxtb	r2, r3
 80052f6:	6c7b      	ldr	r3, [r7, #68]	@ 0x44
 80052f8:	1c59      	adds	r1, r3, #1
 80052fa:	6479      	str	r1, [r7, #68]	@ 0x44
 80052fc:	f062 027f 	orn	r2, r2, #127	@ 0x7f
 8005300:	b2d2      	uxtb	r2, r2
 8005302:	701a      	strb	r2, [r3, #0]
 8005304:	6c3b      	ldr	r3, [r7, #64]	@ 0x40
 8005306:	09db      	lsrs	r3, r3, #7
 8005308:	643b      	str	r3, [r7, #64]	@ 0x40
 800530a:	6c3b      	ldr	r3, [r7, #64]	@ 0x40
 800530c:	2b7f      	cmp	r3, #127	@ 0x7f
 800530e:	d8f0      	bhi.n	80052f2 <SEGGER_SYSVIEW_RecordU32x6+0x6a>
 8005310:	6c7b      	ldr	r3, [r7, #68]	@ 0x44
 8005312:	1c5a      	adds	r2, r3, #1
 8005314:	647a      	str	r2, [r7, #68]	@ 0x44
 8005316:	6c3a      	ldr	r2, [r7, #64]	@ 0x40
 8005318:	b2d2      	uxtb	r2, r2
 800531a:	701a      	strb	r2, [r3, #0]
 800531c:	6c7b      	ldr	r3, [r7, #68]	@ 0x44
 800531e:	617b      	str	r3, [r7, #20]
  ENCODE_U32(pPayload, Para2);
 8005320:	697b      	ldr	r3, [r7, #20]
 8005322:	63fb      	str	r3, [r7, #60]	@ 0x3c
 8005324:	683b      	ldr	r3, [r7, #0]
 8005326:	63bb      	str	r3, [r7, #56]	@ 0x38
 8005328:	e00b      	b.n	8005342 <SEGGER_SYSVIEW_RecordU32x6+0xba>
 800532a:	6bbb      	ldr	r3, [r7, #56]	@ 0x38
 800532c:	b2da      	uxtb	r2, r3
 800532e:	6bfb      	ldr	r3, [r7, #60]	@ 0x3c
 8005330:	1c59      	adds	r1, r3, #1
 8005332:	63f9      	str	r1, [r7, #60]	@ 0x3c
 8005334:	f062 027f 	orn	r2, r2, #127	@ 0x7f
 8005338:	b2d2      	uxtb	r2, r2
 800533a:	701a      	strb	r2, [r3, #0]
 800533c:	6bbb      	ldr	r3, [r7, #56]	@ 0x38
 800533e:	09db      	lsrs	r3, r3, #7
 8005340:	63bb      	str	r3, [r7, #56]	@ 0x38
 8005342:	6bbb      	ldr	r3, [r7, #56]	@ 0x38
 8005344:	2b7f      	cmp	r3, #127	@ 0x7f
 8005346:	d8f0      	bhi.n	800532a <SEGGER_SYSVIEW_RecordU32x6+0xa2>
 8005348:	6bfb      	ldr	r3, [r7, #60]	@ 0x3c
 800534a:	1c5a      	adds	r2, r3, #1
 800534c:	63fa      	str	r2, [r7, #60]	@ 0x3c
 800534e:	6bba      	ldr	r2, [r7, #56]	@ 0x38
 8005350:	b2d2      	uxtb	r2, r2
 8005352:	701a      	strb	r2, [r3, #0]
 8005354:	6bfb      	ldr	r3, [r7, #60]	@ 0x3c
 8005356:	617b      	str	r3, [r7, #20]
  ENCODE_U32(pPayload, Para3);
 8005358:	697b      	ldr	r3, [r7, #20]
 800535a:	637b      	str	r3, [r7, #52]	@ 0x34
 800535c:	6dbb      	ldr	r3, [r7, #88]	@ 0x58
 800535e:	633b      	str	r3, [r7, #48]	@ 0x30
 8005360:	e00b      	b.n	800537a <SEGGER_SYSVIEW_RecordU32x6+0xf2>
 8005362:	6b3b      	ldr	r3, [r7, #48]	@ 0x30
 8005364:	b2da      	uxtb	r2, r3
 8005366:	6b7b      	ldr	r3, [r7, #52]	@ 0x34
 8005368:	1c59      	adds	r1, r3, #1
 800536a:	6379      	str	r1, [r7, #52]	@ 0x34
 800536c:	f062 027f 	orn	r2, r2, #127	@ 0x7f
 8005370:	b2d2      	uxtb	r2, r2
 8005372:	701a      	strb	r2, [r3, #0]
 8005374:	6b3b      	ldr	r3, [r7, #48]	@ 0x30
 8005376:	09db      	lsrs	r3, r3, #7
 8005378:	633b      	str	r3, [r7, #48]	@ 0x30
 800537a:	6b3b      	ldr	r3, [r7, #48]	@ 0x30
 800537c:	2b7f      	cmp	r3, #127	@ 0x7f
 800537e:	d8f0      	bhi.n	8005362 <SEGGER_SYSVIEW_RecordU32x6+0xda>
 8005380:	6b7b      	ldr	r3, [r7, #52]	@ 0x34
 8005382:	1c5a      	adds	r2, r3, #1
 8005384:	637a      	str	r2, [r7, #52]	@ 0x34
 8005386:	6b3a      	ldr	r2, [r7, #48]	@ 0x30
 8005388:	b2d2      	uxtb	r2, r2
 800538a:	701a      	strb	r2, [r3, #0]
 800538c:	6b7b      	ldr	r3, [r7, #52]	@ 0x34
 800538e:	617b      	str	r3, [r7, #20]
  ENCODE_U32(pPayload, Para4);
 8005390:	697b      	ldr	r3, [r7, #20]
 8005392:	62fb      	str	r3, [r7, #44]	@ 0x2c
 8005394:	6dfb      	ldr	r3, [r7, #92]	@ 0x5c
 8005396:	62bb      	str	r3, [r7, #40]	@ 0x28
 8005398:	e00b      	b.n	80053b2 <SEGGER_SYSVIEW_RecordU32x6+0x12a>
 800539a:	6abb      	ldr	r3, [r7, #40]	@ 0x28
 800539c:	b2da      	uxtb	r2, r3
 800539e:	6afb      	ldr	r3, [r7, #44]	@ 0x2c
 80053a0:	1c59      	adds	r1, r3, #1
 80053a2:	62f9      	str	r1, [r7, #44]	@ 0x2c
 80053a4:	f062 027f 	orn	r2, r2, #127	@ 0x7f
 80053a8:	b2d2      	uxtb	r2, r2
 80053aa:	701a      	strb	r2, [r3, #0]
 80053ac:	6abb      	ldr	r3, [r7, #40]	@ 0x28
 80053ae:	09db      	lsrs	r3, r3, #7
 80053b0:	62bb      	str	r3, [r7, #40]	@ 0x28
 80053b2:	6abb      	ldr	r3, [r7, #40]	@ 0x28
 80053b4:	2b7f      	cmp	r3, #127	@ 0x7f
 80053b6:	d8f0      	bhi.n	800539a <SEGGER_SYSVIEW_RecordU32x6+0x112>
 80053b8:	6afb      	ldr	r3, [r7, #44]	@ 0x2c
 80053ba:	1c5a      	adds	r2, r3, #1
 80053bc:	62fa      	str	r2, [r7, #44]	@ 0x2c
 80053be:	6aba      	ldr	r2, [r7, #40]	@ 0x28
 80053c0:	b2d2      	uxtb	r2, r2
 80053c2:	701a      	strb	r2, [r3, #0]
 80053c4:	6afb      	ldr	r3, [r7, #44]	@ 0x2c
 80053c6:	617b      	str	r3, [r7, #20]
  ENCODE_U32(pPayload, Para5);
 80053c8:	697b      	ldr	r3, [r7, #20]
 80053ca:	627b      	str	r3, [r7, #36]	@ 0x24
 80053cc:	6e3b      	ldr	r3, [r7, #96]	@ 0x60
 80053ce:	623b      	str	r3, [r7, #32]
 80053d0:	e00b      	b.n	80053ea <SEGGER_SYSVIEW_RecordU32x6+0x162>
 80053d2:	6a3b      	ldr	r3, [r7, #32]
 80053d4:	b2da      	uxtb	r2, r3
 80053d6:	6a7b      	ldr	r3, [r7, #36]	@ 0x24
 80053d8:	1c59      	adds	r1, r3, #1
 80053da:	6279      	str	r1, [r7, #36]	@ 0x24
 80053dc:	f062 027f 	orn	r2, r2, #127	@ 0x7f
 80053e0:	b2d2      	uxtb	r2, r2
 80053e2:	701a      	strb	r2, [r3, #0]
 80053e4:	6a3b      	ldr	r3, [r7, #32]
 80053e6:	09db      	lsrs	r3, r3, #7
 80053e8:	623b      	str	r3, [r7, #32]
 80053ea:	6a3b      	ldr	r3, [r7, #32]
 80053ec:	2b7f      	cmp	r3, #127	@ 0x7f
 80053ee:	d8f0      	bhi.n	80053d2 <SEGGER_SYSVIEW_RecordU32x6+0x14a>
 80053f0:	6a7b      	ldr	r3, [r7, #36]	@ 0x24
 80053f2:	1c5a      	adds	r2, r3, #1
 80053f4:	627a      	str	r2, [r7, #36]	@ 0x24
 80053f6:	6a3a      	ldr	r2, [r7, #32]
 80053f8:	b2d2      	uxtb	r2, r2
 80053fa:	701a      	strb	r2, [r3, #0]
 80053fc:	6a7b      	ldr	r3, [r7, #36]	@ 0x24
 80053fe:	617b      	str	r3, [r7, #20]
  _SendPacket(pPayloadStart, pPayload, EventID);
 8005400:	68fa      	ldr	r2, [r7, #12]
 8005402:	6979      	ldr	r1, [r7, #20]
 8005404:	69b8      	ldr	r0, [r7, #24]
 8005406:	f7ff fc1b 	bl	8004c40 <_SendPacket>
  RECORD_END();
 800540a:	69fb      	ldr	r3, [r7, #28]
 800540c:	f383 8811 	msr	BASEPRI, r3
}
 8005410:	bf00      	nop
 8005412:	3750      	adds	r7, #80	@ 0x50
 8005414:	46bd      	mov	sp, r7
 8005416:	bd80      	pop	{r7, pc}
 8005418:	20014348 	.word	0x20014348

0800541c <SEGGER_SYSVIEW_Start>:
*    When SEGGER_SYSVIEW_CAN_RESTART is 1, each received start command
*    records the system information. This is required to enable restart
*    of recordings when SystemView unexpectedly disconnects without sending
*    a stop command before.
*/
void SEGGER_SYSVIEW_Start(void) {
 800541c:	b580      	push	{r7, lr}
 800541e:	b08c      	sub	sp, #48	@ 0x30
 8005420:	af00      	add	r7, sp, #0
#if (SEGGER_SYSVIEW_CAN_RESTART == 0)
  if (_SYSVIEW_Globals.EnableState == 0) {
#endif
    _SYSVIEW_Globals.EnableState = 1;
 8005422:	4b58      	ldr	r3, [pc, #352]	@ (8005584 <SEGGER_SYSVIEW_Start+0x168>)
 8005424:	2201      	movs	r2, #1
 8005426:	701a      	strb	r2, [r3, #0]
#if (SEGGER_SYSVIEW_POST_MORTEM_MODE == 1)
    _SendSyncInfo();
#else
    SEGGER_SYSVIEW_LOCK();
 8005428:	f3ef 8311 	mrs	r3, BASEPRI
 800542c:	f04f 0120 	mov.w	r1, #32
 8005430:	f381 8811 	msr	BASEPRI, r1
 8005434:	60fb      	str	r3, [r7, #12]
    SEGGER_RTT_WriteSkipNoLock(CHANNEL_ID_UP, _abSync, 10);
 8005436:	4b53      	ldr	r3, [pc, #332]	@ (8005584 <SEGGER_SYSVIEW_Start+0x168>)
 8005438:	785b      	ldrb	r3, [r3, #1]
 800543a:	220a      	movs	r2, #10
 800543c:	4952      	ldr	r1, [pc, #328]	@ (8005588 <SEGGER_SYSVIEW_Start+0x16c>)
 800543e:	4618      	mov	r0, r3
 8005440:	f7fa fec6 	bl	80001d0 <SEGGER_RTT_ASM_WriteSkipNoLock>
    SEGGER_SYSVIEW_UNLOCK();
 8005444:	68fb      	ldr	r3, [r7, #12]
 8005446:	f383 8811 	msr	BASEPRI, r3
    SEGGER_SYSVIEW_ON_EVENT_RECORDED(10);
    SEGGER_SYSVIEW_RecordVoid(SYSVIEW_EVTID_TRACE_START);
 800544a:	200a      	movs	r0, #10
 800544c:	f7ff fdba 	bl	8004fc4 <SEGGER_SYSVIEW_RecordVoid>
    {
      U8* pPayload;
      U8* pPayloadStart;
      RECORD_START(SEGGER_SYSVIEW_INFO_SIZE + 4 * SEGGER_SYSVIEW_QUANTA_U32);
 8005450:	f3ef 8311 	mrs	r3, BASEPRI
 8005454:	f04f 0120 	mov.w	r1, #32
 8005458:	f381 8811 	msr	BASEPRI, r1
 800545c:	60bb      	str	r3, [r7, #8]
 800545e:	484b      	ldr	r0, [pc, #300]	@ (800558c <SEGGER_SYSVIEW_Start+0x170>)
 8005460:	f7ff fb01 	bl	8004a66 <_PreparePacket>
 8005464:	6078      	str	r0, [r7, #4]
      //
      pPayload = pPayloadStart;
 8005466:	687b      	ldr	r3, [r7, #4]
 8005468:	603b      	str	r3, [r7, #0]
      ENCODE_U32(pPayload, _SYSVIEW_Globals.SysFreq);
 800546a:	683b      	ldr	r3, [r7, #0]
 800546c:	62fb      	str	r3, [r7, #44]	@ 0x2c
 800546e:	4b45      	ldr	r3, [pc, #276]	@ (8005584 <SEGGER_SYSVIEW_Start+0x168>)
 8005470:	685b      	ldr	r3, [r3, #4]
 8005472:	62bb      	str	r3, [r7, #40]	@ 0x28
 8005474:	e00b      	b.n	800548e <SEGGER_SYSVIEW_Start+0x72>
 8005476:	6abb      	ldr	r3, [r7, #40]	@ 0x28
 8005478:	b2da      	uxtb	r2, r3
 800547a:	6afb      	ldr	r3, [r7, #44]	@ 0x2c
 800547c:	1c59      	adds	r1, r3, #1
 800547e:	62f9      	str	r1, [r7, #44]	@ 0x2c
 8005480:	f062 027f 	orn	r2, r2, #127	@ 0x7f
 8005484:	b2d2      	uxtb	r2, r2
 8005486:	701a      	strb	r2, [r3, #0]
 8005488:	6abb      	ldr	r3, [r7, #40]	@ 0x28
 800548a:	09db      	lsrs	r3, r3, #7
 800548c:	62bb      	str	r3, [r7, #40]	@ 0x28
 800548e:	6abb      	ldr	r3, [r7, #40]	@ 0x28
 8005490:	2b7f      	cmp	r3, #127	@ 0x7f
 8005492:	d8f0      	bhi.n	8005476 <SEGGER_SYSVIEW_Start+0x5a>
 8005494:	6afb      	ldr	r3, [r7, #44]	@ 0x2c
 8005496:	1c5a      	adds	r2, r3, #1
 8005498:	62fa      	str	r2, [r7, #44]	@ 0x2c
 800549a:	6aba      	ldr	r2, [r7, #40]	@ 0x28
 800549c:	b2d2      	uxtb	r2, r2
 800549e:	701a      	strb	r2, [r3, #0]
 80054a0:	6afb      	ldr	r3, [r7, #44]	@ 0x2c
 80054a2:	603b      	str	r3, [r7, #0]
      ENCODE_U32(pPayload, _SYSVIEW_Globals.CPUFreq);
 80054a4:	683b      	ldr	r3, [r7, #0]
 80054a6:	627b      	str	r3, [r7, #36]	@ 0x24
 80054a8:	4b36      	ldr	r3, [pc, #216]	@ (8005584 <SEGGER_SYSVIEW_Start+0x168>)
 80054aa:	689b      	ldr	r3, [r3, #8]
 80054ac:	623b      	str	r3, [r7, #32]
 80054ae:	e00b      	b.n	80054c8 <SEGGER_SYSVIEW_Start+0xac>
 80054b0:	6a3b      	ldr	r3, [r7, #32]
 80054b2:	b2da      	uxtb	r2, r3
 80054b4:	6a7b      	ldr	r3, [r7, #36]	@ 0x24
 80054b6:	1c59      	adds	r1, r3, #1
 80054b8:	6279      	str	r1, [r7, #36]	@ 0x24
 80054ba:	f062 027f 	orn	r2, r2, #127	@ 0x7f
 80054be:	b2d2      	uxtb	r2, r2
 80054c0:	701a      	strb	r2, [r3, #0]
 80054c2:	6a3b      	ldr	r3, [r7, #32]
 80054c4:	09db      	lsrs	r3, r3, #7
 80054c6:	623b      	str	r3, [r7, #32]
 80054c8:	6a3b      	ldr	r3, [r7, #32]
 80054ca:	2b7f      	cmp	r3, #127	@ 0x7f
 80054cc:	d8f0      	bhi.n	80054b0 <SEGGER_SYSVIEW_Start+0x94>
 80054ce:	6a7b      	ldr	r3, [r7, #36]	@ 0x24
 80054d0:	1c5a      	adds	r2, r3, #1
 80054d2:	627a      	str	r2, [r7, #36]	@ 0x24
 80054d4:	6a3a      	ldr	r2, [r7, #32]
 80054d6:	b2d2      	uxtb	r2, r2
 80054d8:	701a      	strb	r2, [r3, #0]
 80054da:	6a7b      	ldr	r3, [r7, #36]	@ 0x24
 80054dc:	603b      	str	r3, [r7, #0]
      ENCODE_U32(pPayload, _SYSVIEW_Globals.RAMBaseAddress);
 80054de:	683b      	ldr	r3, [r7, #0]
 80054e0:	61fb      	str	r3, [r7, #28]
 80054e2:	4b28      	ldr	r3, [pc, #160]	@ (8005584 <SEGGER_SYSVIEW_Start+0x168>)
 80054e4:	691b      	ldr	r3, [r3, #16]
 80054e6:	61bb      	str	r3, [r7, #24]
 80054e8:	e00b      	b.n	8005502 <SEGGER_SYSVIEW_Start+0xe6>
 80054ea:	69bb      	ldr	r3, [r7, #24]
 80054ec:	b2da      	uxtb	r2, r3
 80054ee:	69fb      	ldr	r3, [r7, #28]
 80054f0:	1c59      	adds	r1, r3, #1
 80054f2:	61f9      	str	r1, [r7, #28]
 80054f4:	f062 027f 	orn	r2, r2, #127	@ 0x7f
 80054f8:	b2d2      	uxtb	r2, r2
 80054fa:	701a      	strb	r2, [r3, #0]
 80054fc:	69bb      	ldr	r3, [r7, #24]
 80054fe:	09db      	lsrs	r3, r3, #7
 8005500:	61bb      	str	r3, [r7, #24]
 8005502:	69bb      	ldr	r3, [r7, #24]
 8005504:	2b7f      	cmp	r3, #127	@ 0x7f
 8005506:	d8f0      	bhi.n	80054ea <SEGGER_SYSVIEW_Start+0xce>
 8005508:	69fb      	ldr	r3, [r7, #28]
 800550a:	1c5a      	adds	r2, r3, #1
 800550c:	61fa      	str	r2, [r7, #28]
 800550e:	69ba      	ldr	r2, [r7, #24]
 8005510:	b2d2      	uxtb	r2, r2
 8005512:	701a      	strb	r2, [r3, #0]
 8005514:	69fb      	ldr	r3, [r7, #28]
 8005516:	603b      	str	r3, [r7, #0]
      ENCODE_U32(pPayload, SEGGER_SYSVIEW_ID_SHIFT);
 8005518:	683b      	ldr	r3, [r7, #0]
 800551a:	617b      	str	r3, [r7, #20]
 800551c:	2300      	movs	r3, #0
 800551e:	613b      	str	r3, [r7, #16]
 8005520:	e00b      	b.n	800553a <SEGGER_SYSVIEW_Start+0x11e>
 8005522:	693b      	ldr	r3, [r7, #16]
 8005524:	b2da      	uxtb	r2, r3
 8005526:	697b      	ldr	r3, [r7, #20]
 8005528:	1c59      	adds	r1, r3, #1
 800552a:	6179      	str	r1, [r7, #20]
 800552c:	f062 027f 	orn	r2, r2, #127	@ 0x7f
 8005530:	b2d2      	uxtb	r2, r2
 8005532:	701a      	strb	r2, [r3, #0]
 8005534:	693b      	ldr	r3, [r7, #16]
 8005536:	09db      	lsrs	r3, r3, #7
 8005538:	613b      	str	r3, [r7, #16]
 800553a:	693b      	ldr	r3, [r7, #16]
 800553c:	2b7f      	cmp	r3, #127	@ 0x7f
 800553e:	d8f0      	bhi.n	8005522 <SEGGER_SYSVIEW_Start+0x106>
 8005540:	697b      	ldr	r3, [r7, #20]
 8005542:	1c5a      	adds	r2, r3, #1
 8005544:	617a      	str	r2, [r7, #20]
 8005546:	693a      	ldr	r2, [r7, #16]
 8005548:	b2d2      	uxtb	r2, r2
 800554a:	701a      	strb	r2, [r3, #0]
 800554c:	697b      	ldr	r3, [r7, #20]
 800554e:	603b      	str	r3, [r7, #0]
      _SendPacket(pPayloadStart, pPayload, SYSVIEW_EVTID_INIT);
 8005550:	2218      	movs	r2, #24
 8005552:	6839      	ldr	r1, [r7, #0]
 8005554:	6878      	ldr	r0, [r7, #4]
 8005556:	f7ff fb73 	bl	8004c40 <_SendPacket>
      RECORD_END();
 800555a:	68bb      	ldr	r3, [r7, #8]
 800555c:	f383 8811 	msr	BASEPRI, r3
    }
    if (_SYSVIEW_Globals.pfSendSysDesc) {
 8005560:	4b08      	ldr	r3, [pc, #32]	@ (8005584 <SEGGER_SYSVIEW_Start+0x168>)
 8005562:	6a5b      	ldr	r3, [r3, #36]	@ 0x24
 8005564:	2b00      	cmp	r3, #0
 8005566:	d002      	beq.n	800556e <SEGGER_SYSVIEW_Start+0x152>
      _SYSVIEW_Globals.pfSendSysDesc();
 8005568:	4b06      	ldr	r3, [pc, #24]	@ (8005584 <SEGGER_SYSVIEW_Start+0x168>)
 800556a:	6a5b      	ldr	r3, [r3, #36]	@ 0x24
 800556c:	4798      	blx	r3
    }
    SEGGER_SYSVIEW_RecordSystime();
 800556e:	f000 f9eb 	bl	8005948 <SEGGER_SYSVIEW_RecordSystime>
    SEGGER_SYSVIEW_SendTaskList();
 8005572:	f000 f9b1 	bl	80058d8 <SEGGER_SYSVIEW_SendTaskList>
    SEGGER_SYSVIEW_SendNumModules();
 8005576:	f000 fd21 	bl	8005fbc <SEGGER_SYSVIEW_SendNumModules>
#endif
#if (SEGGER_SYSVIEW_CAN_RESTART == 0)
  }
#endif
}
 800557a:	bf00      	nop
 800557c:	3730      	adds	r7, #48	@ 0x30
 800557e:	46bd      	mov	sp, r7
 8005580:	bd80      	pop	{r7, pc}
 8005582:	bf00      	nop
 8005584:	20014318 	.word	0x20014318
 8005588:	080062e0 	.word	0x080062e0
 800558c:	20014348 	.word	0x20014348

08005590 <SEGGER_SYSVIEW_Stop>:
*    This function disables transmission of SystemView packets recorded
*    by subsequent trace calls.  If transmission is enabled when
*    this function is called, a single SystemView Stop event is recorded
*    to the trace, send, and then trace transmission is halted.
*/
void SEGGER_SYSVIEW_Stop(void) {
 8005590:	b580      	push	{r7, lr}
 8005592:	b082      	sub	sp, #8
 8005594:	af00      	add	r7, sp, #0
  U8* pPayloadStart;
  RECORD_START(SEGGER_SYSVIEW_INFO_SIZE);
 8005596:	f3ef 8311 	mrs	r3, BASEPRI
 800559a:	f04f 0120 	mov.w	r1, #32
 800559e:	f381 8811 	msr	BASEPRI, r1
 80055a2:	607b      	str	r3, [r7, #4]
 80055a4:	480b      	ldr	r0, [pc, #44]	@ (80055d4 <SEGGER_SYSVIEW_Stop+0x44>)
 80055a6:	f7ff fa5e 	bl	8004a66 <_PreparePacket>
 80055aa:	6038      	str	r0, [r7, #0]
  //
  if (_SYSVIEW_Globals.EnableState) {
 80055ac:	4b0a      	ldr	r3, [pc, #40]	@ (80055d8 <SEGGER_SYSVIEW_Stop+0x48>)
 80055ae:	781b      	ldrb	r3, [r3, #0]
 80055b0:	2b00      	cmp	r3, #0
 80055b2:	d007      	beq.n	80055c4 <SEGGER_SYSVIEW_Stop+0x34>
    _SendPacket(pPayloadStart, pPayloadStart, SYSVIEW_EVTID_TRACE_STOP);
 80055b4:	220b      	movs	r2, #11
 80055b6:	6839      	ldr	r1, [r7, #0]
 80055b8:	6838      	ldr	r0, [r7, #0]
 80055ba:	f7ff fb41 	bl	8004c40 <_SendPacket>
    _SYSVIEW_Globals.EnableState = 0;
 80055be:	4b06      	ldr	r3, [pc, #24]	@ (80055d8 <SEGGER_SYSVIEW_Stop+0x48>)
 80055c0:	2200      	movs	r2, #0
 80055c2:	701a      	strb	r2, [r3, #0]
  }
  RECORD_END();
 80055c4:	687b      	ldr	r3, [r7, #4]
 80055c6:	f383 8811 	msr	BASEPRI, r3
}
 80055ca:	bf00      	nop
 80055cc:	3708      	adds	r7, #8
 80055ce:	46bd      	mov	sp, r7
 80055d0:	bd80      	pop	{r7, pc}
 80055d2:	bf00      	nop
 80055d4:	20014348 	.word	0x20014348
 80055d8:	20014318 	.word	0x20014318

080055dc <SEGGER_SYSVIEW_GetSysDesc>:
*
*  Function description
*    Triggers a send of the system information and description.
*
*/
void SEGGER_SYSVIEW_GetSysDesc(void) {
 80055dc:	b580      	push	{r7, lr}
 80055de:	b08c      	sub	sp, #48	@ 0x30
 80055e0:	af00      	add	r7, sp, #0
  U8* pPayload;
  U8* pPayloadStart;
  RECORD_START(SEGGER_SYSVIEW_INFO_SIZE + 4 * SEGGER_SYSVIEW_QUANTA_U32);
 80055e2:	f3ef 8311 	mrs	r3, BASEPRI
 80055e6:	f04f 0120 	mov.w	r1, #32
 80055ea:	f381 8811 	msr	BASEPRI, r1
 80055ee:	60fb      	str	r3, [r7, #12]
 80055f0:	4845      	ldr	r0, [pc, #276]	@ (8005708 <SEGGER_SYSVIEW_GetSysDesc+0x12c>)
 80055f2:	f7ff fa38 	bl	8004a66 <_PreparePacket>
 80055f6:	60b8      	str	r0, [r7, #8]
  //
  pPayload = pPayloadStart;
 80055f8:	68bb      	ldr	r3, [r7, #8]
 80055fa:	607b      	str	r3, [r7, #4]
  ENCODE_U32(pPayload, _SYSVIEW_Globals.SysFreq);
 80055fc:	687b      	ldr	r3, [r7, #4]
 80055fe:	62fb      	str	r3, [r7, #44]	@ 0x2c
 8005600:	4b42      	ldr	r3, [pc, #264]	@ (800570c <SEGGER_SYSVIEW_GetSysDesc+0x130>)
 8005602:	685b      	ldr	r3, [r3, #4]
 8005604:	62bb      	str	r3, [r7, #40]	@ 0x28
 8005606:	e00b      	b.n	8005620 <SEGGER_SYSVIEW_GetSysDesc+0x44>
 8005608:	6abb      	ldr	r3, [r7, #40]	@ 0x28
 800560a:	b2da      	uxtb	r2, r3
 800560c:	6afb      	ldr	r3, [r7, #44]	@ 0x2c
 800560e:	1c59      	adds	r1, r3, #1
 8005610:	62f9      	str	r1, [r7, #44]	@ 0x2c
 8005612:	f062 027f 	orn	r2, r2, #127	@ 0x7f
 8005616:	b2d2      	uxtb	r2, r2
 8005618:	701a      	strb	r2, [r3, #0]
 800561a:	6abb      	ldr	r3, [r7, #40]	@ 0x28
 800561c:	09db      	lsrs	r3, r3, #7
 800561e:	62bb      	str	r3, [r7, #40]	@ 0x28
 8005620:	6abb      	ldr	r3, [r7, #40]	@ 0x28
 8005622:	2b7f      	cmp	r3, #127	@ 0x7f
 8005624:	d8f0      	bhi.n	8005608 <SEGGER_SYSVIEW_GetSysDesc+0x2c>
 8005626:	6afb      	ldr	r3, [r7, #44]	@ 0x2c
 8005628:	1c5a      	adds	r2, r3, #1
 800562a:	62fa      	str	r2, [r7, #44]	@ 0x2c
 800562c:	6aba      	ldr	r2, [r7, #40]	@ 0x28
 800562e:	b2d2      	uxtb	r2, r2
 8005630:	701a      	strb	r2, [r3, #0]
 8005632:	6afb      	ldr	r3, [r7, #44]	@ 0x2c
 8005634:	607b      	str	r3, [r7, #4]
  ENCODE_U32(pPayload, _SYSVIEW_Globals.CPUFreq);
 8005636:	687b      	ldr	r3, [r7, #4]
 8005638:	627b      	str	r3, [r7, #36]	@ 0x24
 800563a:	4b34      	ldr	r3, [pc, #208]	@ (800570c <SEGGER_SYSVIEW_GetSysDesc+0x130>)
 800563c:	689b      	ldr	r3, [r3, #8]
 800563e:	623b      	str	r3, [r7, #32]
 8005640:	e00b      	b.n	800565a <SEGGER_SYSVIEW_GetSysDesc+0x7e>
 8005642:	6a3b      	ldr	r3, [r7, #32]
 8005644:	b2da      	uxtb	r2, r3
 8005646:	6a7b      	ldr	r3, [r7, #36]	@ 0x24
 8005648:	1c59      	adds	r1, r3, #1
 800564a:	6279      	str	r1, [r7, #36]	@ 0x24
 800564c:	f062 027f 	orn	r2, r2, #127	@ 0x7f
 8005650:	b2d2      	uxtb	r2, r2
 8005652:	701a      	strb	r2, [r3, #0]
 8005654:	6a3b      	ldr	r3, [r7, #32]
 8005656:	09db      	lsrs	r3, r3, #7
 8005658:	623b      	str	r3, [r7, #32]
 800565a:	6a3b      	ldr	r3, [r7, #32]
 800565c:	2b7f      	cmp	r3, #127	@ 0x7f
 800565e:	d8f0      	bhi.n	8005642 <SEGGER_SYSVIEW_GetSysDesc+0x66>
 8005660:	6a7b      	ldr	r3, [r7, #36]	@ 0x24
 8005662:	1c5a      	adds	r2, r3, #1
 8005664:	627a      	str	r2, [r7, #36]	@ 0x24
 8005666:	6a3a      	ldr	r2, [r7, #32]
 8005668:	b2d2      	uxtb	r2, r2
 800566a:	701a      	strb	r2, [r3, #0]
 800566c:	6a7b      	ldr	r3, [r7, #36]	@ 0x24
 800566e:	607b      	str	r3, [r7, #4]
  ENCODE_U32(pPayload, _SYSVIEW_Globals.RAMBaseAddress);
 8005670:	687b      	ldr	r3, [r7, #4]
 8005672:	61fb      	str	r3, [r7, #28]
 8005674:	4b25      	ldr	r3, [pc, #148]	@ (800570c <SEGGER_SYSVIEW_GetSysDesc+0x130>)
 8005676:	691b      	ldr	r3, [r3, #16]
 8005678:	61bb      	str	r3, [r7, #24]
 800567a:	e00b      	b.n	8005694 <SEGGER_SYSVIEW_GetSysDesc+0xb8>
 800567c:	69bb      	ldr	r3, [r7, #24]
 800567e:	b2da      	uxtb	r2, r3
 8005680:	69fb      	ldr	r3, [r7, #28]
 8005682:	1c59      	adds	r1, r3, #1
 8005684:	61f9      	str	r1, [r7, #28]
 8005686:	f062 027f 	orn	r2, r2, #127	@ 0x7f
 800568a:	b2d2      	uxtb	r2, r2
 800568c:	701a      	strb	r2, [r3, #0]
 800568e:	69bb      	ldr	r3, [r7, #24]
 8005690:	09db      	lsrs	r3, r3, #7
 8005692:	61bb      	str	r3, [r7, #24]
 8005694:	69bb      	ldr	r3, [r7, #24]
 8005696:	2b7f      	cmp	r3, #127	@ 0x7f
 8005698:	d8f0      	bhi.n	800567c <SEGGER_SYSVIEW_GetSysDesc+0xa0>
 800569a:	69fb      	ldr	r3, [r7, #28]
 800569c:	1c5a      	adds	r2, r3, #1
 800569e:	61fa      	str	r2, [r7, #28]
 80056a0:	69ba      	ldr	r2, [r7, #24]
 80056a2:	b2d2      	uxtb	r2, r2
 80056a4:	701a      	strb	r2, [r3, #0]
 80056a6:	69fb      	ldr	r3, [r7, #28]
 80056a8:	607b      	str	r3, [r7, #4]
  ENCODE_U32(pPayload, SEGGER_SYSVIEW_ID_SHIFT);
 80056aa:	687b      	ldr	r3, [r7, #4]
 80056ac:	617b      	str	r3, [r7, #20]
 80056ae:	2300      	movs	r3, #0
 80056b0:	613b      	str	r3, [r7, #16]
 80056b2:	e00b      	b.n	80056cc <SEGGER_SYSVIEW_GetSysDesc+0xf0>
 80056b4:	693b      	ldr	r3, [r7, #16]
 80056b6:	b2da      	uxtb	r2, r3
 80056b8:	697b      	ldr	r3, [r7, #20]
 80056ba:	1c59      	adds	r1, r3, #1
 80056bc:	6179      	str	r1, [r7, #20]
 80056be:	f062 027f 	orn	r2, r2, #127	@ 0x7f
 80056c2:	b2d2      	uxtb	r2, r2
 80056c4:	701a      	strb	r2, [r3, #0]
 80056c6:	693b      	ldr	r3, [r7, #16]
 80056c8:	09db      	lsrs	r3, r3, #7
 80056ca:	613b      	str	r3, [r7, #16]
 80056cc:	693b      	ldr	r3, [r7, #16]
 80056ce:	2b7f      	cmp	r3, #127	@ 0x7f
 80056d0:	d8f0      	bhi.n	80056b4 <SEGGER_SYSVIEW_GetSysDesc+0xd8>
 80056d2:	697b      	ldr	r3, [r7, #20]
 80056d4:	1c5a      	adds	r2, r3, #1
 80056d6:	617a      	str	r2, [r7, #20]
 80056d8:	693a      	ldr	r2, [r7, #16]
 80056da:	b2d2      	uxtb	r2, r2
 80056dc:	701a      	strb	r2, [r3, #0]
 80056de:	697b      	ldr	r3, [r7, #20]
 80056e0:	607b      	str	r3, [r7, #4]
  _SendPacket(pPayloadStart, pPayload, SYSVIEW_EVTID_INIT);
 80056e2:	2218      	movs	r2, #24
 80056e4:	6879      	ldr	r1, [r7, #4]
 80056e6:	68b8      	ldr	r0, [r7, #8]
 80056e8:	f7ff faaa 	bl	8004c40 <_SendPacket>
  RECORD_END();
 80056ec:	68fb      	ldr	r3, [r7, #12]
 80056ee:	f383 8811 	msr	BASEPRI, r3
  if (_SYSVIEW_Globals.pfSendSysDesc) {
 80056f2:	4b06      	ldr	r3, [pc, #24]	@ (800570c <SEGGER_SYSVIEW_GetSysDesc+0x130>)
 80056f4:	6a5b      	ldr	r3, [r3, #36]	@ 0x24
 80056f6:	2b00      	cmp	r3, #0
 80056f8:	d002      	beq.n	8005700 <SEGGER_SYSVIEW_GetSysDesc+0x124>
    _SYSVIEW_Globals.pfSendSysDesc();
 80056fa:	4b04      	ldr	r3, [pc, #16]	@ (800570c <SEGGER_SYSVIEW_GetSysDesc+0x130>)
 80056fc:	6a5b      	ldr	r3, [r3, #36]	@ 0x24
 80056fe:	4798      	blx	r3
  }
}
 8005700:	bf00      	nop
 8005702:	3730      	adds	r7, #48	@ 0x30
 8005704:	46bd      	mov	sp, r7
 8005706:	bd80      	pop	{r7, pc}
 8005708:	20014348 	.word	0x20014348
 800570c:	20014318 	.word	0x20014318

08005710 <SEGGER_SYSVIEW_SendTaskInfo>:
*    task priority and task name.
*
*  Parameters
*    pInfo - Pointer to task information to send.
*/
void SEGGER_SYSVIEW_SendTaskInfo(const SEGGER_SYSVIEW_TASKINFO *pInfo) {
 8005710:	b580      	push	{r7, lr}
 8005712:	b092      	sub	sp, #72	@ 0x48
 8005714:	af00      	add	r7, sp, #0
 8005716:	6078      	str	r0, [r7, #4]
  U8* pPayload;
  U8* pPayloadStart;
  RECORD_START(SEGGER_SYSVIEW_INFO_SIZE + SEGGER_SYSVIEW_QUANTA_U32 + 1 + 32);
 8005718:	f3ef 8311 	mrs	r3, BASEPRI
 800571c:	f04f 0120 	mov.w	r1, #32
 8005720:	f381 8811 	msr	BASEPRI, r1
 8005724:	617b      	str	r3, [r7, #20]
 8005726:	486a      	ldr	r0, [pc, #424]	@ (80058d0 <SEGGER_SYSVIEW_SendTaskInfo+0x1c0>)
 8005728:	f7ff f99d 	bl	8004a66 <_PreparePacket>
 800572c:	6138      	str	r0, [r7, #16]
  //
  pPayload = pPayloadStart;
 800572e:	693b      	ldr	r3, [r7, #16]
 8005730:	60fb      	str	r3, [r7, #12]
  ENCODE_U32(pPayload, SHRINK_ID(pInfo->TaskID));
 8005732:	68fb      	ldr	r3, [r7, #12]
 8005734:	647b      	str	r3, [r7, #68]	@ 0x44
 8005736:	687b      	ldr	r3, [r7, #4]
 8005738:	681a      	ldr	r2, [r3, #0]
 800573a:	4b66      	ldr	r3, [pc, #408]	@ (80058d4 <SEGGER_SYSVIEW_SendTaskInfo+0x1c4>)
 800573c:	691b      	ldr	r3, [r3, #16]
 800573e:	1ad3      	subs	r3, r2, r3
 8005740:	643b      	str	r3, [r7, #64]	@ 0x40
 8005742:	e00b      	b.n	800575c <SEGGER_SYSVIEW_SendTaskInfo+0x4c>
 8005744:	6c3b      	ldr	r3, [r7, #64]	@ 0x40
 8005746:	b2da      	uxtb	r2, r3
 8005748:	6c7b      	ldr	r3, [r7, #68]	@ 0x44
 800574a:	1c59      	adds	r1, r3, #1
 800574c:	6479      	str	r1, [r7, #68]	@ 0x44
 800574e:	f062 027f 	orn	r2, r2, #127	@ 0x7f
 8005752:	b2d2      	uxtb	r2, r2
 8005754:	701a      	strb	r2, [r3, #0]
 8005756:	6c3b      	ldr	r3, [r7, #64]	@ 0x40
 8005758:	09db      	lsrs	r3, r3, #7
 800575a:	643b      	str	r3, [r7, #64]	@ 0x40
 800575c:	6c3b      	ldr	r3, [r7, #64]	@ 0x40
 800575e:	2b7f      	cmp	r3, #127	@ 0x7f
 8005760:	d8f0      	bhi.n	8005744 <SEGGER_SYSVIEW_SendTaskInfo+0x34>
 8005762:	6c7b      	ldr	r3, [r7, #68]	@ 0x44
 8005764:	1c5a      	adds	r2, r3, #1
 8005766:	647a      	str	r2, [r7, #68]	@ 0x44
 8005768:	6c3a      	ldr	r2, [r7, #64]	@ 0x40
 800576a:	b2d2      	uxtb	r2, r2
 800576c:	701a      	strb	r2, [r3, #0]
 800576e:	6c7b      	ldr	r3, [r7, #68]	@ 0x44
 8005770:	60fb      	str	r3, [r7, #12]
  ENCODE_U32(pPayload, pInfo->Prio);
 8005772:	68fb      	ldr	r3, [r7, #12]
 8005774:	63fb      	str	r3, [r7, #60]	@ 0x3c
 8005776:	687b      	ldr	r3, [r7, #4]
 8005778:	689b      	ldr	r3, [r3, #8]
 800577a:	63bb      	str	r3, [r7, #56]	@ 0x38
 800577c:	e00b      	b.n	8005796 <SEGGER_SYSVIEW_SendTaskInfo+0x86>
 800577e:	6bbb      	ldr	r3, [r7, #56]	@ 0x38
 8005780:	b2da      	uxtb	r2, r3
 8005782:	6bfb      	ldr	r3, [r7, #60]	@ 0x3c
 8005784:	1c59      	adds	r1, r3, #1
 8005786:	63f9      	str	r1, [r7, #60]	@ 0x3c
 8005788:	f062 027f 	orn	r2, r2, #127	@ 0x7f
 800578c:	b2d2      	uxtb	r2, r2
 800578e:	701a      	strb	r2, [r3, #0]
 8005790:	6bbb      	ldr	r3, [r7, #56]	@ 0x38
 8005792:	09db      	lsrs	r3, r3, #7
 8005794:	63bb      	str	r3, [r7, #56]	@ 0x38
 8005796:	6bbb      	ldr	r3, [r7, #56]	@ 0x38
 8005798:	2b7f      	cmp	r3, #127	@ 0x7f
 800579a:	d8f0      	bhi.n	800577e <SEGGER_SYSVIEW_SendTaskInfo+0x6e>
 800579c:	6bfb      	ldr	r3, [r7, #60]	@ 0x3c
 800579e:	1c5a      	adds	r2, r3, #1
 80057a0:	63fa      	str	r2, [r7, #60]	@ 0x3c
 80057a2:	6bba      	ldr	r2, [r7, #56]	@ 0x38
 80057a4:	b2d2      	uxtb	r2, r2
 80057a6:	701a      	strb	r2, [r3, #0]
 80057a8:	6bfb      	ldr	r3, [r7, #60]	@ 0x3c
 80057aa:	60fb      	str	r3, [r7, #12]
  pPayload = _EncodeStr(pPayload, pInfo->sName, 32);
 80057ac:	687b      	ldr	r3, [r7, #4]
 80057ae:	685b      	ldr	r3, [r3, #4]
 80057b0:	2220      	movs	r2, #32
 80057b2:	4619      	mov	r1, r3
 80057b4:	68f8      	ldr	r0, [r7, #12]
 80057b6:	f7ff f91d 	bl	80049f4 <_EncodeStr>
 80057ba:	60f8      	str	r0, [r7, #12]
  _SendPacket(pPayloadStart, pPayload, SYSVIEW_EVTID_TASK_INFO);
 80057bc:	2209      	movs	r2, #9
 80057be:	68f9      	ldr	r1, [r7, #12]
 80057c0:	6938      	ldr	r0, [r7, #16]
 80057c2:	f7ff fa3d 	bl	8004c40 <_SendPacket>
  //
  pPayload = pPayloadStart;
 80057c6:	693b      	ldr	r3, [r7, #16]
 80057c8:	60fb      	str	r3, [r7, #12]
  ENCODE_U32(pPayload, SHRINK_ID(pInfo->TaskID));
 80057ca:	68fb      	ldr	r3, [r7, #12]
 80057cc:	637b      	str	r3, [r7, #52]	@ 0x34
 80057ce:	687b      	ldr	r3, [r7, #4]
 80057d0:	681a      	ldr	r2, [r3, #0]
 80057d2:	4b40      	ldr	r3, [pc, #256]	@ (80058d4 <SEGGER_SYSVIEW_SendTaskInfo+0x1c4>)
 80057d4:	691b      	ldr	r3, [r3, #16]
 80057d6:	1ad3      	subs	r3, r2, r3
 80057d8:	633b      	str	r3, [r7, #48]	@ 0x30
 80057da:	e00b      	b.n	80057f4 <SEGGER_SYSVIEW_SendTaskInfo+0xe4>
 80057dc:	6b3b      	ldr	r3, [r7, #48]	@ 0x30
 80057de:	b2da      	uxtb	r2, r3
 80057e0:	6b7b      	ldr	r3, [r7, #52]	@ 0x34
 80057e2:	1c59      	adds	r1, r3, #1
 80057e4:	6379      	str	r1, [r7, #52]	@ 0x34
 80057e6:	f062 027f 	orn	r2, r2, #127	@ 0x7f
 80057ea:	b2d2      	uxtb	r2, r2
 80057ec:	701a      	strb	r2, [r3, #0]
 80057ee:	6b3b      	ldr	r3, [r7, #48]	@ 0x30
 80057f0:	09db      	lsrs	r3, r3, #7
 80057f2:	633b      	str	r3, [r7, #48]	@ 0x30
 80057f4:	6b3b      	ldr	r3, [r7, #48]	@ 0x30
 80057f6:	2b7f      	cmp	r3, #127	@ 0x7f
 80057f8:	d8f0      	bhi.n	80057dc <SEGGER_SYSVIEW_SendTaskInfo+0xcc>
 80057fa:	6b7b      	ldr	r3, [r7, #52]	@ 0x34
 80057fc:	1c5a      	adds	r2, r3, #1
 80057fe:	637a      	str	r2, [r7, #52]	@ 0x34
 8005800:	6b3a      	ldr	r2, [r7, #48]	@ 0x30
 8005802:	b2d2      	uxtb	r2, r2
 8005804:	701a      	strb	r2, [r3, #0]
 8005806:	6b7b      	ldr	r3, [r7, #52]	@ 0x34
 8005808:	60fb      	str	r3, [r7, #12]
  ENCODE_U32(pPayload, pInfo->StackBase);
 800580a:	68fb      	ldr	r3, [r7, #12]
 800580c:	62fb      	str	r3, [r7, #44]	@ 0x2c
 800580e:	687b      	ldr	r3, [r7, #4]
 8005810:	68db      	ldr	r3, [r3, #12]
 8005812:	62bb      	str	r3, [r7, #40]	@ 0x28
 8005814:	e00b      	b.n	800582e <SEGGER_SYSVIEW_SendTaskInfo+0x11e>
 8005816:	6abb      	ldr	r3, [r7, #40]	@ 0x28
 8005818:	b2da      	uxtb	r2, r3
 800581a:	6afb      	ldr	r3, [r7, #44]	@ 0x2c
 800581c:	1c59      	adds	r1, r3, #1
 800581e:	62f9      	str	r1, [r7, #44]	@ 0x2c
 8005820:	f062 027f 	orn	r2, r2, #127	@ 0x7f
 8005824:	b2d2      	uxtb	r2, r2
 8005826:	701a      	strb	r2, [r3, #0]
 8005828:	6abb      	ldr	r3, [r7, #40]	@ 0x28
 800582a:	09db      	lsrs	r3, r3, #7
 800582c:	62bb      	str	r3, [r7, #40]	@ 0x28
 800582e:	6abb      	ldr	r3, [r7, #40]	@ 0x28
 8005830:	2b7f      	cmp	r3, #127	@ 0x7f
 8005832:	d8f0      	bhi.n	8005816 <SEGGER_SYSVIEW_SendTaskInfo+0x106>
 8005834:	6afb      	ldr	r3, [r7, #44]	@ 0x2c
 8005836:	1c5a      	adds	r2, r3, #1
 8005838:	62fa      	str	r2, [r7, #44]	@ 0x2c
 800583a:	6aba      	ldr	r2, [r7, #40]	@ 0x28
 800583c:	b2d2      	uxtb	r2, r2
 800583e:	701a      	strb	r2, [r3, #0]
 8005840:	6afb      	ldr	r3, [r7, #44]	@ 0x2c
 8005842:	60fb      	str	r3, [r7, #12]
  ENCODE_U32(pPayload, pInfo->StackSize);
 8005844:	68fb      	ldr	r3, [r7, #12]
 8005846:	627b      	str	r3, [r7, #36]	@ 0x24
 8005848:	687b      	ldr	r3, [r7, #4]
 800584a:	691b      	ldr	r3, [r3, #16]
 800584c:	623b      	str	r3, [r7, #32]
 800584e:	e00b      	b.n	8005868 <SEGGER_SYSVIEW_SendTaskInfo+0x158>
 8005850:	6a3b      	ldr	r3, [r7, #32]
 8005852:	b2da      	uxtb	r2, r3
 8005854:	6a7b      	ldr	r3, [r7, #36]	@ 0x24
 8005856:	1c59      	adds	r1, r3, #1
 8005858:	6279      	str	r1, [r7, #36]	@ 0x24
 800585a:	f062 027f 	orn	r2, r2, #127	@ 0x7f
 800585e:	b2d2      	uxtb	r2, r2
 8005860:	701a      	strb	r2, [r3, #0]
 8005862:	6a3b      	ldr	r3, [r7, #32]
 8005864:	09db      	lsrs	r3, r3, #7
 8005866:	623b      	str	r3, [r7, #32]
 8005868:	6a3b      	ldr	r3, [r7, #32]
 800586a:	2b7f      	cmp	r3, #127	@ 0x7f
 800586c:	d8f0      	bhi.n	8005850 <SEGGER_SYSVIEW_SendTaskInfo+0x140>
 800586e:	6a7b      	ldr	r3, [r7, #36]	@ 0x24
 8005870:	1c5a      	adds	r2, r3, #1
 8005872:	627a      	str	r2, [r7, #36]	@ 0x24
 8005874:	6a3a      	ldr	r2, [r7, #32]
 8005876:	b2d2      	uxtb	r2, r2
 8005878:	701a      	strb	r2, [r3, #0]
 800587a:	6a7b      	ldr	r3, [r7, #36]	@ 0x24
 800587c:	60fb      	str	r3, [r7, #12]
  ENCODE_U32(pPayload, pInfo->StackUsage);
 800587e:	68fb      	ldr	r3, [r7, #12]
 8005880:	61fb      	str	r3, [r7, #28]
 8005882:	687b      	ldr	r3, [r7, #4]
 8005884:	695b      	ldr	r3, [r3, #20]
 8005886:	61bb      	str	r3, [r7, #24]
 8005888:	e00b      	b.n	80058a2 <SEGGER_SYSVIEW_SendTaskInfo+0x192>
 800588a:	69bb      	ldr	r3, [r7, #24]
 800588c:	b2da      	uxtb	r2, r3
 800588e:	69fb      	ldr	r3, [r7, #28]
 8005890:	1c59      	adds	r1, r3, #1
 8005892:	61f9      	str	r1, [r7, #28]
 8005894:	f062 027f 	orn	r2, r2, #127	@ 0x7f
 8005898:	b2d2      	uxtb	r2, r2
 800589a:	701a      	strb	r2, [r3, #0]
 800589c:	69bb      	ldr	r3, [r7, #24]
 800589e:	09db      	lsrs	r3, r3, #7
 80058a0:	61bb      	str	r3, [r7, #24]
 80058a2:	69bb      	ldr	r3, [r7, #24]
 80058a4:	2b7f      	cmp	r3, #127	@ 0x7f
 80058a6:	d8f0      	bhi.n	800588a <SEGGER_SYSVIEW_SendTaskInfo+0x17a>
 80058a8:	69fb      	ldr	r3, [r7, #28]
 80058aa:	1c5a      	adds	r2, r3, #1
 80058ac:	61fa      	str	r2, [r7, #28]
 80058ae:	69ba      	ldr	r2, [r7, #24]
 80058b0:	b2d2      	uxtb	r2, r2
 80058b2:	701a      	strb	r2, [r3, #0]
 80058b4:	69fb      	ldr	r3, [r7, #28]
 80058b6:	60fb      	str	r3, [r7, #12]
  _SendPacket(pPayloadStart, pPayload, SYSVIEW_EVTID_STACK_INFO);
 80058b8:	2215      	movs	r2, #21
 80058ba:	68f9      	ldr	r1, [r7, #12]
 80058bc:	6938      	ldr	r0, [r7, #16]
 80058be:	f7ff f9bf 	bl	8004c40 <_SendPacket>
  RECORD_END();
 80058c2:	697b      	ldr	r3, [r7, #20]
 80058c4:	f383 8811 	msr	BASEPRI, r3
}
 80058c8:	bf00      	nop
 80058ca:	3748      	adds	r7, #72	@ 0x48
 80058cc:	46bd      	mov	sp, r7
 80058ce:	bd80      	pop	{r7, pc}
 80058d0:	20014348 	.word	0x20014348
 80058d4:	20014318 	.word	0x20014318

080058d8 <SEGGER_SYSVIEW_SendTaskList>:
*       SEGGER_SYSVIEW_SendTaskList()
*
*  Function description
*    Send all tasks descriptors to the host.
*/
void SEGGER_SYSVIEW_SendTaskList(void) {
 80058d8:	b580      	push	{r7, lr}
 80058da:	af00      	add	r7, sp, #0
  if (_SYSVIEW_Globals.pOSAPI && _SYSVIEW_Globals.pOSAPI->pfSendTaskList) {
 80058dc:	4b07      	ldr	r3, [pc, #28]	@ (80058fc <SEGGER_SYSVIEW_SendTaskList+0x24>)
 80058de:	6a1b      	ldr	r3, [r3, #32]
 80058e0:	2b00      	cmp	r3, #0
 80058e2:	d008      	beq.n	80058f6 <SEGGER_SYSVIEW_SendTaskList+0x1e>
 80058e4:	4b05      	ldr	r3, [pc, #20]	@ (80058fc <SEGGER_SYSVIEW_SendTaskList+0x24>)
 80058e6:	6a1b      	ldr	r3, [r3, #32]
 80058e8:	685b      	ldr	r3, [r3, #4]
 80058ea:	2b00      	cmp	r3, #0
 80058ec:	d003      	beq.n	80058f6 <SEGGER_SYSVIEW_SendTaskList+0x1e>
    _SYSVIEW_Globals.pOSAPI->pfSendTaskList();
 80058ee:	4b03      	ldr	r3, [pc, #12]	@ (80058fc <SEGGER_SYSVIEW_SendTaskList+0x24>)
 80058f0:	6a1b      	ldr	r3, [r3, #32]
 80058f2:	685b      	ldr	r3, [r3, #4]
 80058f4:	4798      	blx	r3
  }
}
 80058f6:	bf00      	nop
 80058f8:	bd80      	pop	{r7, pc}
 80058fa:	bf00      	nop
 80058fc:	20014318 	.word	0x20014318

08005900 <SEGGER_SYSVIEW_SendSysDesc>:
*
*    The Following items can be described in a system description string.
*    Each item is identified by its identifier, followed by '=' and the value.
*    Items are separated by ','.
*/
void SEGGER_SYSVIEW_SendSysDesc(const char *sSysDesc) {
 8005900:	b580      	push	{r7, lr}
 8005902:	b086      	sub	sp, #24
 8005904:	af00      	add	r7, sp, #0
 8005906:	6078      	str	r0, [r7, #4]
  U8* pPayload;
  U8* pPayloadStart;
  RECORD_START(SEGGER_SYSVIEW_INFO_SIZE + 1 + SEGGER_SYSVIEW_MAX_STRING_LEN);
 8005908:	f3ef 8311 	mrs	r3, BASEPRI
 800590c:	f04f 0120 	mov.w	r1, #32
 8005910:	f381 8811 	msr	BASEPRI, r1
 8005914:	617b      	str	r3, [r7, #20]
 8005916:	480b      	ldr	r0, [pc, #44]	@ (8005944 <SEGGER_SYSVIEW_SendSysDesc+0x44>)
 8005918:	f7ff f8a5 	bl	8004a66 <_PreparePacket>
 800591c:	6138      	str	r0, [r7, #16]
  //
  pPayload = _EncodeStr(pPayloadStart, sSysDesc, SEGGER_SYSVIEW_MAX_STRING_LEN);
 800591e:	2280      	movs	r2, #128	@ 0x80
 8005920:	6879      	ldr	r1, [r7, #4]
 8005922:	6938      	ldr	r0, [r7, #16]
 8005924:	f7ff f866 	bl	80049f4 <_EncodeStr>
 8005928:	60f8      	str	r0, [r7, #12]
  _SendPacket(pPayloadStart, pPayload, SYSVIEW_EVTID_SYSDESC);
 800592a:	220e      	movs	r2, #14
 800592c:	68f9      	ldr	r1, [r7, #12]
 800592e:	6938      	ldr	r0, [r7, #16]
 8005930:	f7ff f986 	bl	8004c40 <_SendPacket>
  RECORD_END();
 8005934:	697b      	ldr	r3, [r7, #20]
 8005936:	f383 8811 	msr	BASEPRI, r3
}
 800593a:	bf00      	nop
 800593c:	3718      	adds	r7, #24
 800593e:	46bd      	mov	sp, r7
 8005940:	bd80      	pop	{r7, pc}
 8005942:	bf00      	nop
 8005944:	20014348 	.word	0x20014348

08005948 <SEGGER_SYSVIEW_RecordSystime>:
*
*  Function description
*    Formats and sends a SystemView Systime containing a single U64 or U32
*    parameter payload.
*/
void SEGGER_SYSVIEW_RecordSystime(void) {
 8005948:	b590      	push	{r4, r7, lr}
 800594a:	b083      	sub	sp, #12
 800594c:	af00      	add	r7, sp, #0
  U64 Systime;

  if (_SYSVIEW_Globals.pOSAPI && _SYSVIEW_Globals.pOSAPI->pfGetTime) {
 800594e:	4b15      	ldr	r3, [pc, #84]	@ (80059a4 <SEGGER_SYSVIEW_RecordSystime+0x5c>)
 8005950:	6a1b      	ldr	r3, [r3, #32]
 8005952:	2b00      	cmp	r3, #0
 8005954:	d01a      	beq.n	800598c <SEGGER_SYSVIEW_RecordSystime+0x44>
 8005956:	4b13      	ldr	r3, [pc, #76]	@ (80059a4 <SEGGER_SYSVIEW_RecordSystime+0x5c>)
 8005958:	6a1b      	ldr	r3, [r3, #32]
 800595a:	681b      	ldr	r3, [r3, #0]
 800595c:	2b00      	cmp	r3, #0
 800595e:	d015      	beq.n	800598c <SEGGER_SYSVIEW_RecordSystime+0x44>
    Systime = _SYSVIEW_Globals.pOSAPI->pfGetTime();
 8005960:	4b10      	ldr	r3, [pc, #64]	@ (80059a4 <SEGGER_SYSVIEW_RecordSystime+0x5c>)
 8005962:	6a1b      	ldr	r3, [r3, #32]
 8005964:	681b      	ldr	r3, [r3, #0]
 8005966:	4798      	blx	r3
 8005968:	e9c7 0100 	strd	r0, r1, [r7]
    SEGGER_SYSVIEW_RecordU32x2(SYSVIEW_EVTID_SYSTIME_US,
 800596c:	683c      	ldr	r4, [r7, #0]
                               (U32)(Systime),
                               (U32)(Systime >> 32));
 800596e:	e9d7 0100 	ldrd	r0, r1, [r7]
 8005972:	f04f 0200 	mov.w	r2, #0
 8005976:	f04f 0300 	mov.w	r3, #0
 800597a:	000a      	movs	r2, r1
 800597c:	2300      	movs	r3, #0
    SEGGER_SYSVIEW_RecordU32x2(SYSVIEW_EVTID_SYSTIME_US,
 800597e:	4613      	mov	r3, r2
 8005980:	461a      	mov	r2, r3
 8005982:	4621      	mov	r1, r4
 8005984:	200d      	movs	r0, #13
 8005986:	f7ff fb77 	bl	8005078 <SEGGER_SYSVIEW_RecordU32x2>
 800598a:	e006      	b.n	800599a <SEGGER_SYSVIEW_RecordSystime+0x52>
  } else {
    SEGGER_SYSVIEW_RecordU32(SYSVIEW_EVTID_SYSTIME_CYCLES, SEGGER_SYSVIEW_GET_TIMESTAMP());
 800598c:	4b06      	ldr	r3, [pc, #24]	@ (80059a8 <SEGGER_SYSVIEW_RecordSystime+0x60>)
 800598e:	681b      	ldr	r3, [r3, #0]
 8005990:	4619      	mov	r1, r3
 8005992:	200c      	movs	r0, #12
 8005994:	f7ff fb34 	bl	8005000 <SEGGER_SYSVIEW_RecordU32>
  }
}
 8005998:	bf00      	nop
 800599a:	bf00      	nop
 800599c:	370c      	adds	r7, #12
 800599e:	46bd      	mov	sp, r7
 80059a0:	bd90      	pop	{r4, r7, pc}
 80059a2:	bf00      	nop
 80059a4:	20014318 	.word	0x20014318
 80059a8:	e0001004 	.word	0xe0001004

080059ac <SEGGER_SYSVIEW_RecordEnterISR>:
*
*  Additional information
*    Example packets sent
*      02 0F 50              // ISR(15) Enter. Timestamp is 80 (0x50)
*/
void SEGGER_SYSVIEW_RecordEnterISR(void) {
 80059ac:	b580      	push	{r7, lr}
 80059ae:	b086      	sub	sp, #24
 80059b0:	af00      	add	r7, sp, #0
  unsigned v;
  U8* pPayload;
  U8* pPayloadStart;
  RECORD_START(SEGGER_SYSVIEW_INFO_SIZE + SEGGER_SYSVIEW_QUANTA_U32);
 80059b2:	f3ef 8311 	mrs	r3, BASEPRI
 80059b6:	f04f 0120 	mov.w	r1, #32
 80059ba:	f381 8811 	msr	BASEPRI, r1
 80059be:	60fb      	str	r3, [r7, #12]
 80059c0:	4819      	ldr	r0, [pc, #100]	@ (8005a28 <SEGGER_SYSVIEW_RecordEnterISR+0x7c>)
 80059c2:	f7ff f850 	bl	8004a66 <_PreparePacket>
 80059c6:	60b8      	str	r0, [r7, #8]
  //
  pPayload = pPayloadStart;
 80059c8:	68bb      	ldr	r3, [r7, #8]
 80059ca:	607b      	str	r3, [r7, #4]
  v = SEGGER_SYSVIEW_GET_INTERRUPT_ID();
 80059cc:	4b17      	ldr	r3, [pc, #92]	@ (8005a2c <SEGGER_SYSVIEW_RecordEnterISR+0x80>)
 80059ce:	681b      	ldr	r3, [r3, #0]
 80059d0:	f3c3 0308 	ubfx	r3, r3, #0, #9
 80059d4:	603b      	str	r3, [r7, #0]
  ENCODE_U32(pPayload, v);
 80059d6:	687b      	ldr	r3, [r7, #4]
 80059d8:	617b      	str	r3, [r7, #20]
 80059da:	683b      	ldr	r3, [r7, #0]
 80059dc:	613b      	str	r3, [r7, #16]
 80059de:	e00b      	b.n	80059f8 <SEGGER_SYSVIEW_RecordEnterISR+0x4c>
 80059e0:	693b      	ldr	r3, [r7, #16]
 80059e2:	b2da      	uxtb	r2, r3
 80059e4:	697b      	ldr	r3, [r7, #20]
 80059e6:	1c59      	adds	r1, r3, #1
 80059e8:	6179      	str	r1, [r7, #20]
 80059ea:	f062 027f 	orn	r2, r2, #127	@ 0x7f
 80059ee:	b2d2      	uxtb	r2, r2
 80059f0:	701a      	strb	r2, [r3, #0]
 80059f2:	693b      	ldr	r3, [r7, #16]
 80059f4:	09db      	lsrs	r3, r3, #7
 80059f6:	613b      	str	r3, [r7, #16]
 80059f8:	693b      	ldr	r3, [r7, #16]
 80059fa:	2b7f      	cmp	r3, #127	@ 0x7f
 80059fc:	d8f0      	bhi.n	80059e0 <SEGGER_SYSVIEW_RecordEnterISR+0x34>
 80059fe:	697b      	ldr	r3, [r7, #20]
 8005a00:	1c5a      	adds	r2, r3, #1
 8005a02:	617a      	str	r2, [r7, #20]
 8005a04:	693a      	ldr	r2, [r7, #16]
 8005a06:	b2d2      	uxtb	r2, r2
 8005a08:	701a      	strb	r2, [r3, #0]
 8005a0a:	697b      	ldr	r3, [r7, #20]
 8005a0c:	607b      	str	r3, [r7, #4]
  _SendPacket(pPayloadStart, pPayload, SYSVIEW_EVTID_ISR_ENTER);
 8005a0e:	2202      	movs	r2, #2
 8005a10:	6879      	ldr	r1, [r7, #4]
 8005a12:	68b8      	ldr	r0, [r7, #8]
 8005a14:	f7ff f914 	bl	8004c40 <_SendPacket>
  RECORD_END();
 8005a18:	68fb      	ldr	r3, [r7, #12]
 8005a1a:	f383 8811 	msr	BASEPRI, r3
}
 8005a1e:	bf00      	nop
 8005a20:	3718      	adds	r7, #24
 8005a22:	46bd      	mov	sp, r7
 8005a24:	bd80      	pop	{r7, pc}
 8005a26:	bf00      	nop
 8005a28:	20014348 	.word	0x20014348
 8005a2c:	e000ed04 	.word	0xe000ed04

08005a30 <SEGGER_SYSVIEW_RecordExitISR>:
*      03 <TimeStamp>        // Max. packet len is 6
*
*    Example packets sent
*      03 20                // ISR Exit. Timestamp is 32 (0x20)
*/
void SEGGER_SYSVIEW_RecordExitISR(void) {
 8005a30:	b580      	push	{r7, lr}
 8005a32:	b082      	sub	sp, #8
 8005a34:	af00      	add	r7, sp, #0
  U8* pPayloadStart;
  RECORD_START(SEGGER_SYSVIEW_INFO_SIZE);
 8005a36:	f3ef 8311 	mrs	r3, BASEPRI
 8005a3a:	f04f 0120 	mov.w	r1, #32
 8005a3e:	f381 8811 	msr	BASEPRI, r1
 8005a42:	607b      	str	r3, [r7, #4]
 8005a44:	4807      	ldr	r0, [pc, #28]	@ (8005a64 <SEGGER_SYSVIEW_RecordExitISR+0x34>)
 8005a46:	f7ff f80e 	bl	8004a66 <_PreparePacket>
 8005a4a:	6038      	str	r0, [r7, #0]
  //
  _SendPacket(pPayloadStart, pPayloadStart, SYSVIEW_EVTID_ISR_EXIT);
 8005a4c:	2203      	movs	r2, #3
 8005a4e:	6839      	ldr	r1, [r7, #0]
 8005a50:	6838      	ldr	r0, [r7, #0]
 8005a52:	f7ff f8f5 	bl	8004c40 <_SendPacket>
  RECORD_END();
 8005a56:	687b      	ldr	r3, [r7, #4]
 8005a58:	f383 8811 	msr	BASEPRI, r3
}
 8005a5c:	bf00      	nop
 8005a5e:	3708      	adds	r7, #8
 8005a60:	46bd      	mov	sp, r7
 8005a62:	bd80      	pop	{r7, pc}
 8005a64:	20014348 	.word	0x20014348

08005a68 <SEGGER_SYSVIEW_RecordExitISRToScheduler>:
*      18 <TimeStamp>        // Max. packet len is 6
*
*    Example packets sent
*      18 20                // ISR Exit to Scheduler. Timestamp is 32 (0x20)
*/
void SEGGER_SYSVIEW_RecordExitISRToScheduler(void) {
 8005a68:	b580      	push	{r7, lr}
 8005a6a:	b082      	sub	sp, #8
 8005a6c:	af00      	add	r7, sp, #0
  U8* pPayloadStart;
  RECORD_START(SEGGER_SYSVIEW_INFO_SIZE);
 8005a6e:	f3ef 8311 	mrs	r3, BASEPRI
 8005a72:	f04f 0120 	mov.w	r1, #32
 8005a76:	f381 8811 	msr	BASEPRI, r1
 8005a7a:	607b      	str	r3, [r7, #4]
 8005a7c:	4807      	ldr	r0, [pc, #28]	@ (8005a9c <SEGGER_SYSVIEW_RecordExitISRToScheduler+0x34>)
 8005a7e:	f7fe fff2 	bl	8004a66 <_PreparePacket>
 8005a82:	6038      	str	r0, [r7, #0]
  //
  _SendPacket(pPayloadStart, pPayloadStart, SYSVIEW_EVTID_ISR_TO_SCHEDULER);
 8005a84:	2212      	movs	r2, #18
 8005a86:	6839      	ldr	r1, [r7, #0]
 8005a88:	6838      	ldr	r0, [r7, #0]
 8005a8a:	f7ff f8d9 	bl	8004c40 <_SendPacket>
  RECORD_END();
 8005a8e:	687b      	ldr	r3, [r7, #4]
 8005a90:	f383 8811 	msr	BASEPRI, r3
}
 8005a94:	bf00      	nop
 8005a96:	3708      	adds	r7, #8
 8005a98:	46bd      	mov	sp, r7
 8005a9a:	bd80      	pop	{r7, pc}
 8005a9c:	20014348 	.word	0x20014348

08005aa0 <SEGGER_SYSVIEW_RecordEndCall>:
*    Format and send an End API Call event without return value.
*
*  Parameters
*    EventID - Id of API function which ends.
*/
void SEGGER_SYSVIEW_RecordEndCall(unsigned int EventID) {
 8005aa0:	b580      	push	{r7, lr}
 8005aa2:	b088      	sub	sp, #32
 8005aa4:	af00      	add	r7, sp, #0
 8005aa6:	6078      	str	r0, [r7, #4]
  U8* pPayload;
  U8* pPayloadStart;
  RECORD_START(SEGGER_SYSVIEW_INFO_SIZE + SEGGER_SYSVIEW_QUANTA_U32);
 8005aa8:	f3ef 8311 	mrs	r3, BASEPRI
 8005aac:	f04f 0120 	mov.w	r1, #32
 8005ab0:	f381 8811 	msr	BASEPRI, r1
 8005ab4:	617b      	str	r3, [r7, #20]
 8005ab6:	4817      	ldr	r0, [pc, #92]	@ (8005b14 <SEGGER_SYSVIEW_RecordEndCall+0x74>)
 8005ab8:	f7fe ffd5 	bl	8004a66 <_PreparePacket>
 8005abc:	6138      	str	r0, [r7, #16]
  //
  pPayload = pPayloadStart;
 8005abe:	693b      	ldr	r3, [r7, #16]
 8005ac0:	60fb      	str	r3, [r7, #12]
  ENCODE_U32(pPayload, EventID);
 8005ac2:	68fb      	ldr	r3, [r7, #12]
 8005ac4:	61fb      	str	r3, [r7, #28]
 8005ac6:	687b      	ldr	r3, [r7, #4]
 8005ac8:	61bb      	str	r3, [r7, #24]
 8005aca:	e00b      	b.n	8005ae4 <SEGGER_SYSVIEW_RecordEndCall+0x44>
 8005acc:	69bb      	ldr	r3, [r7, #24]
 8005ace:	b2da      	uxtb	r2, r3
 8005ad0:	69fb      	ldr	r3, [r7, #28]
 8005ad2:	1c59      	adds	r1, r3, #1
 8005ad4:	61f9      	str	r1, [r7, #28]
 8005ad6:	f062 027f 	orn	r2, r2, #127	@ 0x7f
 8005ada:	b2d2      	uxtb	r2, r2
 8005adc:	701a      	strb	r2, [r3, #0]
 8005ade:	69bb      	ldr	r3, [r7, #24]
 8005ae0:	09db      	lsrs	r3, r3, #7
 8005ae2:	61bb      	str	r3, [r7, #24]
 8005ae4:	69bb      	ldr	r3, [r7, #24]
 8005ae6:	2b7f      	cmp	r3, #127	@ 0x7f
 8005ae8:	d8f0      	bhi.n	8005acc <SEGGER_SYSVIEW_RecordEndCall+0x2c>
 8005aea:	69fb      	ldr	r3, [r7, #28]
 8005aec:	1c5a      	adds	r2, r3, #1
 8005aee:	61fa      	str	r2, [r7, #28]
 8005af0:	69ba      	ldr	r2, [r7, #24]
 8005af2:	b2d2      	uxtb	r2, r2
 8005af4:	701a      	strb	r2, [r3, #0]
 8005af6:	69fb      	ldr	r3, [r7, #28]
 8005af8:	60fb      	str	r3, [r7, #12]
  _SendPacket(pPayloadStart, pPayload, SYSVIEW_EVTID_END_CALL);
 8005afa:	221c      	movs	r2, #28
 8005afc:	68f9      	ldr	r1, [r7, #12]
 8005afe:	6938      	ldr	r0, [r7, #16]
 8005b00:	f7ff f89e 	bl	8004c40 <_SendPacket>
  RECORD_END();
 8005b04:	697b      	ldr	r3, [r7, #20]
 8005b06:	f383 8811 	msr	BASEPRI, r3
}
 8005b0a:	bf00      	nop
 8005b0c:	3720      	adds	r7, #32
 8005b0e:	46bd      	mov	sp, r7
 8005b10:	bd80      	pop	{r7, pc}
 8005b12:	bf00      	nop
 8005b14:	20014348 	.word	0x20014348

08005b18 <SEGGER_SYSVIEW_RecordEndCallU32>:
*
*  Parameters
*    EventID      - Id of API function which ends.
*    Para0        - Return value which will be returned by the API function.
*/
void SEGGER_SYSVIEW_RecordEndCallU32(unsigned int EventID, U32 Para0) {
 8005b18:	b580      	push	{r7, lr}
 8005b1a:	b08a      	sub	sp, #40	@ 0x28
 8005b1c:	af00      	add	r7, sp, #0
 8005b1e:	6078      	str	r0, [r7, #4]
 8005b20:	6039      	str	r1, [r7, #0]
  U8* pPayload;
  U8* pPayloadStart;
  RECORD_START(SEGGER_SYSVIEW_INFO_SIZE + 2 * SEGGER_SYSVIEW_QUANTA_U32);
 8005b22:	f3ef 8311 	mrs	r3, BASEPRI
 8005b26:	f04f 0120 	mov.w	r1, #32
 8005b2a:	f381 8811 	msr	BASEPRI, r1
 8005b2e:	617b      	str	r3, [r7, #20]
 8005b30:	4824      	ldr	r0, [pc, #144]	@ (8005bc4 <SEGGER_SYSVIEW_RecordEndCallU32+0xac>)
 8005b32:	f7fe ff98 	bl	8004a66 <_PreparePacket>
 8005b36:	6138      	str	r0, [r7, #16]
  //
  pPayload = pPayloadStart;
 8005b38:	693b      	ldr	r3, [r7, #16]
 8005b3a:	60fb      	str	r3, [r7, #12]
  ENCODE_U32(pPayload, EventID);
 8005b3c:	68fb      	ldr	r3, [r7, #12]
 8005b3e:	627b      	str	r3, [r7, #36]	@ 0x24
 8005b40:	687b      	ldr	r3, [r7, #4]
 8005b42:	623b      	str	r3, [r7, #32]
 8005b44:	e00b      	b.n	8005b5e <SEGGER_SYSVIEW_RecordEndCallU32+0x46>
 8005b46:	6a3b      	ldr	r3, [r7, #32]
 8005b48:	b2da      	uxtb	r2, r3
 8005b4a:	6a7b      	ldr	r3, [r7, #36]	@ 0x24
 8005b4c:	1c59      	adds	r1, r3, #1
 8005b4e:	6279      	str	r1, [r7, #36]	@ 0x24
 8005b50:	f062 027f 	orn	r2, r2, #127	@ 0x7f
 8005b54:	b2d2      	uxtb	r2, r2
 8005b56:	701a      	strb	r2, [r3, #0]
 8005b58:	6a3b      	ldr	r3, [r7, #32]
 8005b5a:	09db      	lsrs	r3, r3, #7
 8005b5c:	623b      	str	r3, [r7, #32]
 8005b5e:	6a3b      	ldr	r3, [r7, #32]
 8005b60:	2b7f      	cmp	r3, #127	@ 0x7f
 8005b62:	d8f0      	bhi.n	8005b46 <SEGGER_SYSVIEW_RecordEndCallU32+0x2e>
 8005b64:	6a7b      	ldr	r3, [r7, #36]	@ 0x24
 8005b66:	1c5a      	adds	r2, r3, #1
 8005b68:	627a      	str	r2, [r7, #36]	@ 0x24
 8005b6a:	6a3a      	ldr	r2, [r7, #32]
 8005b6c:	b2d2      	uxtb	r2, r2
 8005b6e:	701a      	strb	r2, [r3, #0]
 8005b70:	6a7b      	ldr	r3, [r7, #36]	@ 0x24
 8005b72:	60fb      	str	r3, [r7, #12]
  ENCODE_U32(pPayload, Para0);
 8005b74:	68fb      	ldr	r3, [r7, #12]
 8005b76:	61fb      	str	r3, [r7, #28]
 8005b78:	683b      	ldr	r3, [r7, #0]
 8005b7a:	61bb      	str	r3, [r7, #24]
 8005b7c:	e00b      	b.n	8005b96 <SEGGER_SYSVIEW_RecordEndCallU32+0x7e>
 8005b7e:	69bb      	ldr	r3, [r7, #24]
 8005b80:	b2da      	uxtb	r2, r3
 8005b82:	69fb      	ldr	r3, [r7, #28]
 8005b84:	1c59      	adds	r1, r3, #1
 8005b86:	61f9      	str	r1, [r7, #28]
 8005b88:	f062 027f 	orn	r2, r2, #127	@ 0x7f
 8005b8c:	b2d2      	uxtb	r2, r2
 8005b8e:	701a      	strb	r2, [r3, #0]
 8005b90:	69bb      	ldr	r3, [r7, #24]
 8005b92:	09db      	lsrs	r3, r3, #7
 8005b94:	61bb      	str	r3, [r7, #24]
 8005b96:	69bb      	ldr	r3, [r7, #24]
 8005b98:	2b7f      	cmp	r3, #127	@ 0x7f
 8005b9a:	d8f0      	bhi.n	8005b7e <SEGGER_SYSVIEW_RecordEndCallU32+0x66>
 8005b9c:	69fb      	ldr	r3, [r7, #28]
 8005b9e:	1c5a      	adds	r2, r3, #1
 8005ba0:	61fa      	str	r2, [r7, #28]
 8005ba2:	69ba      	ldr	r2, [r7, #24]
 8005ba4:	b2d2      	uxtb	r2, r2
 8005ba6:	701a      	strb	r2, [r3, #0]
 8005ba8:	69fb      	ldr	r3, [r7, #28]
 8005baa:	60fb      	str	r3, [r7, #12]
  _SendPacket(pPayloadStart, pPayload, SYSVIEW_EVTID_END_CALL);
 8005bac:	221c      	movs	r2, #28
 8005bae:	68f9      	ldr	r1, [r7, #12]
 8005bb0:	6938      	ldr	r0, [r7, #16]
 8005bb2:	f7ff f845 	bl	8004c40 <_SendPacket>
  RECORD_END();
 8005bb6:	697b      	ldr	r3, [r7, #20]
 8005bb8:	f383 8811 	msr	BASEPRI, r3
}
 8005bbc:	bf00      	nop
 8005bbe:	3728      	adds	r7, #40	@ 0x28
 8005bc0:	46bd      	mov	sp, r7
 8005bc2:	bd80      	pop	{r7, pc}
 8005bc4:	20014348 	.word	0x20014348

08005bc8 <SEGGER_SYSVIEW_OnIdle>:
*       SEGGER_SYSVIEW_OnIdle()
*
*  Function description
*    Record an Idle event.
*/
void SEGGER_SYSVIEW_OnIdle(void) {
 8005bc8:	b580      	push	{r7, lr}
 8005bca:	b082      	sub	sp, #8
 8005bcc:	af00      	add	r7, sp, #0
  U8* pPayloadStart;
  RECORD_START(SEGGER_SYSVIEW_INFO_SIZE);
 8005bce:	f3ef 8311 	mrs	r3, BASEPRI
 8005bd2:	f04f 0120 	mov.w	r1, #32
 8005bd6:	f381 8811 	msr	BASEPRI, r1
 8005bda:	607b      	str	r3, [r7, #4]
 8005bdc:	4807      	ldr	r0, [pc, #28]	@ (8005bfc <SEGGER_SYSVIEW_OnIdle+0x34>)
 8005bde:	f7fe ff42 	bl	8004a66 <_PreparePacket>
 8005be2:	6038      	str	r0, [r7, #0]
  //
  _SendPacket(pPayloadStart, pPayloadStart, SYSVIEW_EVTID_IDLE);
 8005be4:	2211      	movs	r2, #17
 8005be6:	6839      	ldr	r1, [r7, #0]
 8005be8:	6838      	ldr	r0, [r7, #0]
 8005bea:	f7ff f829 	bl	8004c40 <_SendPacket>
  RECORD_END();
 8005bee:	687b      	ldr	r3, [r7, #4]
 8005bf0:	f383 8811 	msr	BASEPRI, r3
}
 8005bf4:	bf00      	nop
 8005bf6:	3708      	adds	r7, #8
 8005bf8:	46bd      	mov	sp, r7
 8005bfa:	bd80      	pop	{r7, pc}
 8005bfc:	20014348 	.word	0x20014348

08005c00 <SEGGER_SYSVIEW_OnTaskCreate>:
*    to creating a task in the OS.
*
*  Parameters
*    TaskId        - Task ID of created task.
*/
void SEGGER_SYSVIEW_OnTaskCreate(U32 TaskId) {
 8005c00:	b580      	push	{r7, lr}
 8005c02:	b088      	sub	sp, #32
 8005c04:	af00      	add	r7, sp, #0
 8005c06:	6078      	str	r0, [r7, #4]
  U8* pPayload;
  U8* pPayloadStart;
  RECORD_START(SEGGER_SYSVIEW_INFO_SIZE + SEGGER_SYSVIEW_QUANTA_U32);
 8005c08:	f3ef 8311 	mrs	r3, BASEPRI
 8005c0c:	f04f 0120 	mov.w	r1, #32
 8005c10:	f381 8811 	msr	BASEPRI, r1
 8005c14:	617b      	str	r3, [r7, #20]
 8005c16:	4819      	ldr	r0, [pc, #100]	@ (8005c7c <SEGGER_SYSVIEW_OnTaskCreate+0x7c>)
 8005c18:	f7fe ff25 	bl	8004a66 <_PreparePacket>
 8005c1c:	6138      	str	r0, [r7, #16]
  //
  pPayload = pPayloadStart;
 8005c1e:	693b      	ldr	r3, [r7, #16]
 8005c20:	60fb      	str	r3, [r7, #12]
  TaskId = SHRINK_ID(TaskId);
 8005c22:	4b17      	ldr	r3, [pc, #92]	@ (8005c80 <SEGGER_SYSVIEW_OnTaskCreate+0x80>)
 8005c24:	691b      	ldr	r3, [r3, #16]
 8005c26:	687a      	ldr	r2, [r7, #4]
 8005c28:	1ad3      	subs	r3, r2, r3
 8005c2a:	607b      	str	r3, [r7, #4]
  ENCODE_U32(pPayload, TaskId);
 8005c2c:	68fb      	ldr	r3, [r7, #12]
 8005c2e:	61fb      	str	r3, [r7, #28]
 8005c30:	687b      	ldr	r3, [r7, #4]
 8005c32:	61bb      	str	r3, [r7, #24]
 8005c34:	e00b      	b.n	8005c4e <SEGGER_SYSVIEW_OnTaskCreate+0x4e>
 8005c36:	69bb      	ldr	r3, [r7, #24]
 8005c38:	b2da      	uxtb	r2, r3
 8005c3a:	69fb      	ldr	r3, [r7, #28]
 8005c3c:	1c59      	adds	r1, r3, #1
 8005c3e:	61f9      	str	r1, [r7, #28]
 8005c40:	f062 027f 	orn	r2, r2, #127	@ 0x7f
 8005c44:	b2d2      	uxtb	r2, r2
 8005c46:	701a      	strb	r2, [r3, #0]
 8005c48:	69bb      	ldr	r3, [r7, #24]
 8005c4a:	09db      	lsrs	r3, r3, #7
 8005c4c:	61bb      	str	r3, [r7, #24]
 8005c4e:	69bb      	ldr	r3, [r7, #24]
 8005c50:	2b7f      	cmp	r3, #127	@ 0x7f
 8005c52:	d8f0      	bhi.n	8005c36 <SEGGER_SYSVIEW_OnTaskCreate+0x36>
 8005c54:	69fb      	ldr	r3, [r7, #28]
 8005c56:	1c5a      	adds	r2, r3, #1
 8005c58:	61fa      	str	r2, [r7, #28]
 8005c5a:	69ba      	ldr	r2, [r7, #24]
 8005c5c:	b2d2      	uxtb	r2, r2
 8005c5e:	701a      	strb	r2, [r3, #0]
 8005c60:	69fb      	ldr	r3, [r7, #28]
 8005c62:	60fb      	str	r3, [r7, #12]
  _SendPacket(pPayloadStart, pPayload, SYSVIEW_EVTID_TASK_CREATE);
 8005c64:	2208      	movs	r2, #8
 8005c66:	68f9      	ldr	r1, [r7, #12]
 8005c68:	6938      	ldr	r0, [r7, #16]
 8005c6a:	f7fe ffe9 	bl	8004c40 <_SendPacket>
  RECORD_END();
 8005c6e:	697b      	ldr	r3, [r7, #20]
 8005c70:	f383 8811 	msr	BASEPRI, r3
}
 8005c74:	bf00      	nop
 8005c76:	3720      	adds	r7, #32
 8005c78:	46bd      	mov	sp, r7
 8005c7a:	bd80      	pop	{r7, pc}
 8005c7c:	20014348 	.word	0x20014348
 8005c80:	20014318 	.word	0x20014318

08005c84 <SEGGER_SYSVIEW_OnTaskStartExec>:
*    when it is ready to execute.
*
*  Parameters
*    TaskId - Task ID of task that started to execute.
*/
void SEGGER_SYSVIEW_OnTaskStartExec(U32 TaskId) {
 8005c84:	b580      	push	{r7, lr}
 8005c86:	b088      	sub	sp, #32
 8005c88:	af00      	add	r7, sp, #0
 8005c8a:	6078      	str	r0, [r7, #4]
  U8* pPayload;
  U8* pPayloadStart;
  RECORD_START(SEGGER_SYSVIEW_INFO_SIZE + SEGGER_SYSVIEW_QUANTA_U32);
 8005c8c:	f3ef 8311 	mrs	r3, BASEPRI
 8005c90:	f04f 0120 	mov.w	r1, #32
 8005c94:	f381 8811 	msr	BASEPRI, r1
 8005c98:	617b      	str	r3, [r7, #20]
 8005c9a:	4819      	ldr	r0, [pc, #100]	@ (8005d00 <SEGGER_SYSVIEW_OnTaskStartExec+0x7c>)
 8005c9c:	f7fe fee3 	bl	8004a66 <_PreparePacket>
 8005ca0:	6138      	str	r0, [r7, #16]
  //
  pPayload = pPayloadStart;
 8005ca2:	693b      	ldr	r3, [r7, #16]
 8005ca4:	60fb      	str	r3, [r7, #12]
  TaskId = SHRINK_ID(TaskId);
 8005ca6:	4b17      	ldr	r3, [pc, #92]	@ (8005d04 <SEGGER_SYSVIEW_OnTaskStartExec+0x80>)
 8005ca8:	691b      	ldr	r3, [r3, #16]
 8005caa:	687a      	ldr	r2, [r7, #4]
 8005cac:	1ad3      	subs	r3, r2, r3
 8005cae:	607b      	str	r3, [r7, #4]
  ENCODE_U32(pPayload, TaskId);
 8005cb0:	68fb      	ldr	r3, [r7, #12]
 8005cb2:	61fb      	str	r3, [r7, #28]
 8005cb4:	687b      	ldr	r3, [r7, #4]
 8005cb6:	61bb      	str	r3, [r7, #24]
 8005cb8:	e00b      	b.n	8005cd2 <SEGGER_SYSVIEW_OnTaskStartExec+0x4e>
 8005cba:	69bb      	ldr	r3, [r7, #24]
 8005cbc:	b2da      	uxtb	r2, r3
 8005cbe:	69fb      	ldr	r3, [r7, #28]
 8005cc0:	1c59      	adds	r1, r3, #1
 8005cc2:	61f9      	str	r1, [r7, #28]
 8005cc4:	f062 027f 	orn	r2, r2, #127	@ 0x7f
 8005cc8:	b2d2      	uxtb	r2, r2
 8005cca:	701a      	strb	r2, [r3, #0]
 8005ccc:	69bb      	ldr	r3, [r7, #24]
 8005cce:	09db      	lsrs	r3, r3, #7
 8005cd0:	61bb      	str	r3, [r7, #24]
 8005cd2:	69bb      	ldr	r3, [r7, #24]
 8005cd4:	2b7f      	cmp	r3, #127	@ 0x7f
 8005cd6:	d8f0      	bhi.n	8005cba <SEGGER_SYSVIEW_OnTaskStartExec+0x36>
 8005cd8:	69fb      	ldr	r3, [r7, #28]
 8005cda:	1c5a      	adds	r2, r3, #1
 8005cdc:	61fa      	str	r2, [r7, #28]
 8005cde:	69ba      	ldr	r2, [r7, #24]
 8005ce0:	b2d2      	uxtb	r2, r2
 8005ce2:	701a      	strb	r2, [r3, #0]
 8005ce4:	69fb      	ldr	r3, [r7, #28]
 8005ce6:	60fb      	str	r3, [r7, #12]
  _SendPacket(pPayloadStart, pPayload, SYSVIEW_EVTID_TASK_START_EXEC);
 8005ce8:	2204      	movs	r2, #4
 8005cea:	68f9      	ldr	r1, [r7, #12]
 8005cec:	6938      	ldr	r0, [r7, #16]
 8005cee:	f7fe ffa7 	bl	8004c40 <_SendPacket>
  RECORD_END();
 8005cf2:	697b      	ldr	r3, [r7, #20]
 8005cf4:	f383 8811 	msr	BASEPRI, r3
}
 8005cf8:	bf00      	nop
 8005cfa:	3720      	adds	r7, #32
 8005cfc:	46bd      	mov	sp, r7
 8005cfe:	bd80      	pop	{r7, pc}
 8005d00:	20014348 	.word	0x20014348
 8005d04:	20014318 	.word	0x20014318

08005d08 <SEGGER_SYSVIEW_OnTaskStartReady>:
*    Record a Task Start Ready event.
*
*  Parameters
*    TaskId - Task ID of task that started to execute.
*/
void SEGGER_SYSVIEW_OnTaskStartReady(U32 TaskId) {
 8005d08:	b580      	push	{r7, lr}
 8005d0a:	b088      	sub	sp, #32
 8005d0c:	af00      	add	r7, sp, #0
 8005d0e:	6078      	str	r0, [r7, #4]
  U8* pPayload;
  U8* pPayloadStart;
  RECORD_START(SEGGER_SYSVIEW_INFO_SIZE + SEGGER_SYSVIEW_QUANTA_U32);
 8005d10:	f3ef 8311 	mrs	r3, BASEPRI
 8005d14:	f04f 0120 	mov.w	r1, #32
 8005d18:	f381 8811 	msr	BASEPRI, r1
 8005d1c:	617b      	str	r3, [r7, #20]
 8005d1e:	4819      	ldr	r0, [pc, #100]	@ (8005d84 <SEGGER_SYSVIEW_OnTaskStartReady+0x7c>)
 8005d20:	f7fe fea1 	bl	8004a66 <_PreparePacket>
 8005d24:	6138      	str	r0, [r7, #16]
  //
  pPayload = pPayloadStart;
 8005d26:	693b      	ldr	r3, [r7, #16]
 8005d28:	60fb      	str	r3, [r7, #12]
  TaskId = SHRINK_ID(TaskId);
 8005d2a:	4b17      	ldr	r3, [pc, #92]	@ (8005d88 <SEGGER_SYSVIEW_OnTaskStartReady+0x80>)
 8005d2c:	691b      	ldr	r3, [r3, #16]
 8005d2e:	687a      	ldr	r2, [r7, #4]
 8005d30:	1ad3      	subs	r3, r2, r3
 8005d32:	607b      	str	r3, [r7, #4]
  ENCODE_U32(pPayload, TaskId);
 8005d34:	68fb      	ldr	r3, [r7, #12]
 8005d36:	61fb      	str	r3, [r7, #28]
 8005d38:	687b      	ldr	r3, [r7, #4]
 8005d3a:	61bb      	str	r3, [r7, #24]
 8005d3c:	e00b      	b.n	8005d56 <SEGGER_SYSVIEW_OnTaskStartReady+0x4e>
 8005d3e:	69bb      	ldr	r3, [r7, #24]
 8005d40:	b2da      	uxtb	r2, r3
 8005d42:	69fb      	ldr	r3, [r7, #28]
 8005d44:	1c59      	adds	r1, r3, #1
 8005d46:	61f9      	str	r1, [r7, #28]
 8005d48:	f062 027f 	orn	r2, r2, #127	@ 0x7f
 8005d4c:	b2d2      	uxtb	r2, r2
 8005d4e:	701a      	strb	r2, [r3, #0]
 8005d50:	69bb      	ldr	r3, [r7, #24]
 8005d52:	09db      	lsrs	r3, r3, #7
 8005d54:	61bb      	str	r3, [r7, #24]
 8005d56:	69bb      	ldr	r3, [r7, #24]
 8005d58:	2b7f      	cmp	r3, #127	@ 0x7f
 8005d5a:	d8f0      	bhi.n	8005d3e <SEGGER_SYSVIEW_OnTaskStartReady+0x36>
 8005d5c:	69fb      	ldr	r3, [r7, #28]
 8005d5e:	1c5a      	adds	r2, r3, #1
 8005d60:	61fa      	str	r2, [r7, #28]
 8005d62:	69ba      	ldr	r2, [r7, #24]
 8005d64:	b2d2      	uxtb	r2, r2
 8005d66:	701a      	strb	r2, [r3, #0]
 8005d68:	69fb      	ldr	r3, [r7, #28]
 8005d6a:	60fb      	str	r3, [r7, #12]
  _SendPacket(pPayloadStart, pPayload, SYSVIEW_EVTID_TASK_START_READY);
 8005d6c:	2206      	movs	r2, #6
 8005d6e:	68f9      	ldr	r1, [r7, #12]
 8005d70:	6938      	ldr	r0, [r7, #16]
 8005d72:	f7fe ff65 	bl	8004c40 <_SendPacket>
  RECORD_END();
 8005d76:	697b      	ldr	r3, [r7, #20]
 8005d78:	f383 8811 	msr	BASEPRI, r3
}
 8005d7c:	bf00      	nop
 8005d7e:	3720      	adds	r7, #32
 8005d80:	46bd      	mov	sp, r7
 8005d82:	bd80      	pop	{r7, pc}
 8005d84:	20014348 	.word	0x20014348
 8005d88:	20014318 	.word	0x20014318

08005d8c <SEGGER_SYSVIEW_OnTaskStopReady>:
*
*  Parameters
*    TaskId - Task ID of task that completed execution.
*    Cause  - Reason for task to stop (i.e. Idle/Sleep)
*/
void SEGGER_SYSVIEW_OnTaskStopReady(U32 TaskId, unsigned int Cause) {
 8005d8c:	b580      	push	{r7, lr}
 8005d8e:	b08a      	sub	sp, #40	@ 0x28
 8005d90:	af00      	add	r7, sp, #0
 8005d92:	6078      	str	r0, [r7, #4]
 8005d94:	6039      	str	r1, [r7, #0]
  U8* pPayload;
  U8* pPayloadStart;
  RECORD_START(SEGGER_SYSVIEW_INFO_SIZE + 2 * SEGGER_SYSVIEW_QUANTA_U32);
 8005d96:	f3ef 8311 	mrs	r3, BASEPRI
 8005d9a:	f04f 0120 	mov.w	r1, #32
 8005d9e:	f381 8811 	msr	BASEPRI, r1
 8005da2:	617b      	str	r3, [r7, #20]
 8005da4:	4827      	ldr	r0, [pc, #156]	@ (8005e44 <SEGGER_SYSVIEW_OnTaskStopReady+0xb8>)
 8005da6:	f7fe fe5e 	bl	8004a66 <_PreparePacket>
 8005daa:	6138      	str	r0, [r7, #16]
  //
  pPayload = pPayloadStart;
 8005dac:	693b      	ldr	r3, [r7, #16]
 8005dae:	60fb      	str	r3, [r7, #12]
  TaskId = SHRINK_ID(TaskId);
 8005db0:	4b25      	ldr	r3, [pc, #148]	@ (8005e48 <SEGGER_SYSVIEW_OnTaskStopReady+0xbc>)
 8005db2:	691b      	ldr	r3, [r3, #16]
 8005db4:	687a      	ldr	r2, [r7, #4]
 8005db6:	1ad3      	subs	r3, r2, r3
 8005db8:	607b      	str	r3, [r7, #4]
  ENCODE_U32(pPayload, TaskId);
 8005dba:	68fb      	ldr	r3, [r7, #12]
 8005dbc:	627b      	str	r3, [r7, #36]	@ 0x24
 8005dbe:	687b      	ldr	r3, [r7, #4]
 8005dc0:	623b      	str	r3, [r7, #32]
 8005dc2:	e00b      	b.n	8005ddc <SEGGER_SYSVIEW_OnTaskStopReady+0x50>
 8005dc4:	6a3b      	ldr	r3, [r7, #32]
 8005dc6:	b2da      	uxtb	r2, r3
 8005dc8:	6a7b      	ldr	r3, [r7, #36]	@ 0x24
 8005dca:	1c59      	adds	r1, r3, #1
 8005dcc:	6279      	str	r1, [r7, #36]	@ 0x24
 8005dce:	f062 027f 	orn	r2, r2, #127	@ 0x7f
 8005dd2:	b2d2      	uxtb	r2, r2
 8005dd4:	701a      	strb	r2, [r3, #0]
 8005dd6:	6a3b      	ldr	r3, [r7, #32]
 8005dd8:	09db      	lsrs	r3, r3, #7
 8005dda:	623b      	str	r3, [r7, #32]
 8005ddc:	6a3b      	ldr	r3, [r7, #32]
 8005dde:	2b7f      	cmp	r3, #127	@ 0x7f
 8005de0:	d8f0      	bhi.n	8005dc4 <SEGGER_SYSVIEW_OnTaskStopReady+0x38>
 8005de2:	6a7b      	ldr	r3, [r7, #36]	@ 0x24
 8005de4:	1c5a      	adds	r2, r3, #1
 8005de6:	627a      	str	r2, [r7, #36]	@ 0x24
 8005de8:	6a3a      	ldr	r2, [r7, #32]
 8005dea:	b2d2      	uxtb	r2, r2
 8005dec:	701a      	strb	r2, [r3, #0]
 8005dee:	6a7b      	ldr	r3, [r7, #36]	@ 0x24
 8005df0:	60fb      	str	r3, [r7, #12]
  ENCODE_U32(pPayload, Cause);
 8005df2:	68fb      	ldr	r3, [r7, #12]
 8005df4:	61fb      	str	r3, [r7, #28]
 8005df6:	683b      	ldr	r3, [r7, #0]
 8005df8:	61bb      	str	r3, [r7, #24]
 8005dfa:	e00b      	b.n	8005e14 <SEGGER_SYSVIEW_OnTaskStopReady+0x88>
 8005dfc:	69bb      	ldr	r3, [r7, #24]
 8005dfe:	b2da      	uxtb	r2, r3
 8005e00:	69fb      	ldr	r3, [r7, #28]
 8005e02:	1c59      	adds	r1, r3, #1
 8005e04:	61f9      	str	r1, [r7, #28]
 8005e06:	f062 027f 	orn	r2, r2, #127	@ 0x7f
 8005e0a:	b2d2      	uxtb	r2, r2
 8005e0c:	701a      	strb	r2, [r3, #0]
 8005e0e:	69bb      	ldr	r3, [r7, #24]
 8005e10:	09db      	lsrs	r3, r3, #7
 8005e12:	61bb      	str	r3, [r7, #24]
 8005e14:	69bb      	ldr	r3, [r7, #24]
 8005e16:	2b7f      	cmp	r3, #127	@ 0x7f
 8005e18:	d8f0      	bhi.n	8005dfc <SEGGER_SYSVIEW_OnTaskStopReady+0x70>
 8005e1a:	69fb      	ldr	r3, [r7, #28]
 8005e1c:	1c5a      	adds	r2, r3, #1
 8005e1e:	61fa      	str	r2, [r7, #28]
 8005e20:	69ba      	ldr	r2, [r7, #24]
 8005e22:	b2d2      	uxtb	r2, r2
 8005e24:	701a      	strb	r2, [r3, #0]
 8005e26:	69fb      	ldr	r3, [r7, #28]
 8005e28:	60fb      	str	r3, [r7, #12]
  _SendPacket(pPayloadStart, pPayload, SYSVIEW_EVTID_TASK_STOP_READY);
 8005e2a:	2207      	movs	r2, #7
 8005e2c:	68f9      	ldr	r1, [r7, #12]
 8005e2e:	6938      	ldr	r0, [r7, #16]
 8005e30:	f7fe ff06 	bl	8004c40 <_SendPacket>
  RECORD_END();
 8005e34:	697b      	ldr	r3, [r7, #20]
 8005e36:	f383 8811 	msr	BASEPRI, r3
}
 8005e3a:	bf00      	nop
 8005e3c:	3728      	adds	r7, #40	@ 0x28
 8005e3e:	46bd      	mov	sp, r7
 8005e40:	bd80      	pop	{r7, pc}
 8005e42:	bf00      	nop
 8005e44:	20014348 	.word	0x20014348
 8005e48:	20014318 	.word	0x20014318

08005e4c <SEGGER_SYSVIEW_ShrinkId>:
*     SEGGER_SYSVIEW_ID_BASE: Lowest Id reported by the application.
*       (i.e. 0x20000000 when all Ids are an address in this RAM)
*     SEGGER_SYSVIEW_ID_SHIFT: Number of bits to shift the Id to
*       save bandwidth. (i.e. 2 when Ids are 4 byte aligned)
*/
U32 SEGGER_SYSVIEW_ShrinkId(U32 Id) {
 8005e4c:	b480      	push	{r7}
 8005e4e:	b083      	sub	sp, #12
 8005e50:	af00      	add	r7, sp, #0
 8005e52:	6078      	str	r0, [r7, #4]
  return SHRINK_ID(Id);
 8005e54:	4b04      	ldr	r3, [pc, #16]	@ (8005e68 <SEGGER_SYSVIEW_ShrinkId+0x1c>)
 8005e56:	691b      	ldr	r3, [r3, #16]
 8005e58:	687a      	ldr	r2, [r7, #4]
 8005e5a:	1ad3      	subs	r3, r2, r3
}
 8005e5c:	4618      	mov	r0, r3
 8005e5e:	370c      	adds	r7, #12
 8005e60:	46bd      	mov	sp, r7
 8005e62:	f85d 7b04 	ldr.w	r7, [sp], #4
 8005e66:	4770      	bx	lr
 8005e68:	20014318 	.word	0x20014318

08005e6c <SEGGER_SYSVIEW_SendModule>:
*    Sends the information of a registered module to the host.
*
*  Parameters
*    ModuleId   - Id of the requested module.
*/
void SEGGER_SYSVIEW_SendModule(U8 ModuleId) {
 8005e6c:	b580      	push	{r7, lr}
 8005e6e:	b08c      	sub	sp, #48	@ 0x30
 8005e70:	af00      	add	r7, sp, #0
 8005e72:	4603      	mov	r3, r0
 8005e74:	71fb      	strb	r3, [r7, #7]
  SEGGER_SYSVIEW_MODULE* pModule;
  U32 n;

  if (_pFirstModule != 0) {
 8005e76:	4b40      	ldr	r3, [pc, #256]	@ (8005f78 <SEGGER_SYSVIEW_SendModule+0x10c>)
 8005e78:	681b      	ldr	r3, [r3, #0]
 8005e7a:	2b00      	cmp	r3, #0
 8005e7c:	d077      	beq.n	8005f6e <SEGGER_SYSVIEW_SendModule+0x102>
    pModule = _pFirstModule;
 8005e7e:	4b3e      	ldr	r3, [pc, #248]	@ (8005f78 <SEGGER_SYSVIEW_SendModule+0x10c>)
 8005e80:	681b      	ldr	r3, [r3, #0]
 8005e82:	62fb      	str	r3, [r7, #44]	@ 0x2c
    for (n = 0; n < ModuleId; n++) {
 8005e84:	2300      	movs	r3, #0
 8005e86:	62bb      	str	r3, [r7, #40]	@ 0x28
 8005e88:	e008      	b.n	8005e9c <SEGGER_SYSVIEW_SendModule+0x30>
      pModule = pModule->pNext;
 8005e8a:	6afb      	ldr	r3, [r7, #44]	@ 0x2c
 8005e8c:	691b      	ldr	r3, [r3, #16]
 8005e8e:	62fb      	str	r3, [r7, #44]	@ 0x2c
      if (pModule == 0) {
 8005e90:	6afb      	ldr	r3, [r7, #44]	@ 0x2c
 8005e92:	2b00      	cmp	r3, #0
 8005e94:	d007      	beq.n	8005ea6 <SEGGER_SYSVIEW_SendModule+0x3a>
    for (n = 0; n < ModuleId; n++) {
 8005e96:	6abb      	ldr	r3, [r7, #40]	@ 0x28
 8005e98:	3301      	adds	r3, #1
 8005e9a:	62bb      	str	r3, [r7, #40]	@ 0x28
 8005e9c:	79fb      	ldrb	r3, [r7, #7]
 8005e9e:	6aba      	ldr	r2, [r7, #40]	@ 0x28
 8005ea0:	429a      	cmp	r2, r3
 8005ea2:	d3f2      	bcc.n	8005e8a <SEGGER_SYSVIEW_SendModule+0x1e>
 8005ea4:	e000      	b.n	8005ea8 <SEGGER_SYSVIEW_SendModule+0x3c>
        break;
 8005ea6:	bf00      	nop
      }
    }
    if (pModule != 0) {
 8005ea8:	6afb      	ldr	r3, [r7, #44]	@ 0x2c
 8005eaa:	2b00      	cmp	r3, #0
 8005eac:	d055      	beq.n	8005f5a <SEGGER_SYSVIEW_SendModule+0xee>
      U8* pPayload;
      U8* pPayloadStart;
      RECORD_START(SEGGER_SYSVIEW_INFO_SIZE + 2 * SEGGER_SYSVIEW_QUANTA_U32 + 1 + SEGGER_SYSVIEW_MAX_STRING_LEN);
 8005eae:	f3ef 8311 	mrs	r3, BASEPRI
 8005eb2:	f04f 0120 	mov.w	r1, #32
 8005eb6:	f381 8811 	msr	BASEPRI, r1
 8005eba:	617b      	str	r3, [r7, #20]
 8005ebc:	482f      	ldr	r0, [pc, #188]	@ (8005f7c <SEGGER_SYSVIEW_SendModule+0x110>)
 8005ebe:	f7fe fdd2 	bl	8004a66 <_PreparePacket>
 8005ec2:	6138      	str	r0, [r7, #16]
      //
      pPayload = pPayloadStart;
 8005ec4:	693b      	ldr	r3, [r7, #16]
 8005ec6:	60fb      	str	r3, [r7, #12]
      //
      // Send module description
      // Send event offset and number of events
      //
      ENCODE_U32(pPayload, ModuleId);
 8005ec8:	68fb      	ldr	r3, [r7, #12]
 8005eca:	627b      	str	r3, [r7, #36]	@ 0x24
 8005ecc:	79fb      	ldrb	r3, [r7, #7]
 8005ece:	623b      	str	r3, [r7, #32]
 8005ed0:	e00b      	b.n	8005eea <SEGGER_SYSVIEW_SendModule+0x7e>
 8005ed2:	6a3b      	ldr	r3, [r7, #32]
 8005ed4:	b2da      	uxtb	r2, r3
 8005ed6:	6a7b      	ldr	r3, [r7, #36]	@ 0x24
 8005ed8:	1c59      	adds	r1, r3, #1
 8005eda:	6279      	str	r1, [r7, #36]	@ 0x24
 8005edc:	f062 027f 	orn	r2, r2, #127	@ 0x7f
 8005ee0:	b2d2      	uxtb	r2, r2
 8005ee2:	701a      	strb	r2, [r3, #0]
 8005ee4:	6a3b      	ldr	r3, [r7, #32]
 8005ee6:	09db      	lsrs	r3, r3, #7
 8005ee8:	623b      	str	r3, [r7, #32]
 8005eea:	6a3b      	ldr	r3, [r7, #32]
 8005eec:	2b7f      	cmp	r3, #127	@ 0x7f
 8005eee:	d8f0      	bhi.n	8005ed2 <SEGGER_SYSVIEW_SendModule+0x66>
 8005ef0:	6a7b      	ldr	r3, [r7, #36]	@ 0x24
 8005ef2:	1c5a      	adds	r2, r3, #1
 8005ef4:	627a      	str	r2, [r7, #36]	@ 0x24
 8005ef6:	6a3a      	ldr	r2, [r7, #32]
 8005ef8:	b2d2      	uxtb	r2, r2
 8005efa:	701a      	strb	r2, [r3, #0]
 8005efc:	6a7b      	ldr	r3, [r7, #36]	@ 0x24
 8005efe:	60fb      	str	r3, [r7, #12]
      ENCODE_U32(pPayload, (pModule->EventOffset));
 8005f00:	68fb      	ldr	r3, [r7, #12]
 8005f02:	61fb      	str	r3, [r7, #28]
 8005f04:	6afb      	ldr	r3, [r7, #44]	@ 0x2c
 8005f06:	689b      	ldr	r3, [r3, #8]
 8005f08:	61bb      	str	r3, [r7, #24]
 8005f0a:	e00b      	b.n	8005f24 <SEGGER_SYSVIEW_SendModule+0xb8>
 8005f0c:	69bb      	ldr	r3, [r7, #24]
 8005f0e:	b2da      	uxtb	r2, r3
 8005f10:	69fb      	ldr	r3, [r7, #28]
 8005f12:	1c59      	adds	r1, r3, #1
 8005f14:	61f9      	str	r1, [r7, #28]
 8005f16:	f062 027f 	orn	r2, r2, #127	@ 0x7f
 8005f1a:	b2d2      	uxtb	r2, r2
 8005f1c:	701a      	strb	r2, [r3, #0]
 8005f1e:	69bb      	ldr	r3, [r7, #24]
 8005f20:	09db      	lsrs	r3, r3, #7
 8005f22:	61bb      	str	r3, [r7, #24]
 8005f24:	69bb      	ldr	r3, [r7, #24]
 8005f26:	2b7f      	cmp	r3, #127	@ 0x7f
 8005f28:	d8f0      	bhi.n	8005f0c <SEGGER_SYSVIEW_SendModule+0xa0>
 8005f2a:	69fb      	ldr	r3, [r7, #28]
 8005f2c:	1c5a      	adds	r2, r3, #1
 8005f2e:	61fa      	str	r2, [r7, #28]
 8005f30:	69ba      	ldr	r2, [r7, #24]
 8005f32:	b2d2      	uxtb	r2, r2
 8005f34:	701a      	strb	r2, [r3, #0]
 8005f36:	69fb      	ldr	r3, [r7, #28]
 8005f38:	60fb      	str	r3, [r7, #12]
      pPayload = _EncodeStr(pPayload, pModule->sModule, SEGGER_SYSVIEW_MAX_STRING_LEN);
 8005f3a:	6afb      	ldr	r3, [r7, #44]	@ 0x2c
 8005f3c:	681b      	ldr	r3, [r3, #0]
 8005f3e:	2280      	movs	r2, #128	@ 0x80
 8005f40:	4619      	mov	r1, r3
 8005f42:	68f8      	ldr	r0, [r7, #12]
 8005f44:	f7fe fd56 	bl	80049f4 <_EncodeStr>
 8005f48:	60f8      	str	r0, [r7, #12]
      _SendPacket(pPayloadStart, pPayload, SYSVIEW_EVTID_MODULEDESC);
 8005f4a:	2216      	movs	r2, #22
 8005f4c:	68f9      	ldr	r1, [r7, #12]
 8005f4e:	6938      	ldr	r0, [r7, #16]
 8005f50:	f7fe fe76 	bl	8004c40 <_SendPacket>
      RECORD_END();
 8005f54:	697b      	ldr	r3, [r7, #20]
 8005f56:	f383 8811 	msr	BASEPRI, r3
    }
    if (pModule && pModule->pfSendModuleDesc) {
 8005f5a:	6afb      	ldr	r3, [r7, #44]	@ 0x2c
 8005f5c:	2b00      	cmp	r3, #0
 8005f5e:	d006      	beq.n	8005f6e <SEGGER_SYSVIEW_SendModule+0x102>
 8005f60:	6afb      	ldr	r3, [r7, #44]	@ 0x2c
 8005f62:	68db      	ldr	r3, [r3, #12]
 8005f64:	2b00      	cmp	r3, #0
 8005f66:	d002      	beq.n	8005f6e <SEGGER_SYSVIEW_SendModule+0x102>
      pModule->pfSendModuleDesc();
 8005f68:	6afb      	ldr	r3, [r7, #44]	@ 0x2c
 8005f6a:	68db      	ldr	r3, [r3, #12]
 8005f6c:	4798      	blx	r3
    }
  }
}
 8005f6e:	bf00      	nop
 8005f70:	3730      	adds	r7, #48	@ 0x30
 8005f72:	46bd      	mov	sp, r7
 8005f74:	bd80      	pop	{r7, pc}
 8005f76:	bf00      	nop
 8005f78:	20014340 	.word	0x20014340
 8005f7c:	20014348 	.word	0x20014348

08005f80 <SEGGER_SYSVIEW_SendModuleDescription>:
*
*  Function description
*    Triggers a send of the registered module descriptions.
*
*/
void SEGGER_SYSVIEW_SendModuleDescription(void) {
 8005f80:	b580      	push	{r7, lr}
 8005f82:	b082      	sub	sp, #8
 8005f84:	af00      	add	r7, sp, #0
  SEGGER_SYSVIEW_MODULE* pModule;

  if (_pFirstModule != 0) {
 8005f86:	4b0c      	ldr	r3, [pc, #48]	@ (8005fb8 <SEGGER_SYSVIEW_SendModuleDescription+0x38>)
 8005f88:	681b      	ldr	r3, [r3, #0]
 8005f8a:	2b00      	cmp	r3, #0
 8005f8c:	d00f      	beq.n	8005fae <SEGGER_SYSVIEW_SendModuleDescription+0x2e>
    pModule = _pFirstModule;
 8005f8e:	4b0a      	ldr	r3, [pc, #40]	@ (8005fb8 <SEGGER_SYSVIEW_SendModuleDescription+0x38>)
 8005f90:	681b      	ldr	r3, [r3, #0]
 8005f92:	607b      	str	r3, [r7, #4]
    do {
      if (pModule->pfSendModuleDesc) {
 8005f94:	687b      	ldr	r3, [r7, #4]
 8005f96:	68db      	ldr	r3, [r3, #12]
 8005f98:	2b00      	cmp	r3, #0
 8005f9a:	d002      	beq.n	8005fa2 <SEGGER_SYSVIEW_SendModuleDescription+0x22>
        pModule->pfSendModuleDesc();
 8005f9c:	687b      	ldr	r3, [r7, #4]
 8005f9e:	68db      	ldr	r3, [r3, #12]
 8005fa0:	4798      	blx	r3
      }
      pModule = pModule->pNext;
 8005fa2:	687b      	ldr	r3, [r7, #4]
 8005fa4:	691b      	ldr	r3, [r3, #16]
 8005fa6:	607b      	str	r3, [r7, #4]
    } while (pModule);
 8005fa8:	687b      	ldr	r3, [r7, #4]
 8005faa:	2b00      	cmp	r3, #0
 8005fac:	d1f2      	bne.n	8005f94 <SEGGER_SYSVIEW_SendModuleDescription+0x14>
  }
}
 8005fae:	bf00      	nop
 8005fb0:	3708      	adds	r7, #8
 8005fb2:	46bd      	mov	sp, r7
 8005fb4:	bd80      	pop	{r7, pc}
 8005fb6:	bf00      	nop
 8005fb8:	20014340 	.word	0x20014340

08005fbc <SEGGER_SYSVIEW_SendNumModules>:
*       SEGGER_SYSVIEW_SendNumModules()
*
*  Function description
*    Send the number of registered modules to the host.
*/
void SEGGER_SYSVIEW_SendNumModules(void) {
 8005fbc:	b580      	push	{r7, lr}
 8005fbe:	b086      	sub	sp, #24
 8005fc0:	af00      	add	r7, sp, #0
  U8* pPayload;
  U8* pPayloadStart;
  RECORD_START(SEGGER_SYSVIEW_INFO_SIZE + 2*SEGGER_SYSVIEW_QUANTA_U32);
 8005fc2:	f3ef 8311 	mrs	r3, BASEPRI
 8005fc6:	f04f 0120 	mov.w	r1, #32
 8005fca:	f381 8811 	msr	BASEPRI, r1
 8005fce:	60fb      	str	r3, [r7, #12]
 8005fd0:	4817      	ldr	r0, [pc, #92]	@ (8006030 <SEGGER_SYSVIEW_SendNumModules+0x74>)
 8005fd2:	f7fe fd48 	bl	8004a66 <_PreparePacket>
 8005fd6:	60b8      	str	r0, [r7, #8]
  pPayload = pPayloadStart;
 8005fd8:	68bb      	ldr	r3, [r7, #8]
 8005fda:	607b      	str	r3, [r7, #4]
  ENCODE_U32(pPayload, _NumModules);
 8005fdc:	687b      	ldr	r3, [r7, #4]
 8005fde:	617b      	str	r3, [r7, #20]
 8005fe0:	4b14      	ldr	r3, [pc, #80]	@ (8006034 <SEGGER_SYSVIEW_SendNumModules+0x78>)
 8005fe2:	781b      	ldrb	r3, [r3, #0]
 8005fe4:	613b      	str	r3, [r7, #16]
 8005fe6:	e00b      	b.n	8006000 <SEGGER_SYSVIEW_SendNumModules+0x44>
 8005fe8:	693b      	ldr	r3, [r7, #16]
 8005fea:	b2da      	uxtb	r2, r3
 8005fec:	697b      	ldr	r3, [r7, #20]
 8005fee:	1c59      	adds	r1, r3, #1
 8005ff0:	6179      	str	r1, [r7, #20]
 8005ff2:	f062 027f 	orn	r2, r2, #127	@ 0x7f
 8005ff6:	b2d2      	uxtb	r2, r2
 8005ff8:	701a      	strb	r2, [r3, #0]
 8005ffa:	693b      	ldr	r3, [r7, #16]
 8005ffc:	09db      	lsrs	r3, r3, #7
 8005ffe:	613b      	str	r3, [r7, #16]
 8006000:	693b      	ldr	r3, [r7, #16]
 8006002:	2b7f      	cmp	r3, #127	@ 0x7f
 8006004:	d8f0      	bhi.n	8005fe8 <SEGGER_SYSVIEW_SendNumModules+0x2c>
 8006006:	697b      	ldr	r3, [r7, #20]
 8006008:	1c5a      	adds	r2, r3, #1
 800600a:	617a      	str	r2, [r7, #20]
 800600c:	693a      	ldr	r2, [r7, #16]
 800600e:	b2d2      	uxtb	r2, r2
 8006010:	701a      	strb	r2, [r3, #0]
 8006012:	697b      	ldr	r3, [r7, #20]
 8006014:	607b      	str	r3, [r7, #4]
  _SendPacket(pPayloadStart, pPayload, SYSVIEW_EVTID_NUMMODULES);
 8006016:	221b      	movs	r2, #27
 8006018:	6879      	ldr	r1, [r7, #4]
 800601a:	68b8      	ldr	r0, [r7, #8]
 800601c:	f7fe fe10 	bl	8004c40 <_SendPacket>
  RECORD_END();
 8006020:	68fb      	ldr	r3, [r7, #12]
 8006022:	f383 8811 	msr	BASEPRI, r3
}
 8006026:	bf00      	nop
 8006028:	3718      	adds	r7, #24
 800602a:	46bd      	mov	sp, r7
 800602c:	bd80      	pop	{r7, pc}
 800602e:	bf00      	nop
 8006030:	20014348 	.word	0x20014348
 8006034:	20014344 	.word	0x20014344

08006038 <SEGGER_SYSVIEW_Warn>:
*    Print a warning string to the host.
*
*  Parameters
*    s        - String to sent.
*/
void SEGGER_SYSVIEW_Warn(const char* s) {
 8006038:	b580      	push	{r7, lr}
 800603a:	b08a      	sub	sp, #40	@ 0x28
 800603c:	af00      	add	r7, sp, #0
 800603e:	6078      	str	r0, [r7, #4]
  U8* pPayload;
  U8* pPayloadStart;
  RECORD_START(SEGGER_SYSVIEW_INFO_SIZE + 2 * SEGGER_SYSVIEW_QUANTA_U32 + SEGGER_SYSVIEW_MAX_STRING_LEN);
 8006040:	f3ef 8311 	mrs	r3, BASEPRI
 8006044:	f04f 0120 	mov.w	r1, #32
 8006048:	f381 8811 	msr	BASEPRI, r1
 800604c:	617b      	str	r3, [r7, #20]
 800604e:	4827      	ldr	r0, [pc, #156]	@ (80060ec <SEGGER_SYSVIEW_Warn+0xb4>)
 8006050:	f7fe fd09 	bl	8004a66 <_PreparePacket>
 8006054:	6138      	str	r0, [r7, #16]
  //
  pPayload = _EncodeStr(pPayloadStart, s, SEGGER_SYSVIEW_MAX_STRING_LEN);
 8006056:	2280      	movs	r2, #128	@ 0x80
 8006058:	6879      	ldr	r1, [r7, #4]
 800605a:	6938      	ldr	r0, [r7, #16]
 800605c:	f7fe fcca 	bl	80049f4 <_EncodeStr>
 8006060:	60f8      	str	r0, [r7, #12]
  ENCODE_U32(pPayload, SEGGER_SYSVIEW_WARNING);
 8006062:	68fb      	ldr	r3, [r7, #12]
 8006064:	627b      	str	r3, [r7, #36]	@ 0x24
 8006066:	2301      	movs	r3, #1
 8006068:	623b      	str	r3, [r7, #32]
 800606a:	e00b      	b.n	8006084 <SEGGER_SYSVIEW_Warn+0x4c>
 800606c:	6a3b      	ldr	r3, [r7, #32]
 800606e:	b2da      	uxtb	r2, r3
 8006070:	6a7b      	ldr	r3, [r7, #36]	@ 0x24
 8006072:	1c59      	adds	r1, r3, #1
 8006074:	6279      	str	r1, [r7, #36]	@ 0x24
 8006076:	f062 027f 	orn	r2, r2, #127	@ 0x7f
 800607a:	b2d2      	uxtb	r2, r2
 800607c:	701a      	strb	r2, [r3, #0]
 800607e:	6a3b      	ldr	r3, [r7, #32]
 8006080:	09db      	lsrs	r3, r3, #7
 8006082:	623b      	str	r3, [r7, #32]
 8006084:	6a3b      	ldr	r3, [r7, #32]
 8006086:	2b7f      	cmp	r3, #127	@ 0x7f
 8006088:	d8f0      	bhi.n	800606c <SEGGER_SYSVIEW_Warn+0x34>
 800608a:	6a7b      	ldr	r3, [r7, #36]	@ 0x24
 800608c:	1c5a      	adds	r2, r3, #1
 800608e:	627a      	str	r2, [r7, #36]	@ 0x24
 8006090:	6a3a      	ldr	r2, [r7, #32]
 8006092:	b2d2      	uxtb	r2, r2
 8006094:	701a      	strb	r2, [r3, #0]
 8006096:	6a7b      	ldr	r3, [r7, #36]	@ 0x24
 8006098:	60fb      	str	r3, [r7, #12]
  ENCODE_U32(pPayload, 0);
 800609a:	68fb      	ldr	r3, [r7, #12]
 800609c:	61fb      	str	r3, [r7, #28]
 800609e:	2300      	movs	r3, #0
 80060a0:	61bb      	str	r3, [r7, #24]
 80060a2:	e00b      	b.n	80060bc <SEGGER_SYSVIEW_Warn+0x84>
 80060a4:	69bb      	ldr	r3, [r7, #24]
 80060a6:	b2da      	uxtb	r2, r3
 80060a8:	69fb      	ldr	r3, [r7, #28]
 80060aa:	1c59      	adds	r1, r3, #1
 80060ac:	61f9      	str	r1, [r7, #28]
 80060ae:	f062 027f 	orn	r2, r2, #127	@ 0x7f
 80060b2:	b2d2      	uxtb	r2, r2
 80060b4:	701a      	strb	r2, [r3, #0]
 80060b6:	69bb      	ldr	r3, [r7, #24]
 80060b8:	09db      	lsrs	r3, r3, #7
 80060ba:	61bb      	str	r3, [r7, #24]
 80060bc:	69bb      	ldr	r3, [r7, #24]
 80060be:	2b7f      	cmp	r3, #127	@ 0x7f
 80060c0:	d8f0      	bhi.n	80060a4 <SEGGER_SYSVIEW_Warn+0x6c>
 80060c2:	69fb      	ldr	r3, [r7, #28]
 80060c4:	1c5a      	adds	r2, r3, #1
 80060c6:	61fa      	str	r2, [r7, #28]
 80060c8:	69ba      	ldr	r2, [r7, #24]
 80060ca:	b2d2      	uxtb	r2, r2
 80060cc:	701a      	strb	r2, [r3, #0]
 80060ce:	69fb      	ldr	r3, [r7, #28]
 80060d0:	60fb      	str	r3, [r7, #12]
  _SendPacket(pPayloadStart, pPayload, SYSVIEW_EVTID_PRINT_FORMATTED);
 80060d2:	221a      	movs	r2, #26
 80060d4:	68f9      	ldr	r1, [r7, #12]
 80060d6:	6938      	ldr	r0, [r7, #16]
 80060d8:	f7fe fdb2 	bl	8004c40 <_SendPacket>
  RECORD_END();
 80060dc:	697b      	ldr	r3, [r7, #20]
 80060de:	f383 8811 	msr	BASEPRI, r3
}
 80060e2:	bf00      	nop
 80060e4:	3728      	adds	r7, #40	@ 0x28
 80060e6:	46bd      	mov	sp, r7
 80060e8:	bd80      	pop	{r7, pc}
 80060ea:	bf00      	nop
 80060ec:	20014348 	.word	0x20014348

080060f0 <memcmp>:
 80060f0:	b510      	push	{r4, lr}
 80060f2:	3901      	subs	r1, #1
 80060f4:	4402      	add	r2, r0
 80060f6:	4290      	cmp	r0, r2
 80060f8:	d101      	bne.n	80060fe <memcmp+0xe>
 80060fa:	2000      	movs	r0, #0
 80060fc:	e005      	b.n	800610a <memcmp+0x1a>
 80060fe:	7803      	ldrb	r3, [r0, #0]
 8006100:	f811 4f01 	ldrb.w	r4, [r1, #1]!
 8006104:	42a3      	cmp	r3, r4
 8006106:	d001      	beq.n	800610c <memcmp+0x1c>
 8006108:	1b18      	subs	r0, r3, r4
 800610a:	bd10      	pop	{r4, pc}
 800610c:	3001      	adds	r0, #1
 800610e:	e7f2      	b.n	80060f6 <memcmp+0x6>

08006110 <memset>:
 8006110:	4402      	add	r2, r0
 8006112:	4603      	mov	r3, r0
 8006114:	4293      	cmp	r3, r2
 8006116:	d100      	bne.n	800611a <memset+0xa>
 8006118:	4770      	bx	lr
 800611a:	f803 1b01 	strb.w	r1, [r3], #1
 800611e:	e7f9      	b.n	8006114 <memset+0x4>

08006120 <__libc_init_array>:
 8006120:	b570      	push	{r4, r5, r6, lr}
 8006122:	4d0d      	ldr	r5, [pc, #52]	@ (8006158 <__libc_init_array+0x38>)
 8006124:	4c0d      	ldr	r4, [pc, #52]	@ (800615c <__libc_init_array+0x3c>)
 8006126:	1b64      	subs	r4, r4, r5
 8006128:	10a4      	asrs	r4, r4, #2
 800612a:	2600      	movs	r6, #0
 800612c:	42a6      	cmp	r6, r4
 800612e:	d109      	bne.n	8006144 <__libc_init_array+0x24>
 8006130:	4d0b      	ldr	r5, [pc, #44]	@ (8006160 <__libc_init_array+0x40>)
 8006132:	4c0c      	ldr	r4, [pc, #48]	@ (8006164 <__libc_init_array+0x44>)
 8006134:	f000 f826 	bl	8006184 <_init>
 8006138:	1b64      	subs	r4, r4, r5
 800613a:	10a4      	asrs	r4, r4, #2
 800613c:	2600      	movs	r6, #0
 800613e:	42a6      	cmp	r6, r4
 8006140:	d105      	bne.n	800614e <__libc_init_array+0x2e>
 8006142:	bd70      	pop	{r4, r5, r6, pc}
 8006144:	f855 3b04 	ldr.w	r3, [r5], #4
 8006148:	4798      	blx	r3
 800614a:	3601      	adds	r6, #1
 800614c:	e7ee      	b.n	800612c <__libc_init_array+0xc>
 800614e:	f855 3b04 	ldr.w	r3, [r5], #4
 8006152:	4798      	blx	r3
 8006154:	3601      	adds	r6, #1
 8006156:	e7f2      	b.n	800613e <__libc_init_array+0x1e>
 8006158:	080062f4 	.word	0x080062f4
 800615c:	080062f4 	.word	0x080062f4
 8006160:	080062f4 	.word	0x080062f4
 8006164:	080062f8 	.word	0x080062f8

08006168 <memcpy>:
 8006168:	440a      	add	r2, r1
 800616a:	4291      	cmp	r1, r2
 800616c:	f100 33ff 	add.w	r3, r0, #4294967295	@ 0xffffffff
 8006170:	d100      	bne.n	8006174 <memcpy+0xc>
 8006172:	4770      	bx	lr
 8006174:	b510      	push	{r4, lr}
 8006176:	f811 4b01 	ldrb.w	r4, [r1], #1
 800617a:	f803 4f01 	strb.w	r4, [r3, #1]!
 800617e:	4291      	cmp	r1, r2
 8006180:	d1f9      	bne.n	8006176 <memcpy+0xe>
 8006182:	bd10      	pop	{r4, pc}

08006184 <_init>:
 8006184:	b5f8      	push	{r3, r4, r5, r6, r7, lr}
 8006186:	bf00      	nop
 8006188:	bcf8      	pop	{r3, r4, r5, r6, r7}
 800618a:	bc08      	pop	{r3}
 800618c:	469e      	mov	lr, r3
 800618e:	4770      	bx	lr

08006190 <_fini>:
 8006190:	b5f8      	push	{r3, r4, r5, r6, r7, lr}
 8006192:	bf00      	nop
 8006194:	bcf8      	pop	{r3, r4, r5, r6, r7}
 8006196:	bc08      	pop	{r3}
 8006198:	469e      	mov	lr, r3
 800619a:	4770      	bx	lr
